In archive lib_gd32/libGD32F207C_EVAL.a:

gd32f207c_eval.o:     file format elf32-littlearm


Disassembly of section .text:

00000000 <gd_eval_led_init>:
   0:	b538      	push	{r3, r4, r5, lr}
   2:	4605      	mov	r5, r0
   4:	4c08      	ldr	r4, [pc, #32]	; (28 <gd_eval_led_init+0x28>)
   6:	f834 0010 	ldrh.w	r0, [r4, r0, lsl #1]
   a:	eb04 0485 	add.w	r4, r4, r5, lsl #2
   e:	f7ff fffe 	bl	0 <rcu_periph_clock_enable>
  12:	68a5      	ldr	r5, [r4, #8]
  14:	69a4      	ldr	r4, [r4, #24]
  16:	2203      	movs	r2, #3
  18:	4623      	mov	r3, r4
  1a:	2110      	movs	r1, #16
  1c:	4628      	mov	r0, r5
  1e:	f7ff fffe 	bl	0 <gpio_init>
  22:	616c      	str	r4, [r5, #20]
  24:	bd38      	pop	{r3, r4, r5, pc}
  26:	bf00      	nop
  28:	00000000 	.word	0x00000000

0000002c <gd_eval_led_on>:
  2c:	4b03      	ldr	r3, [pc, #12]	; (3c <gd_eval_led_on+0x10>)
  2e:	eb03 0080 	add.w	r0, r3, r0, lsl #2
  32:	6883      	ldr	r3, [r0, #8]
  34:	6982      	ldr	r2, [r0, #24]
  36:	611a      	str	r2, [r3, #16]
  38:	4770      	bx	lr
  3a:	bf00      	nop
  3c:	00000000 	.word	0x00000000

00000040 <gd_eval_led_off>:
  40:	4b03      	ldr	r3, [pc, #12]	; (50 <gd_eval_led_off+0x10>)
  42:	eb03 0080 	add.w	r0, r3, r0, lsl #2
  46:	6883      	ldr	r3, [r0, #8]
  48:	6982      	ldr	r2, [r0, #24]
  4a:	615a      	str	r2, [r3, #20]
  4c:	4770      	bx	lr
  4e:	bf00      	nop
  50:	00000000 	.word	0x00000000

00000054 <gd_eval_led_toggle>:
  54:	b538      	push	{r3, r4, r5, lr}
  56:	4b09      	ldr	r3, [pc, #36]	; (7c <gd_eval_led_toggle+0x28>)
  58:	eb03 0080 	add.w	r0, r3, r0, lsl #2
  5c:	6985      	ldr	r5, [r0, #24]
  5e:	6884      	ldr	r4, [r0, #8]
  60:	4629      	mov	r1, r5
  62:	4620      	mov	r0, r4
  64:	f7ff fffe 	bl	0 <gpio_input_bit_get>
  68:	f1c0 0201 	rsb	r2, r0, #1
  6c:	4629      	mov	r1, r5
  6e:	4620      	mov	r0, r4
  70:	e8bd 4038 	ldmia.w	sp!, {r3, r4, r5, lr}
  74:	b2d2      	uxtb	r2, r2
  76:	f7ff bffe 	b.w	0 <gpio_bit_write>
  7a:	bf00      	nop
  7c:	00000000 	.word	0x00000000

00000080 <gd_eval_key_init>:
  80:	b570      	push	{r4, r5, r6, lr}
  82:	4605      	mov	r5, r0
  84:	460e      	mov	r6, r1
  86:	4c17      	ldr	r4, [pc, #92]	; (e4 <gd_eval_key_init+0x64>)
  88:	eb04 0340 	add.w	r3, r4, r0, lsl #1
  8c:	8d18      	ldrh	r0, [r3, #40]	; 0x28
  8e:	f7ff fffe 	bl	0 <rcu_periph_clock_enable>
  92:	f44f 60c0 	mov.w	r0, #1536	; 0x600
  96:	f7ff fffe 	bl	0 <rcu_periph_clock_enable>
  9a:	eb04 0085 	add.w	r0, r4, r5, lsl #2
  9e:	6b03      	ldr	r3, [r0, #48]	; 0x30
  a0:	2203      	movs	r2, #3
  a2:	2104      	movs	r1, #4
  a4:	6bc0      	ldr	r0, [r0, #60]	; 0x3c
  a6:	f7ff fffe 	bl	0 <gpio_init>
  aa:	2e01      	cmp	r6, #1
  ac:	d119      	bne.n	e2 <gd_eval_key_init+0x62>
  ae:	442c      	add	r4, r5
  b0:	2200      	movs	r2, #0
  b2:	f894 0048 	ldrb.w	r0, [r4, #72]	; 0x48
  b6:	2102      	movs	r1, #2
  b8:	f7ff fffe 	bl	0 <nvic_irq_enable>
  bc:	f894 104b 	ldrb.w	r1, [r4, #75]	; 0x4b
  c0:	f894 004e 	ldrb.w	r0, [r4, #78]	; 0x4e
  c4:	f7ff fffe 	bl	0 <gpio_exti_source_select>
  c8:	4b07      	ldr	r3, [pc, #28]	; (e8 <gd_eval_key_init+0x68>)
  ca:	4632      	mov	r2, r6
  cc:	f853 4025 	ldr.w	r4, [r3, r5, lsl #2]
  d0:	2100      	movs	r1, #0
  d2:	4620      	mov	r0, r4
  d4:	f7ff fffe 	bl	0 <exti_init>
  d8:	4620      	mov	r0, r4
  da:	e8bd 4070 	ldmia.w	sp!, {r4, r5, r6, lr}
  de:	f7ff bffe 	b.w	0 <exti_interrupt_flag_clear>
  e2:	bd70      	pop	{r4, r5, r6, pc}
  e4:	00000000 	.word	0x00000000
  e8:	00000030 	.word	0x00000030

000000ec <gd_eval_key_state_get>:
  ec:	4b03      	ldr	r3, [pc, #12]	; (fc <gd_eval_key_state_get+0x10>)
  ee:	eb03 0080 	add.w	r0, r3, r0, lsl #2
  f2:	6b01      	ldr	r1, [r0, #48]	; 0x30
  f4:	6bc0      	ldr	r0, [r0, #60]	; 0x3c
  f6:	f7ff bffe 	b.w	0 <gpio_input_bit_get>
  fa:	bf00      	nop
  fc:	00000000 	.word	0x00000000

00000100 <gd_eval_com_init>:
 100:	b538      	push	{r3, r4, r5, lr}
 102:	4604      	mov	r4, r0
 104:	4d1f      	ldr	r5, [pc, #124]	; (184 <gd_eval_com_init+0x84>)
 106:	f240 6002 	movw	r0, #1538	; 0x602
 10a:	f7ff fffe 	bl	0 <rcu_periph_clock_enable>
 10e:	f240 600e 	movw	r0, #1550	; 0x60e
 112:	f7ff fffe 	bl	0 <rcu_periph_clock_enable>
 116:	4628      	mov	r0, r5
 118:	f44f 7300 	mov.w	r3, #512	; 0x200
 11c:	2203      	movs	r2, #3
 11e:	2118      	movs	r1, #24
 120:	f7ff fffe 	bl	0 <gpio_init>
 124:	f44f 6380 	mov.w	r3, #1024	; 0x400
 128:	2203      	movs	r2, #3
 12a:	2104      	movs	r1, #4
 12c:	4628      	mov	r0, r5
 12e:	f7ff fffe 	bl	0 <gpio_init>
 132:	4620      	mov	r0, r4
 134:	f7ff fffe 	bl	0 <usart_deinit>
 138:	4620      	mov	r0, r4
 13a:	f44f 31e1 	mov.w	r1, #115200	; 0x1c200
 13e:	f7ff fffe 	bl	0 <usart_baudrate_set>
 142:	4620      	mov	r0, r4
 144:	2100      	movs	r1, #0
 146:	f7ff fffe 	bl	0 <usart_word_length_set>
 14a:	4620      	mov	r0, r4
 14c:	2100      	movs	r1, #0
 14e:	f7ff fffe 	bl	0 <usart_stop_bit_set>
 152:	4620      	mov	r0, r4
 154:	2100      	movs	r1, #0
 156:	f7ff fffe 	bl	0 <usart_parity_config>
 15a:	4620      	mov	r0, r4
 15c:	2100      	movs	r1, #0
 15e:	f7ff fffe 	bl	0 <usart_hardware_flow_rts_config>
 162:	4620      	mov	r0, r4
 164:	2100      	movs	r1, #0
 166:	f7ff fffe 	bl	0 <usart_hardware_flow_cts_config>
 16a:	4620      	mov	r0, r4
 16c:	2104      	movs	r1, #4
 16e:	f7ff fffe 	bl	0 <usart_receive_config>
 172:	4620      	mov	r0, r4
 174:	2108      	movs	r1, #8
 176:	f7ff fffe 	bl	0 <usart_transmit_config>
 17a:	4620      	mov	r0, r4
 17c:	e8bd 4038 	ldmia.w	sp!, {r3, r4, r5, lr}
 180:	f7ff bffe 	b.w	0 <usart_enable>
 184:	40010800 	.word	0x40010800

gd32f207c_nandflash_eval.o:     file format elf32-littlearm


Disassembly of section .text:

00000000 <exmc_nand_readstatus>:
   0:	2270      	movs	r2, #112	; 0x70
   2:	4b06      	ldr	r3, [pc, #24]	; (1c <exmc_nand_readstatus+0x1c>)
   4:	701a      	strb	r2, [r3, #0]
   6:	f04f 43e0 	mov.w	r3, #1879048192	; 0x70000000
   a:	7818      	ldrb	r0, [r3, #0]
   c:	b2c3      	uxtb	r3, r0
   e:	f010 0001 	ands.w	r0, r0, #1
  12:	bf08      	it	eq
  14:	f003 0040 	andeq.w	r0, r3, #64	; 0x40
  18:	4770      	bx	lr
  1a:	bf00      	nop
  1c:	70010000 	.word	0x70010000

00000020 <exmc_nand_getstatus>:
  20:	b508      	push	{r3, lr}
  22:	f7ff ffed 	bl	0 <exmc_nand_readstatus>
  26:	f44f 3180 	mov.w	r1, #65536	; 0x10000
  2a:	2840      	cmp	r0, #64	; 0x40
  2c:	d006      	beq.n	3c <exmc_nand_getstatus+0x1c>
  2e:	b909      	cbnz	r1, 34 <exmc_nand_getstatus+0x14>
  30:	2080      	movs	r0, #128	; 0x80
  32:	bd08      	pop	{r3, pc}
  34:	f7ff ffe4 	bl	0 <exmc_nand_readstatus>
  38:	3901      	subs	r1, #1
  3a:	e7f6      	b.n	2a <exmc_nand_getstatus+0xa>
  3c:	2900      	cmp	r1, #0
  3e:	bf08      	it	eq
  40:	2080      	moveq	r0, #128	; 0x80
  42:	e7f6      	b.n	32 <exmc_nand_getstatus+0x12>

00000044 <exmc_nand_writepage>:
  44:	b5f7      	push	{r0, r1, r2, r4, r5, r6, r7, lr}
  46:	ac02      	add	r4, sp, #8
  48:	e904 0006 	stmdb	r4, {r1, r2}
  4c:	2180      	movs	r1, #128	; 0x80
  4e:	4e16      	ldr	r6, [pc, #88]	; (a8 <exmc_nand_writepage+0x64>)
  50:	f8bd 4006 	ldrh.w	r4, [sp, #6]
  54:	f8bd 7000 	ldrh.w	r7, [sp]
  58:	f8bd 5002 	ldrh.w	r5, [sp, #2]
  5c:	f8bd 2004 	ldrh.w	r2, [sp, #4]
  60:	7031      	strb	r1, [r6, #0]
  62:	4912      	ldr	r1, [pc, #72]	; (ac <exmc_nand_writepage+0x68>)
  64:	fa5f fc84 	uxtb.w	ip, r4
  68:	0a24      	lsrs	r4, r4, #8
  6a:	f881 c000 	strb.w	ip, [r1]
  6e:	700c      	strb	r4, [r1, #0]
  70:	eb05 2487 	add.w	r4, r5, r7, lsl #10
  74:	eb02 1284 	add.w	r2, r2, r4, lsl #6
  78:	b2d4      	uxtb	r4, r2
  7a:	f3c2 2207 	ubfx	r2, r2, #8, #8
  7e:	700c      	strb	r4, [r1, #0]
  80:	700a      	strb	r2, [r1, #0]
  82:	f04f 42e0 	mov.w	r2, #1879048192	; 0x70000000
  86:	4403      	add	r3, r0
  88:	4298      	cmp	r0, r3
  8a:	d108      	bne.n	9e <exmc_nand_writepage+0x5a>
  8c:	2310      	movs	r3, #16
  8e:	7033      	strb	r3, [r6, #0]
  90:	f7ff ffc6 	bl	20 <exmc_nand_getstatus>
  94:	3840      	subs	r0, #64	; 0x40
  96:	bf18      	it	ne
  98:	2001      	movne	r0, #1
  9a:	b003      	add	sp, #12
  9c:	bdf0      	pop	{r4, r5, r6, r7, pc}
  9e:	f810 1b01 	ldrb.w	r1, [r0], #1
  a2:	7011      	strb	r1, [r2, #0]
  a4:	e7f0      	b.n	88 <exmc_nand_writepage+0x44>
  a6:	bf00      	nop
  a8:	70010000 	.word	0x70010000
  ac:	70020000 	.word	0x70020000

000000b0 <exmc_nand_readpage>:
  b0:	b5f7      	push	{r0, r1, r2, r4, r5, r6, r7, lr}
  b2:	ac02      	add	r4, sp, #8
  b4:	e904 0006 	stmdb	r4, {r1, r2}
  b8:	2100      	movs	r1, #0
  ba:	4e16      	ldr	r6, [pc, #88]	; (114 <exmc_nand_readpage+0x64>)
  bc:	f8bd 4006 	ldrh.w	r4, [sp, #6]
  c0:	f8bd 7000 	ldrh.w	r7, [sp]
  c4:	f8bd 5002 	ldrh.w	r5, [sp, #2]
  c8:	f8bd 2004 	ldrh.w	r2, [sp, #4]
  cc:	7031      	strb	r1, [r6, #0]
  ce:	4912      	ldr	r1, [pc, #72]	; (118 <exmc_nand_readpage+0x68>)
  d0:	fa5f fc84 	uxtb.w	ip, r4
  d4:	0a24      	lsrs	r4, r4, #8
  d6:	f881 c000 	strb.w	ip, [r1]
  da:	700c      	strb	r4, [r1, #0]
  dc:	eb05 2487 	add.w	r4, r5, r7, lsl #10
  e0:	eb02 1284 	add.w	r2, r2, r4, lsl #6
  e4:	b2d4      	uxtb	r4, r2
  e6:	f3c2 2207 	ubfx	r2, r2, #8, #8
  ea:	700c      	strb	r4, [r1, #0]
  ec:	700a      	strb	r2, [r1, #0]
  ee:	2230      	movs	r2, #48	; 0x30
  f0:	7032      	strb	r2, [r6, #0]
  f2:	f04f 42e0 	mov.w	r2, #1879048192	; 0x70000000
  f6:	4403      	add	r3, r0
  f8:	4298      	cmp	r0, r3
  fa:	d106      	bne.n	10a <exmc_nand_readpage+0x5a>
  fc:	f7ff ff90 	bl	20 <exmc_nand_getstatus>
 100:	3840      	subs	r0, #64	; 0x40
 102:	bf18      	it	ne
 104:	2001      	movne	r0, #1
 106:	b003      	add	sp, #12
 108:	bdf0      	pop	{r4, r5, r6, r7, pc}
 10a:	7811      	ldrb	r1, [r2, #0]
 10c:	f800 1b01 	strb.w	r1, [r0], #1
 110:	e7f2      	b.n	f8 <exmc_nand_readpage+0x48>
 112:	bf00      	nop
 114:	70010000 	.word	0x70010000
 118:	70020000 	.word	0x70020000

0000011c <exmc_nand_readdata>:
 11c:	e92d 41f3 	stmdb	sp!, {r0, r1, r4, r5, r6, r7, r8, lr}
 120:	466d      	mov	r5, sp
 122:	4604      	mov	r4, r0
 124:	e885 0006 	stmia.w	r5, {r1, r2}
 128:	f8bd 7004 	ldrh.w	r7, [sp, #4]
 12c:	f8bd 6006 	ldrh.w	r6, [sp, #6]
 130:	eb03 0806 	add.w	r8, r3, r6
 134:	f5b8 6f00 	cmp.w	r8, #2048	; 0x800
 138:	dc0f      	bgt.n	15a <exmc_nand_readdata+0x3e>
 13a:	b33b      	cbz	r3, 18c <exmc_nand_readdata+0x70>
 13c:	f8ad 7004 	strh.w	r7, [sp, #4]
 140:	f8ad 6006 	strh.w	r6, [sp, #6]
 144:	4620      	mov	r0, r4
 146:	e895 0006 	ldmia.w	r5, {r1, r2}
 14a:	f7ff ffb1 	bl	b0 <exmc_nand_readpage>
 14e:	3800      	subs	r0, #0
 150:	bf18      	it	ne
 152:	2001      	movne	r0, #1
 154:	b002      	add	sp, #8
 156:	e8bd 81f0 	ldmia.w	sp!, {r4, r5, r6, r7, r8, pc}
 15a:	f8ad 7004 	strh.w	r7, [sp, #4]
 15e:	f8ad 6006 	strh.w	r6, [sp, #6]
 162:	f5c6 6300 	rsb	r3, r6, #2048	; 0x800
 166:	4620      	mov	r0, r4
 168:	e895 0006 	ldmia.w	r5, {r1, r2}
 16c:	b29b      	uxth	r3, r3
 16e:	f7ff ff9f 	bl	b0 <exmc_nand_readpage>
 172:	3701      	adds	r7, #1
 174:	b2bf      	uxth	r7, r7
 176:	b938      	cbnz	r0, 188 <exmc_nand_readdata+0x6c>
 178:	f504 6400 	add.w	r4, r4, #2048	; 0x800
 17c:	f5a8 6300 	sub.w	r3, r8, #2048	; 0x800
 180:	1ba4      	subs	r4, r4, r6
 182:	b29b      	uxth	r3, r3
 184:	4606      	mov	r6, r0
 186:	e7d3      	b.n	130 <exmc_nand_readdata+0x14>
 188:	2001      	movs	r0, #1
 18a:	e7e3      	b.n	154 <exmc_nand_readdata+0x38>
 18c:	4618      	mov	r0, r3
 18e:	e7e1      	b.n	154 <exmc_nand_readdata+0x38>

00000190 <exmc_nand_writedata>:
 190:	e92d 43f7 	stmdb	sp!, {r0, r1, r2, r4, r5, r6, r7, r8, r9, lr}
 194:	466e      	mov	r6, sp
 196:	e886 0006 	stmia.w	r6, {r1, r2}
 19a:	2160      	movs	r1, #96	; 0x60
 19c:	4a24      	ldr	r2, [pc, #144]	; (230 <exmc_nand_writedata+0xa0>)
 19e:	461c      	mov	r4, r3
 1a0:	f8bd 3002 	ldrh.w	r3, [sp, #2]
 1a4:	f8bd 8004 	ldrh.w	r8, [sp, #4]
 1a8:	f8bd 7006 	ldrh.w	r7, [sp, #6]
 1ac:	019b      	lsls	r3, r3, #6
 1ae:	7011      	strb	r1, [r2, #0]
 1b0:	4920      	ldr	r1, [pc, #128]	; (234 <exmc_nand_writedata+0xa4>)
 1b2:	4605      	mov	r5, r0
 1b4:	b2d8      	uxtb	r0, r3
 1b6:	f3c3 2307 	ubfx	r3, r3, #8, #8
 1ba:	7008      	strb	r0, [r1, #0]
 1bc:	700b      	strb	r3, [r1, #0]
 1be:	23d0      	movs	r3, #208	; 0xd0
 1c0:	7013      	strb	r3, [r2, #0]
 1c2:	f7ff ff2d 	bl	20 <exmc_nand_getstatus>
 1c6:	eb04 0907 	add.w	r9, r4, r7
 1ca:	f5b9 6f00 	cmp.w	r9, #2048	; 0x800
 1ce:	dc10      	bgt.n	1f2 <exmc_nand_writedata+0x62>
 1d0:	b35c      	cbz	r4, 22a <exmc_nand_writedata+0x9a>
 1d2:	f8ad 8004 	strh.w	r8, [sp, #4]
 1d6:	f8ad 7006 	strh.w	r7, [sp, #6]
 1da:	4623      	mov	r3, r4
 1dc:	e896 0006 	ldmia.w	r6, {r1, r2}
 1e0:	4628      	mov	r0, r5
 1e2:	f7ff ff2f 	bl	44 <exmc_nand_writepage>
 1e6:	3800      	subs	r0, #0
 1e8:	bf18      	it	ne
 1ea:	2001      	movne	r0, #1
 1ec:	b003      	add	sp, #12
 1ee:	e8bd 83f0 	ldmia.w	sp!, {r4, r5, r6, r7, r8, r9, pc}
 1f2:	f8ad 8004 	strh.w	r8, [sp, #4]
 1f6:	f8ad 7006 	strh.w	r7, [sp, #6]
 1fa:	f5c7 6300 	rsb	r3, r7, #2048	; 0x800
 1fe:	4628      	mov	r0, r5
 200:	e896 0006 	ldmia.w	r6, {r1, r2}
 204:	b29b      	uxth	r3, r3
 206:	f7ff ff1d 	bl	44 <exmc_nand_writepage>
 20a:	f108 0801 	add.w	r8, r8, #1
 20e:	fa1f f888 	uxth.w	r8, r8
 212:	b940      	cbnz	r0, 226 <exmc_nand_writedata+0x96>
 214:	f5a9 6900 	sub.w	r9, r9, #2048	; 0x800
 218:	f505 6500 	add.w	r5, r5, #2048	; 0x800
 21c:	1bed      	subs	r5, r5, r7
 21e:	fa1f f489 	uxth.w	r4, r9
 222:	4607      	mov	r7, r0
 224:	e7cf      	b.n	1c6 <exmc_nand_writedata+0x36>
 226:	2001      	movs	r0, #1
 228:	e7e0      	b.n	1ec <exmc_nand_writedata+0x5c>
 22a:	4620      	mov	r0, r4
 22c:	e7de      	b.n	1ec <exmc_nand_writedata+0x5c>
 22e:	bf00      	nop
 230:	70010000 	.word	0x70010000
 234:	70020000 	.word	0x70020000

00000238 <exmc_nandflash_init>:
 238:	b510      	push	{r4, lr}
 23a:	f44f 60a1 	mov.w	r0, #1288	; 0x508
 23e:	b08e      	sub	sp, #56	; 0x38
 240:	f7ff fffe 	bl	0 <rcu_periph_clock_enable>
 244:	f240 6005 	movw	r0, #1541	; 0x605
 248:	f7ff fffe 	bl	0 <rcu_periph_clock_enable>
 24c:	f240 6006 	movw	r0, #1542	; 0x606
 250:	f7ff fffe 	bl	0 <rcu_periph_clock_enable>
 254:	f64d 03b3 	movw	r3, #55475	; 0xd8b3
 258:	2203      	movs	r2, #3
 25a:	2118      	movs	r1, #24
 25c:	4812      	ldr	r0, [pc, #72]	; (2a8 <exmc_nandflash_init+0x70>)
 25e:	f7ff fffe 	bl	0 <gpio_init>
 262:	2118      	movs	r1, #24
 264:	f44f 63f0 	mov.w	r3, #1920	; 0x780
 268:	2203      	movs	r2, #3
 26a:	4810      	ldr	r0, [pc, #64]	; (2ac <exmc_nandflash_init+0x74>)
 26c:	f7ff fffe 	bl	0 <gpio_init>
 270:	2401      	movs	r4, #1
 272:	2303      	movs	r3, #3
 274:	e9cd 3403 	strd	r3, r4, [sp, #12]
 278:	2302      	movs	r3, #2
 27a:	f44f 22c0 	mov.w	r2, #393216	; 0x60000
 27e:	e9cd 3301 	strd	r3, r3, [sp, #4]
 282:	2300      	movs	r3, #0
 284:	a805      	add	r0, sp, #20
 286:	e9cd 2306 	strd	r2, r3, [sp, #24]
 28a:	e9cd 3408 	strd	r3, r4, [sp, #32]
 28e:	e9cd 340a 	strd	r3, r4, [sp, #40]	; 0x28
 292:	ab01      	add	r3, sp, #4
 294:	e9cd 330c 	strd	r3, r3, [sp, #48]	; 0x30
 298:	9405      	str	r4, [sp, #20]
 29a:	f7ff fffe 	bl	0 <exmc_nand_init>
 29e:	4620      	mov	r0, r4
 2a0:	f7ff fffe 	bl	0 <exmc_nand_enable>
 2a4:	b00e      	add	sp, #56	; 0x38
 2a6:	bd10      	pop	{r4, pc}
 2a8:	40011400 	.word	0x40011400
 2ac:	40011800 	.word	0x40011800

000002b0 <nand_read_id>:
 2b0:	2290      	movs	r2, #144	; 0x90
 2b2:	4b08      	ldr	r3, [pc, #32]	; (2d4 <nand_read_id+0x24>)
 2b4:	701a      	strb	r2, [r3, #0]
 2b6:	2200      	movs	r2, #0
 2b8:	f503 3380 	add.w	r3, r3, #65536	; 0x10000
 2bc:	701a      	strb	r2, [r3, #0]
 2be:	f04f 43e0 	mov.w	r3, #1879048192	; 0x70000000
 2c2:	681b      	ldr	r3, [r3, #0]
 2c4:	0a1a      	lsrs	r2, r3, #8
 2c6:	7003      	strb	r3, [r0, #0]
 2c8:	7042      	strb	r2, [r0, #1]
 2ca:	0c1a      	lsrs	r2, r3, #16
 2cc:	0e1b      	lsrs	r3, r3, #24
 2ce:	7082      	strb	r2, [r0, #2]
 2d0:	70c3      	strb	r3, [r0, #3]
 2d2:	4770      	bx	lr
 2d4:	70010000 	.word	0x70010000

000002d8 <exmc_nand_writespare>:
 2d8:	b417      	push	{r0, r1, r2, r4}
 2da:	466c      	mov	r4, sp
 2dc:	e884 0006 	stmia.w	r4, {r1, r2}
 2e0:	f8bd 1006 	ldrh.w	r1, [sp, #6]
 2e4:	461a      	mov	r2, r3
 2e6:	f5b1 6f00 	cmp.w	r1, #2048	; 0x800
 2ea:	d908      	bls.n	2fe <exmc_nand_writespare+0x26>
 2ec:	440a      	add	r2, r1
 2ee:	f5b2 6f04 	cmp.w	r2, #2112	; 0x840
 2f2:	da04      	bge.n	2fe <exmc_nand_writespare+0x26>
 2f4:	e894 0006 	ldmia.w	r4, {r1, r2}
 2f8:	b003      	add	sp, #12
 2fa:	bc10      	pop	{r4}
 2fc:	e6a2      	b.n	44 <exmc_nand_writepage>
 2fe:	2001      	movs	r0, #1
 300:	b003      	add	sp, #12
 302:	bc10      	pop	{r4}
 304:	4770      	bx	lr

00000306 <exmc_nand_readspare>:
 306:	b417      	push	{r0, r1, r2, r4}
 308:	466c      	mov	r4, sp
 30a:	e884 0006 	stmia.w	r4, {r1, r2}
 30e:	f8bd 1006 	ldrh.w	r1, [sp, #6]
 312:	461a      	mov	r2, r3
 314:	f5b1 6f00 	cmp.w	r1, #2048	; 0x800
 318:	d908      	bls.n	32c <exmc_nand_readspare+0x26>
 31a:	440a      	add	r2, r1
 31c:	f5b2 6f04 	cmp.w	r2, #2112	; 0x840
 320:	da04      	bge.n	32c <exmc_nand_readspare+0x26>
 322:	e894 0006 	ldmia.w	r4, {r1, r2}
 326:	b003      	add	sp, #12
 328:	bc10      	pop	{r4}
 32a:	e6c1      	b.n	b0 <exmc_nand_readpage>
 32c:	2001      	movs	r0, #1
 32e:	b003      	add	sp, #12
 330:	bc10      	pop	{r4}
 332:	4770      	bx	lr

00000334 <nand_reset>:
 334:	22ff      	movs	r2, #255	; 0xff
 336:	b508      	push	{r3, lr}
 338:	4b03      	ldr	r3, [pc, #12]	; (348 <nand_reset+0x14>)
 33a:	701a      	strb	r2, [r3, #0]
 33c:	f7ff fe70 	bl	20 <exmc_nand_getstatus>
 340:	3840      	subs	r0, #64	; 0x40
 342:	bf18      	it	ne
 344:	2001      	movne	r0, #1
 346:	bd08      	pop	{r3, pc}
 348:	70010000 	.word	0x70010000

0000034c <nand_write>:
 34c:	e92d 41f3 	stmdb	sp!, {r0, r1, r4, r5, r6, r7, r8, lr}
 350:	460e      	mov	r6, r1
 352:	46e8      	mov	r8, sp
 354:	0ec3      	lsrs	r3, r0, #27
 356:	f400 34fc 	and.w	r4, r0, #129024	; 0x1f800
 35a:	f8ad 3000 	strh.w	r3, [sp]
 35e:	f5c4 3400 	rsb	r4, r4, #131072	; 0x20000
 362:	f3c0 030a 	ubfx	r3, r0, #0, #11
 366:	4615      	mov	r5, r2
 368:	0c47      	lsrs	r7, r0, #17
 36a:	f3c0 22c5 	ubfx	r2, r0, #11, #6
 36e:	1ae4      	subs	r4, r4, r3
 370:	42a5      	cmp	r5, r4
 372:	d813      	bhi.n	39c <nand_write+0x50>
 374:	b34d      	cbz	r5, 3ca <nand_write+0x7e>
 376:	f8ad 2004 	strh.w	r2, [sp, #4]
 37a:	f8ad 3006 	strh.w	r3, [sp, #6]
 37e:	f8ad 7002 	strh.w	r7, [sp, #2]
 382:	aa02      	add	r2, sp, #8
 384:	b2ab      	uxth	r3, r5
 386:	4630      	mov	r0, r6
 388:	e912 0006 	ldmdb	r2, {r1, r2}
 38c:	f7ff ff00 	bl	190 <exmc_nand_writedata>
 390:	1e43      	subs	r3, r0, #1
 392:	4258      	negs	r0, r3
 394:	4158      	adcs	r0, r3
 396:	b002      	add	sp, #8
 398:	e8bd 81f0 	ldmia.w	sp!, {r4, r5, r6, r7, r8, pc}
 39c:	f8ad 7002 	strh.w	r7, [sp, #2]
 3a0:	f8ad 3006 	strh.w	r3, [sp, #6]
 3a4:	f8ad 2004 	strh.w	r2, [sp, #4]
 3a8:	4630      	mov	r0, r6
 3aa:	e898 0006 	ldmia.w	r8, {r1, r2}
 3ae:	b2a3      	uxth	r3, r4
 3b0:	f7ff feee 	bl	190 <exmc_nand_writedata>
 3b4:	3701      	adds	r7, #1
 3b6:	2801      	cmp	r0, #1
 3b8:	b2bf      	uxth	r7, r7
 3ba:	d0ec      	beq.n	396 <nand_write+0x4a>
 3bc:	2300      	movs	r3, #0
 3be:	4426      	add	r6, r4
 3c0:	1b2d      	subs	r5, r5, r4
 3c2:	461a      	mov	r2, r3
 3c4:	f44f 3400 	mov.w	r4, #131072	; 0x20000
 3c8:	e7d2      	b.n	370 <nand_write+0x24>
 3ca:	4628      	mov	r0, r5
 3cc:	e7e3      	b.n	396 <nand_write+0x4a>

000003ce <nand_read>:
 3ce:	e92d 41f3 	stmdb	sp!, {r0, r1, r4, r5, r6, r7, r8, lr}
 3d2:	460e      	mov	r6, r1
 3d4:	46e8      	mov	r8, sp
 3d6:	0ec3      	lsrs	r3, r0, #27
 3d8:	f400 34fc 	and.w	r4, r0, #129024	; 0x1f800
 3dc:	f8ad 3000 	strh.w	r3, [sp]
 3e0:	f5c4 3400 	rsb	r4, r4, #131072	; 0x20000
 3e4:	f3c0 030a 	ubfx	r3, r0, #0, #11
 3e8:	4615      	mov	r5, r2
 3ea:	0c47      	lsrs	r7, r0, #17
 3ec:	f3c0 22c5 	ubfx	r2, r0, #11, #6
 3f0:	1ae4      	subs	r4, r4, r3
 3f2:	42a5      	cmp	r5, r4
 3f4:	d813      	bhi.n	41e <nand_read+0x50>
 3f6:	b34d      	cbz	r5, 44c <nand_read+0x7e>
 3f8:	f8ad 2004 	strh.w	r2, [sp, #4]
 3fc:	f8ad 3006 	strh.w	r3, [sp, #6]
 400:	f8ad 7002 	strh.w	r7, [sp, #2]
 404:	aa02      	add	r2, sp, #8
 406:	b2ab      	uxth	r3, r5
 408:	4630      	mov	r0, r6
 40a:	e912 0006 	ldmdb	r2, {r1, r2}
 40e:	f7ff fe85 	bl	11c <exmc_nand_readdata>
 412:	1e43      	subs	r3, r0, #1
 414:	4258      	negs	r0, r3
 416:	4158      	adcs	r0, r3
 418:	b002      	add	sp, #8
 41a:	e8bd 81f0 	ldmia.w	sp!, {r4, r5, r6, r7, r8, pc}
 41e:	f8ad 7002 	strh.w	r7, [sp, #2]
 422:	f8ad 3006 	strh.w	r3, [sp, #6]
 426:	f8ad 2004 	strh.w	r2, [sp, #4]
 42a:	4630      	mov	r0, r6
 42c:	e898 0006 	ldmia.w	r8, {r1, r2}
 430:	b2a3      	uxth	r3, r4
 432:	f7ff fe73 	bl	11c <exmc_nand_readdata>
 436:	3701      	adds	r7, #1
 438:	2801      	cmp	r0, #1
 43a:	b2bf      	uxth	r7, r7
 43c:	d0ec      	beq.n	418 <nand_read+0x4a>
 43e:	2300      	movs	r3, #0
 440:	4426      	add	r6, r4
 442:	1b2d      	subs	r5, r5, r4
 444:	461a      	mov	r2, r3
 446:	f44f 3400 	mov.w	r4, #131072	; 0x20000
 44a:	e7d2      	b.n	3f2 <nand_read+0x24>
 44c:	4628      	mov	r0, r5
 44e:	e7e3      	b.n	418 <nand_read+0x4a>

00000450 <nand_format>:
 450:	b5f8      	push	{r3, r4, r5, r6, r7, lr}
 452:	2400      	movs	r4, #0
 454:	f04f 0760 	mov.w	r7, #96	; 0x60
 458:	4d0a      	ldr	r5, [pc, #40]	; (484 <nand_format+0x34>)
 45a:	4e0b      	ldr	r6, [pc, #44]	; (488 <nand_format+0x38>)
 45c:	b2e3      	uxtb	r3, r4
 45e:	702f      	strb	r7, [r5, #0]
 460:	7033      	strb	r3, [r6, #0]
 462:	f3c4 2307 	ubfx	r3, r4, #8, #8
 466:	7033      	strb	r3, [r6, #0]
 468:	23d0      	movs	r3, #208	; 0xd0
 46a:	702b      	strb	r3, [r5, #0]
 46c:	f7ff fdd8 	bl	20 <exmc_nand_getstatus>
 470:	2840      	cmp	r0, #64	; 0x40
 472:	d105      	bne.n	480 <nand_format+0x30>
 474:	3440      	adds	r4, #64	; 0x40
 476:	f5b4 3f80 	cmp.w	r4, #65536	; 0x10000
 47a:	d1ef      	bne.n	45c <nand_format+0xc>
 47c:	2000      	movs	r0, #0
 47e:	bdf8      	pop	{r3, r4, r5, r6, r7, pc}
 480:	2001      	movs	r0, #1
 482:	e7fc      	b.n	47e <nand_format+0x2e>
 484:	70010000 	.word	0x70010000
 488:	70020000 	.word	0x70020000

0000048c <fill_buffer_nand>:
 48c:	2300      	movs	r3, #0
 48e:	b510      	push	{r4, lr}
 490:	b29c      	uxth	r4, r3
 492:	42a1      	cmp	r1, r4
 494:	d800      	bhi.n	498 <fill_buffer_nand+0xc>
 496:	bd10      	pop	{r4, pc}
 498:	18d4      	adds	r4, r2, r3
 49a:	54c4      	strb	r4, [r0, r3]
 49c:	3301      	adds	r3, #1
 49e:	e7f7      	b.n	490 <fill_buffer_nand+0x4>

ff.o:     file format elf32-littlearm


Disassembly of section .text:

00000000 <ld_dword>:
       0:	6800      	ldr	r0, [r0, #0]
       2:	4770      	bx	lr

00000004 <ld_qword>:
       4:	4603      	mov	r3, r0
       6:	6800      	ldr	r0, [r0, #0]
       8:	6859      	ldr	r1, [r3, #4]
       a:	4770      	bx	lr

0000000c <st_dword>:
       c:	0a0b      	lsrs	r3, r1, #8
       e:	7001      	strb	r1, [r0, #0]
      10:	7043      	strb	r3, [r0, #1]
      12:	0c0b      	lsrs	r3, r1, #16
      14:	0e09      	lsrs	r1, r1, #24
      16:	7083      	strb	r3, [r0, #2]
      18:	70c1      	strb	r1, [r0, #3]
      1a:	4770      	bx	lr

0000001c <st_qword>:
      1c:	0a11      	lsrs	r1, r2, #8
      1e:	7002      	strb	r2, [r0, #0]
      20:	7041      	strb	r1, [r0, #1]
      22:	0c11      	lsrs	r1, r2, #16
      24:	0e12      	lsrs	r2, r2, #24
      26:	70c2      	strb	r2, [r0, #3]
      28:	0a1a      	lsrs	r2, r3, #8
      2a:	7103      	strb	r3, [r0, #4]
      2c:	7142      	strb	r2, [r0, #5]
      2e:	0c1a      	lsrs	r2, r3, #16
      30:	0e1b      	lsrs	r3, r3, #24
      32:	7081      	strb	r1, [r0, #2]
      34:	7182      	strb	r2, [r0, #6]
      36:	71c3      	strb	r3, [r0, #7]
      38:	4770      	bx	lr

0000003a <mem_set>:
      3a:	4402      	add	r2, r0
      3c:	f800 1b01 	strb.w	r1, [r0], #1
      40:	4290      	cmp	r0, r2
      42:	d1fb      	bne.n	3c <mem_set+0x2>
      44:	4770      	bx	lr

00000046 <mem_cmp>:
      46:	4603      	mov	r3, r0
      48:	b510      	push	{r4, lr}
      4a:	4402      	add	r2, r0
      4c:	f813 0b01 	ldrb.w	r0, [r3], #1
      50:	f811 4b01 	ldrb.w	r4, [r1], #1
      54:	4293      	cmp	r3, r2
      56:	eba0 0004 	sub.w	r0, r0, r4
      5a:	d001      	beq.n	60 <mem_cmp+0x1a>
      5c:	2800      	cmp	r0, #0
      5e:	d0f5      	beq.n	4c <mem_cmp+0x6>
      60:	bd10      	pop	{r4, pc}

00000062 <clst2sect>:
      62:	69c3      	ldr	r3, [r0, #28]
      64:	3902      	subs	r1, #2
      66:	3b02      	subs	r3, #2
      68:	428b      	cmp	r3, r1
      6a:	bf83      	ittte	hi
      6c:	8943      	ldrhhi	r3, [r0, #10]
      6e:	6b00      	ldrhi	r0, [r0, #48]	; 0x30
      70:	fb01 0003 	mlahi	r0, r1, r3, r0
      74:	2000      	movls	r0, #0
      76:	4770      	bx	lr

00000078 <sum_sfn>:
      78:	4603      	mov	r3, r0
      7a:	f100 010b 	add.w	r1, r0, #11
      7e:	2000      	movs	r0, #0
      80:	01c2      	lsls	r2, r0, #7
      82:	ea42 0250 	orr.w	r2, r2, r0, lsr #1
      86:	f813 0b01 	ldrb.w	r0, [r3], #1
      8a:	4402      	add	r2, r0
      8c:	428b      	cmp	r3, r1
      8e:	f002 00ff 	and.w	r0, r2, #255	; 0xff
      92:	d1f5      	bne.n	80 <sum_sfn+0x8>
      94:	4770      	bx	lr

00000096 <xdir_sum>:
      96:	b510      	push	{r4, lr}
      98:	4604      	mov	r4, r0
      9a:	7841      	ldrb	r1, [r0, #1]
      9c:	2000      	movs	r0, #0
      9e:	4602      	mov	r2, r0
      a0:	3101      	adds	r1, #1
      a2:	0149      	lsls	r1, r1, #5
      a4:	2a02      	cmp	r2, #2
      a6:	bf08      	it	eq
      a8:	2204      	moveq	r2, #4
      aa:	5ca3      	ldrb	r3, [r4, r2]
      ac:	3201      	adds	r2, #1
      ae:	eb03 33c0 	add.w	r3, r3, r0, lsl #15
      b2:	b29b      	uxth	r3, r3
      b4:	eb03 0350 	add.w	r3, r3, r0, lsr #1
      b8:	4291      	cmp	r1, r2
      ba:	b298      	uxth	r0, r3
      bc:	d8f2      	bhi.n	a4 <xdir_sum+0xe>
      be:	bd10      	pop	{r4, pc}

000000c0 <get_ldnumber>:
      c0:	6802      	ldr	r2, [r0, #0]
      c2:	b510      	push	{r4, lr}
      c4:	4604      	mov	r4, r0
      c6:	b162      	cbz	r2, e2 <get_ldnumber+0x22>
      c8:	4611      	mov	r1, r2
      ca:	f811 3b01 	ldrb.w	r3, [r1], #1
      ce:	2b1f      	cmp	r3, #31
      d0:	d911      	bls.n	f6 <get_ldnumber+0x36>
      d2:	2b3a      	cmp	r3, #58	; 0x3a
      d4:	d1f9      	bne.n	ca <get_ldnumber+0xa>
      d6:	7813      	ldrb	r3, [r2, #0]
      d8:	f1a3 0030 	sub.w	r0, r3, #48	; 0x30
      dc:	b2c3      	uxtb	r3, r0
      de:	2b09      	cmp	r3, #9
      e0:	d902      	bls.n	e8 <get_ldnumber+0x28>
      e2:	f04f 30ff 	mov.w	r0, #4294967295	; 0xffffffff
      e6:	e005      	b.n	f4 <get_ldnumber+0x34>
      e8:	3202      	adds	r2, #2
      ea:	4291      	cmp	r1, r2
      ec:	d1f9      	bne.n	e2 <get_ldnumber+0x22>
      ee:	2804      	cmp	r0, #4
      f0:	dcf7      	bgt.n	e2 <get_ldnumber+0x22>
      f2:	6021      	str	r1, [r4, #0]
      f4:	bd10      	pop	{r4, pc}
      f6:	2000      	movs	r0, #0
      f8:	e7fc      	b.n	f4 <get_ldnumber+0x34>

000000fa <validate>:
      fa:	b538      	push	{r3, r4, r5, lr}
      fc:	460d      	mov	r5, r1
      fe:	4604      	mov	r4, r0
     100:	b918      	cbnz	r0, 10a <validate+0x10>
     102:	2009      	movs	r0, #9
     104:	2300      	movs	r3, #0
     106:	602b      	str	r3, [r5, #0]
     108:	bd38      	pop	{r3, r4, r5, pc}
     10a:	6803      	ldr	r3, [r0, #0]
     10c:	2b00      	cmp	r3, #0
     10e:	d0f8      	beq.n	102 <validate+0x8>
     110:	781a      	ldrb	r2, [r3, #0]
     112:	2a00      	cmp	r2, #0
     114:	d0f5      	beq.n	102 <validate+0x8>
     116:	8881      	ldrh	r1, [r0, #4]
     118:	88da      	ldrh	r2, [r3, #6]
     11a:	4291      	cmp	r1, r2
     11c:	d1f1      	bne.n	102 <validate+0x8>
     11e:	7858      	ldrb	r0, [r3, #1]
     120:	f7ff fffe 	bl	0 <disk_status>
     124:	f010 0001 	ands.w	r0, r0, #1
     128:	d1eb      	bne.n	102 <validate+0x8>
     12a:	6823      	ldr	r3, [r4, #0]
     12c:	e7eb      	b.n	106 <validate+0xc>

0000012e <sync_window>:
     12e:	b538      	push	{r3, r4, r5, lr}
     130:	78c3      	ldrb	r3, [r0, #3]
     132:	4604      	mov	r4, r0
     134:	b1c3      	cbz	r3, 168 <sync_window+0x3a>
     136:	f100 053c 	add.w	r5, r0, #60	; 0x3c
     13a:	6b82      	ldr	r2, [r0, #56]	; 0x38
     13c:	2301      	movs	r3, #1
     13e:	4629      	mov	r1, r5
     140:	7840      	ldrb	r0, [r0, #1]
     142:	f7ff fffe 	bl	0 <disk_write>
     146:	b988      	cbnz	r0, 16c <sync_window+0x3e>
     148:	6ba1      	ldr	r1, [r4, #56]	; 0x38
     14a:	6aa3      	ldr	r3, [r4, #40]	; 0x28
     14c:	6a22      	ldr	r2, [r4, #32]
     14e:	1acb      	subs	r3, r1, r3
     150:	4293      	cmp	r3, r2
     152:	70e0      	strb	r0, [r4, #3]
     154:	d208      	bcs.n	168 <sync_window+0x3a>
     156:	78a3      	ldrb	r3, [r4, #2]
     158:	2b02      	cmp	r3, #2
     15a:	d105      	bne.n	168 <sync_window+0x3a>
     15c:	440a      	add	r2, r1
     15e:	2301      	movs	r3, #1
     160:	4629      	mov	r1, r5
     162:	7860      	ldrb	r0, [r4, #1]
     164:	f7ff fffe 	bl	0 <disk_write>
     168:	2000      	movs	r0, #0
     16a:	bd38      	pop	{r3, r4, r5, pc}
     16c:	2001      	movs	r0, #1
     16e:	e7fc      	b.n	16a <sync_window+0x3c>

00000170 <xname_sum>:
     170:	b538      	push	{r3, r4, r5, lr}
     172:	4605      	mov	r5, r0
     174:	2400      	movs	r4, #0
     176:	f835 0b02 	ldrh.w	r0, [r5], #2
     17a:	b908      	cbnz	r0, 180 <xname_sum+0x10>
     17c:	4620      	mov	r0, r4
     17e:	bd38      	pop	{r3, r4, r5, pc}
     180:	f7ff fffe 	bl	0 <ff_wtoupper>
     184:	0862      	lsrs	r2, r4, #1
     186:	eb02 32c4 	add.w	r2, r2, r4, lsl #15
     18a:	b2c3      	uxtb	r3, r0
     18c:	441a      	add	r2, r3
     18e:	b292      	uxth	r2, r2
     190:	f3c0 2307 	ubfx	r3, r0, #8, #8
     194:	eb03 0352 	add.w	r3, r3, r2, lsr #1
     198:	eb03 33c2 	add.w	r3, r3, r2, lsl #15
     19c:	b29c      	uxth	r4, r3
     19e:	e7ea      	b.n	176 <xname_sum+0x6>

000001a0 <put_utf>:
     1a0:	b538      	push	{r3, r4, r5, lr}
     1a2:	460d      	mov	r5, r1
     1a4:	f44f 7169 	mov.w	r1, #932	; 0x3a4
     1a8:	4614      	mov	r4, r2
     1aa:	f7ff fffe 	bl	0 <ff_uni2oem>
     1ae:	28ff      	cmp	r0, #255	; 0xff
     1b0:	d906      	bls.n	1c0 <put_utf+0x20>
     1b2:	2c01      	cmp	r4, #1
     1b4:	d90a      	bls.n	1cc <put_utf+0x2c>
     1b6:	0a03      	lsrs	r3, r0, #8
     1b8:	7068      	strb	r0, [r5, #1]
     1ba:	2002      	movs	r0, #2
     1bc:	702b      	strb	r3, [r5, #0]
     1be:	bd38      	pop	{r3, r4, r5, pc}
     1c0:	2800      	cmp	r0, #0
     1c2:	d0fc      	beq.n	1be <put_utf+0x1e>
     1c4:	b124      	cbz	r4, 1d0 <put_utf+0x30>
     1c6:	7028      	strb	r0, [r5, #0]
     1c8:	2001      	movs	r0, #1
     1ca:	e7f8      	b.n	1be <put_utf+0x1e>
     1cc:	2000      	movs	r0, #0
     1ce:	e7f6      	b.n	1be <put_utf+0x1e>
     1d0:	4620      	mov	r0, r4
     1d2:	e7f4      	b.n	1be <put_utf+0x1e>

000001d4 <mem_cpy.part.0>:
     1d4:	3801      	subs	r0, #1
     1d6:	440a      	add	r2, r1
     1d8:	f811 3b01 	ldrb.w	r3, [r1], #1
     1dc:	4291      	cmp	r1, r2
     1de:	f800 3f01 	strb.w	r3, [r0, #1]!
     1e2:	d1f9      	bne.n	1d8 <mem_cpy.part.0+0x4>
     1e4:	4770      	bx	lr

000001e6 <st_clust>:
     1e6:	f3c2 2307 	ubfx	r3, r2, #8, #8
     1ea:	768a      	strb	r2, [r1, #26]
     1ec:	76cb      	strb	r3, [r1, #27]
     1ee:	7803      	ldrb	r3, [r0, #0]
     1f0:	2b03      	cmp	r3, #3
     1f2:	bf01      	itttt	eq
     1f4:	0c12      	lsreq	r2, r2, #16
     1f6:	750a      	strbeq	r2, [r1, #20]
     1f8:	0a12      	lsreq	r2, r2, #8
     1fa:	754a      	strbeq	r2, [r1, #21]
     1fc:	4770      	bx	lr

000001fe <move_window>:
     1fe:	b538      	push	{r3, r4, r5, lr}
     200:	6b83      	ldr	r3, [r0, #56]	; 0x38
     202:	4605      	mov	r5, r0
     204:	428b      	cmp	r3, r1
     206:	460c      	mov	r4, r1
     208:	d010      	beq.n	22c <move_window+0x2e>
     20a:	f7ff ff90 	bl	12e <sync_window>
     20e:	b960      	cbnz	r0, 22a <move_window+0x2c>
     210:	4622      	mov	r2, r4
     212:	2301      	movs	r3, #1
     214:	7868      	ldrb	r0, [r5, #1]
     216:	f105 013c 	add.w	r1, r5, #60	; 0x3c
     21a:	f7ff fffe 	bl	0 <disk_read>
     21e:	2800      	cmp	r0, #0
     220:	bf1c      	itt	ne
     222:	f04f 34ff 	movne.w	r4, #4294967295	; 0xffffffff
     226:	2001      	movne	r0, #1
     228:	63ac      	str	r4, [r5, #56]	; 0x38
     22a:	bd38      	pop	{r3, r4, r5, pc}
     22c:	2000      	movs	r0, #0
     22e:	e7fc      	b.n	22a <move_window+0x2c>

00000230 <change_bitmap>:
     230:	e92d 47f0 	stmdb	sp!, {r4, r5, r6, r7, r8, r9, sl, lr}
     234:	f04f 0a01 	mov.w	sl, #1
     238:	4605      	mov	r5, r0
     23a:	4617      	mov	r7, r2
     23c:	4698      	mov	r8, r3
     23e:	3902      	subs	r1, #2
     240:	6b46      	ldr	r6, [r0, #52]	; 0x34
     242:	f001 0407 	and.w	r4, r1, #7
     246:	fa0a f404 	lsl.w	r4, sl, r4
     24a:	eb06 3611 	add.w	r6, r6, r1, lsr #12
     24e:	f3c1 09c8 	ubfx	r9, r1, #3, #9
     252:	b2e4      	uxtb	r4, r4
     254:	4631      	mov	r1, r6
     256:	4628      	mov	r0, r5
     258:	3601      	adds	r6, #1
     25a:	f7ff ffd0 	bl	1fe <move_window>
     25e:	b118      	cbz	r0, 268 <change_bitmap+0x38>
     260:	2001      	movs	r0, #1
     262:	e8bd 87f0 	ldmia.w	sp!, {r4, r5, r6, r7, r8, r9, sl, pc}
     266:	4699      	mov	r9, r3
     268:	eb05 0209 	add.w	r2, r5, r9
     26c:	f892 303c 	ldrb.w	r3, [r2, #60]	; 0x3c
     270:	4223      	tst	r3, r4
     272:	bf14      	ite	ne
     274:	2101      	movne	r1, #1
     276:	2100      	moveq	r1, #0
     278:	4541      	cmp	r1, r8
     27a:	d014      	beq.n	2a6 <change_bitmap+0x76>
     27c:	4063      	eors	r3, r4
     27e:	3f01      	subs	r7, #1
     280:	f882 303c 	strb.w	r3, [r2, #60]	; 0x3c
     284:	f885 a003 	strb.w	sl, [r5, #3]
     288:	d0eb      	beq.n	262 <change_bitmap+0x32>
     28a:	0064      	lsls	r4, r4, #1
     28c:	f014 04ff 	ands.w	r4, r4, #255	; 0xff
     290:	d1ea      	bne.n	268 <change_bitmap+0x38>
     292:	f109 0301 	add.w	r3, r9, #1
     296:	f5b3 7f00 	cmp.w	r3, #512	; 0x200
     29a:	f04f 0401 	mov.w	r4, #1
     29e:	f04f 0900 	mov.w	r9, #0
     2a2:	d1e0      	bne.n	266 <change_bitmap+0x36>
     2a4:	e7d6      	b.n	254 <change_bitmap+0x24>
     2a6:	2002      	movs	r0, #2
     2a8:	e7db      	b.n	262 <change_bitmap+0x32>

000002aa <get_fat>:
     2aa:	2901      	cmp	r1, #1
     2ac:	b5f8      	push	{r3, r4, r5, r6, r7, lr}
     2ae:	460c      	mov	r4, r1
     2b0:	f240 808b 	bls.w	3ca <get_fat+0x120>
     2b4:	6806      	ldr	r6, [r0, #0]
     2b6:	69f3      	ldr	r3, [r6, #28]
     2b8:	428b      	cmp	r3, r1
     2ba:	f240 8086 	bls.w	3ca <get_fat+0x120>
     2be:	7833      	ldrb	r3, [r6, #0]
     2c0:	3b01      	subs	r3, #1
     2c2:	2b03      	cmp	r3, #3
     2c4:	f200 8081 	bhi.w	3ca <get_fat+0x120>
     2c8:	e8df f003 	tbb	[pc, r3]
     2cc:	4a372902 	.word	0x4a372902
     2d0:	eb01 0551 	add.w	r5, r1, r1, lsr #1
     2d4:	6ab1      	ldr	r1, [r6, #40]	; 0x28
     2d6:	4630      	mov	r0, r6
     2d8:	eb01 2155 	add.w	r1, r1, r5, lsr #9
     2dc:	f7ff ff8f 	bl	1fe <move_window>
     2e0:	b110      	cbz	r0, 2e8 <get_fat+0x3e>
     2e2:	f04f 30ff 	mov.w	r0, #4294967295	; 0xffffffff
     2e6:	bdf8      	pop	{r3, r4, r5, r6, r7, pc}
     2e8:	6ab1      	ldr	r1, [r6, #40]	; 0x28
     2ea:	1c6f      	adds	r7, r5, #1
     2ec:	f3c5 0508 	ubfx	r5, r5, #0, #9
     2f0:	4435      	add	r5, r6
     2f2:	4630      	mov	r0, r6
     2f4:	eb01 2157 	add.w	r1, r1, r7, lsr #9
     2f8:	f895 503c 	ldrb.w	r5, [r5, #60]	; 0x3c
     2fc:	f7ff ff7f 	bl	1fe <move_window>
     300:	2800      	cmp	r0, #0
     302:	d1ee      	bne.n	2e2 <get_fat+0x38>
     304:	f3c7 0708 	ubfx	r7, r7, #0, #9
     308:	4437      	add	r7, r6
     30a:	f897 303c 	ldrb.w	r3, [r7, #60]	; 0x3c
     30e:	ea45 2003 	orr.w	r0, r5, r3, lsl #8
     312:	07e3      	lsls	r3, r4, #31
     314:	bf4c      	ite	mi
     316:	0900      	lsrmi	r0, r0, #4
     318:	f3c0 000b 	ubfxpl	r0, r0, #0, #12
     31c:	e7e3      	b.n	2e6 <get_fat+0x3c>
     31e:	6ab1      	ldr	r1, [r6, #40]	; 0x28
     320:	4630      	mov	r0, r6
     322:	eb01 2114 	add.w	r1, r1, r4, lsr #8
     326:	f7ff ff6a 	bl	1fe <move_window>
     32a:	2800      	cmp	r0, #0
     32c:	d1d9      	bne.n	2e2 <get_fat+0x38>
     32e:	0064      	lsls	r4, r4, #1
     330:	f404 74ff 	and.w	r4, r4, #510	; 0x1fe
     334:	4434      	add	r4, r6
     336:	8fa0      	ldrh	r0, [r4, #60]	; 0x3c
     338:	e7d5      	b.n	2e6 <get_fat+0x3c>
     33a:	6ab1      	ldr	r1, [r6, #40]	; 0x28
     33c:	4630      	mov	r0, r6
     33e:	eb01 11d4 	add.w	r1, r1, r4, lsr #7
     342:	f7ff ff5c 	bl	1fe <move_window>
     346:	2800      	cmp	r0, #0
     348:	d1cb      	bne.n	2e2 <get_fat+0x38>
     34a:	00a4      	lsls	r4, r4, #2
     34c:	f106 003c 	add.w	r0, r6, #60	; 0x3c
     350:	f404 74fe 	and.w	r4, r4, #508	; 0x1fc
     354:	4420      	add	r0, r4
     356:	f7ff fe53 	bl	0 <ld_dword>
     35a:	f020 4070 	bic.w	r0, r0, #4026531840	; 0xf0000000
     35e:	e7c2      	b.n	2e6 <get_fat+0x3c>
     360:	e9d0 3104 	ldrd	r3, r1, [r0, #16]
     364:	ea53 0201 	orrs.w	r2, r3, r1
     368:	79c5      	ldrb	r5, [r0, #7]
     36a:	d001      	beq.n	370 <get_fat+0xc6>
     36c:	6882      	ldr	r2, [r0, #8]
     36e:	b902      	cbnz	r2, 372 <get_fat+0xc8>
     370:	bb5d      	cbnz	r5, 3ca <get_fat+0x120>
     372:	6882      	ldr	r2, [r0, #8]
     374:	2d02      	cmp	r5, #2
     376:	8977      	ldrh	r7, [r6, #10]
     378:	eba4 0202 	sub.w	r2, r4, r2
     37c:	d10c      	bne.n	398 <get_fat+0xee>
     37e:	3b01      	subs	r3, #1
     380:	f141 31ff 	adc.w	r1, r1, #4294967295	; 0xffffffff
     384:	0a5b      	lsrs	r3, r3, #9
     386:	ea43 53c1 	orr.w	r3, r3, r1, lsl #23
     38a:	fbb3 f3f7 	udiv	r3, r3, r7
     38e:	429a      	cmp	r2, r3
     390:	d81b      	bhi.n	3ca <get_fat+0x120>
     392:	d01c      	beq.n	3ce <get_fat+0x124>
     394:	1c60      	adds	r0, r4, #1
     396:	e7a6      	b.n	2e6 <get_fat+0x3c>
     398:	2d03      	cmp	r5, #3
     39a:	d102      	bne.n	3a2 <get_fat+0xf8>
     39c:	6983      	ldr	r3, [r0, #24]
     39e:	4293      	cmp	r3, r2
     3a0:	d8f8      	bhi.n	394 <get_fat+0xea>
     3a2:	69c3      	ldr	r3, [r0, #28]
     3a4:	b99b      	cbnz	r3, 3ce <get_fat+0x124>
     3a6:	6ab1      	ldr	r1, [r6, #40]	; 0x28
     3a8:	4630      	mov	r0, r6
     3aa:	eb01 11d4 	add.w	r1, r1, r4, lsr #7
     3ae:	f7ff ff26 	bl	1fe <move_window>
     3b2:	2800      	cmp	r0, #0
     3b4:	d195      	bne.n	2e2 <get_fat+0x38>
     3b6:	00a0      	lsls	r0, r4, #2
     3b8:	363c      	adds	r6, #60	; 0x3c
     3ba:	f400 70fe 	and.w	r0, r0, #508	; 0x1fc
     3be:	4430      	add	r0, r6
     3c0:	f7ff fe1e 	bl	0 <ld_dword>
     3c4:	f020 4000 	bic.w	r0, r0, #2147483648	; 0x80000000
     3c8:	e78d      	b.n	2e6 <get_fat+0x3c>
     3ca:	2001      	movs	r0, #1
     3cc:	e78b      	b.n	2e6 <get_fat+0x3c>
     3ce:	f06f 4000 	mvn.w	r0, #2147483648	; 0x80000000
     3d2:	e788      	b.n	2e6 <get_fat+0x3c>

000003d4 <dir_sdi>:
     3d4:	b5f8      	push	{r3, r4, r5, r6, r7, lr}
     3d6:	6805      	ldr	r5, [r0, #0]
     3d8:	4606      	mov	r6, r0
     3da:	782b      	ldrb	r3, [r5, #0]
     3dc:	460c      	mov	r4, r1
     3de:	2b04      	cmp	r3, #4
     3e0:	bf0c      	ite	eq
     3e2:	f04f 5280 	moveq.w	r2, #268435456	; 0x10000000
     3e6:	f44f 1200 	movne.w	r2, #2097152	; 0x200000
     3ea:	428a      	cmp	r2, r1
     3ec:	d801      	bhi.n	3f2 <dir_sdi+0x1e>
     3ee:	2002      	movs	r0, #2
     3f0:	bdf8      	pop	{r3, r4, r5, r6, r7, pc}
     3f2:	06ca      	lsls	r2, r1, #27
     3f4:	d1fb      	bne.n	3ee <dir_sdi+0x1a>
     3f6:	6882      	ldr	r2, [r0, #8]
     3f8:	6301      	str	r1, [r0, #48]	; 0x30
     3fa:	bb12      	cbnz	r2, 442 <dir_sdi+0x6e>
     3fc:	2b02      	cmp	r3, #2
     3fe:	d812      	bhi.n	426 <dir_sdi+0x52>
     400:	892b      	ldrh	r3, [r5, #8]
     402:	ebb3 1f54 	cmp.w	r3, r4, lsr #5
     406:	d9f2      	bls.n	3ee <dir_sdi+0x1a>
     408:	6ae8      	ldr	r0, [r5, #44]	; 0x2c
     40a:	e9c6 200d 	strd	r2, r0, [r6, #52]	; 0x34
     40e:	2800      	cmp	r0, #0
     410:	d0ed      	beq.n	3ee <dir_sdi+0x1a>
     412:	eb00 2054 	add.w	r0, r0, r4, lsr #9
     416:	353c      	adds	r5, #60	; 0x3c
     418:	f3c4 0408 	ubfx	r4, r4, #0, #9
     41c:	4425      	add	r5, r4
     41e:	63b0      	str	r0, [r6, #56]	; 0x38
     420:	63f5      	str	r5, [r6, #60]	; 0x3c
     422:	2000      	movs	r0, #0
     424:	e7e4      	b.n	3f0 <dir_sdi+0x1c>
     426:	6aeb      	ldr	r3, [r5, #44]	; 0x2c
     428:	71c2      	strb	r2, [r0, #7]
     42a:	2b00      	cmp	r3, #0
     42c:	d0e8      	beq.n	400 <dir_sdi+0x2c>
     42e:	461a      	mov	r2, r3
     430:	896f      	ldrh	r7, [r5, #10]
     432:	027f      	lsls	r7, r7, #9
     434:	42bc      	cmp	r4, r7
     436:	4611      	mov	r1, r2
     438:	d205      	bcs.n	446 <dir_sdi+0x72>
     43a:	4628      	mov	r0, r5
     43c:	f7ff fe11 	bl	62 <clst2sect>
     440:	e7e3      	b.n	40a <dir_sdi+0x36>
     442:	4613      	mov	r3, r2
     444:	e7f3      	b.n	42e <dir_sdi+0x5a>
     446:	4630      	mov	r0, r6
     448:	f7ff ff2f 	bl	2aa <get_fat>
     44c:	1c43      	adds	r3, r0, #1
     44e:	4602      	mov	r2, r0
     450:	d006      	beq.n	460 <dir_sdi+0x8c>
     452:	2801      	cmp	r0, #1
     454:	d9cb      	bls.n	3ee <dir_sdi+0x1a>
     456:	69eb      	ldr	r3, [r5, #28]
     458:	4283      	cmp	r3, r0
     45a:	d9c8      	bls.n	3ee <dir_sdi+0x1a>
     45c:	1be4      	subs	r4, r4, r7
     45e:	e7e9      	b.n	434 <dir_sdi+0x60>
     460:	2001      	movs	r0, #1
     462:	e7c5      	b.n	3f0 <dir_sdi+0x1c>

00000464 <check_fs>:
     464:	b538      	push	{r3, r4, r5, lr}
     466:	2300      	movs	r3, #0
     468:	70c3      	strb	r3, [r0, #3]
     46a:	f04f 33ff 	mov.w	r3, #4294967295	; 0xffffffff
     46e:	6383      	str	r3, [r0, #56]	; 0x38
     470:	4605      	mov	r5, r0
     472:	f7ff fec4 	bl	1fe <move_window>
     476:	4604      	mov	r4, r0
     478:	bb40      	cbnz	r0, 4cc <check_fs+0x68>
     47a:	f64a 2355 	movw	r3, #43605	; 0xaa55
     47e:	f8b5 223a 	ldrh.w	r2, [r5, #570]	; 0x23a
     482:	429a      	cmp	r2, r3
     484:	d124      	bne.n	4d0 <check_fs+0x6c>
     486:	220b      	movs	r2, #11
     488:	4914      	ldr	r1, [pc, #80]	; (4dc <check_fs+0x78>)
     48a:	f105 003c 	add.w	r0, r5, #60	; 0x3c
     48e:	f7ff fdda 	bl	46 <mem_cmp>
     492:	b1f8      	cbz	r0, 4d4 <check_fs+0x70>
     494:	f895 203c 	ldrb.w	r2, [r5, #60]	; 0x3c
     498:	f102 0318 	add.w	r3, r2, #24
     49c:	b2db      	uxtb	r3, r3
     49e:	2b01      	cmp	r3, #1
     4a0:	d901      	bls.n	4a6 <check_fs+0x42>
     4a2:	2aeb      	cmp	r2, #235	; 0xeb
     4a4:	d118      	bne.n	4d8 <check_fs+0x74>
     4a6:	2203      	movs	r2, #3
     4a8:	490d      	ldr	r1, [pc, #52]	; (4e0 <check_fs+0x7c>)
     4aa:	f105 0072 	add.w	r0, r5, #114	; 0x72
     4ae:	f7ff fdca 	bl	46 <mem_cmp>
     4b2:	b148      	cbz	r0, 4c8 <check_fs+0x64>
     4b4:	2205      	movs	r2, #5
     4b6:	490b      	ldr	r1, [pc, #44]	; (4e4 <check_fs+0x80>)
     4b8:	f105 008e 	add.w	r0, r5, #142	; 0x8e
     4bc:	f7ff fdc3 	bl	46 <mem_cmp>
     4c0:	1e04      	subs	r4, r0, #0
     4c2:	bf18      	it	ne
     4c4:	2401      	movne	r4, #1
     4c6:	0064      	lsls	r4, r4, #1
     4c8:	4620      	mov	r0, r4
     4ca:	bd38      	pop	{r3, r4, r5, pc}
     4cc:	2404      	movs	r4, #4
     4ce:	e7fb      	b.n	4c8 <check_fs+0x64>
     4d0:	2403      	movs	r4, #3
     4d2:	e7f9      	b.n	4c8 <check_fs+0x64>
     4d4:	2401      	movs	r4, #1
     4d6:	e7f7      	b.n	4c8 <check_fs+0x64>
     4d8:	2402      	movs	r4, #2
     4da:	e7f5      	b.n	4c8 <check_fs+0x64>
     4dc:	00000000 	.word	0x00000000
     4e0:	0000000c 	.word	0x0000000c
     4e4:	00000010 	.word	0x00000010

000004e8 <find_volume>:
     4e8:	2300      	movs	r3, #0
     4ea:	e92d 43f0 	stmdb	sp!, {r4, r5, r6, r7, r8, r9, lr}
     4ee:	600b      	str	r3, [r1, #0]
     4f0:	b085      	sub	sp, #20
     4f2:	4688      	mov	r8, r1
     4f4:	4617      	mov	r7, r2
     4f6:	f7ff fde3 	bl	c0 <get_ldnumber>
     4fa:	1e05      	subs	r5, r0, #0
     4fc:	f2c0 81ca 	blt.w	894 <find_volume+0x3ac>
     500:	4eb3      	ldr	r6, [pc, #716]	; (7d0 <find_volume+0x2e8>)
     502:	f856 4025 	ldr.w	r4, [r6, r5, lsl #2]
     506:	2c00      	cmp	r4, #0
     508:	f000 81c6 	beq.w	898 <find_volume+0x3b0>
     50c:	f8c8 4000 	str.w	r4, [r8]
     510:	7823      	ldrb	r3, [r4, #0]
     512:	f007 07fe 	and.w	r7, r7, #254	; 0xfe
     516:	b16b      	cbz	r3, 534 <find_volume+0x4c>
     518:	7860      	ldrb	r0, [r4, #1]
     51a:	f7ff fffe 	bl	0 <disk_status>
     51e:	07c3      	lsls	r3, r0, #31
     520:	d408      	bmi.n	534 <find_volume+0x4c>
     522:	b10f      	cbz	r7, 528 <find_volume+0x40>
     524:	0746      	lsls	r6, r0, #29
     526:	d403      	bmi.n	530 <find_volume+0x48>
     528:	2000      	movs	r0, #0
     52a:	b005      	add	sp, #20
     52c:	e8bd 83f0 	ldmia.w	sp!, {r4, r5, r6, r7, r8, r9, pc}
     530:	200a      	movs	r0, #10
     532:	e7fa      	b.n	52a <find_volume+0x42>
     534:	2300      	movs	r3, #0
     536:	b2e8      	uxtb	r0, r5
     538:	7023      	strb	r3, [r4, #0]
     53a:	7060      	strb	r0, [r4, #1]
     53c:	f7ff fffe 	bl	0 <disk_initialize>
     540:	07c5      	lsls	r5, r0, #31
     542:	f100 81ab 	bmi.w	89c <find_volume+0x3b4>
     546:	b10f      	cbz	r7, 54c <find_volume+0x64>
     548:	0741      	lsls	r1, r0, #29
     54a:	d4f1      	bmi.n	530 <find_volume+0x48>
     54c:	2100      	movs	r1, #0
     54e:	4620      	mov	r0, r4
     550:	f7ff ff88 	bl	464 <check_fs>
     554:	2802      	cmp	r0, #2
     556:	f040 80a0 	bne.w	69a <find_volume+0x1b2>
     55a:	466f      	mov	r7, sp
     55c:	463a      	mov	r2, r7
     55e:	f204 2302 	addw	r3, r4, #514	; 0x202
     562:	f204 2142 	addw	r1, r4, #578	; 0x242
     566:	f813 0c04 	ldrb.w	r0, [r3, #-4]
     56a:	b110      	cbz	r0, 572 <find_volume+0x8a>
     56c:	4618      	mov	r0, r3
     56e:	f7ff fd47 	bl	0 <ld_dword>
     572:	3310      	adds	r3, #16
     574:	428b      	cmp	r3, r1
     576:	f842 0b04 	str.w	r0, [r2], #4
     57a:	d1f4      	bne.n	566 <find_volume+0x7e>
     57c:	f04f 0800 	mov.w	r8, #0
     580:	f857 5b04 	ldr.w	r5, [r7], #4
     584:	2d00      	cmp	r5, #0
     586:	d07d      	beq.n	684 <find_volume+0x19c>
     588:	4629      	mov	r1, r5
     58a:	4620      	mov	r0, r4
     58c:	f7ff ff6a 	bl	464 <check_fs>
     590:	2801      	cmp	r0, #1
     592:	d878      	bhi.n	686 <find_volume+0x19e>
     594:	2801      	cmp	r0, #1
     596:	f040 80be 	bne.w	716 <find_volume+0x22e>
     59a:	230b      	movs	r3, #11
     59c:	f104 0146 	add.w	r1, r4, #70	; 0x46
     5a0:	f811 2f01 	ldrb.w	r2, [r1, #1]!
     5a4:	2a00      	cmp	r2, #0
     5a6:	d17c      	bne.n	6a2 <find_volume+0x1ba>
     5a8:	3301      	adds	r3, #1
     5aa:	2b40      	cmp	r3, #64	; 0x40
     5ac:	d1f8      	bne.n	5a0 <find_volume+0xb8>
     5ae:	f8b4 30a4 	ldrh.w	r3, [r4, #164]	; 0xa4
     5b2:	f5b3 7f80 	cmp.w	r3, #256	; 0x100
     5b6:	d174      	bne.n	6a2 <find_volume+0x1ba>
     5b8:	f894 30a8 	ldrb.w	r3, [r4, #168]	; 0xa8
     5bc:	2b09      	cmp	r3, #9
     5be:	d170      	bne.n	6a2 <find_volume+0x1ba>
     5c0:	f104 0084 	add.w	r0, r4, #132	; 0x84
     5c4:	f7ff fd1e 	bl	4 <ld_qword>
     5c8:	f04f 33ff 	mov.w	r3, #4294967295	; 0xffffffff
     5cc:	182f      	adds	r7, r5, r0
     5ce:	f141 0100 	adc.w	r1, r1, #0
     5d2:	42bb      	cmp	r3, r7
     5d4:	eb72 0301 	sbcs.w	r3, r2, r1
     5d8:	d363      	bcc.n	6a2 <find_volume+0x1ba>
     5da:	f104 0090 	add.w	r0, r4, #144	; 0x90
     5de:	f7ff fd0f 	bl	0 <ld_dword>
     5e2:	6220      	str	r0, [r4, #32]
     5e4:	f894 00aa 	ldrb.w	r0, [r4, #170]	; 0xaa
     5e8:	2801      	cmp	r0, #1
     5ea:	70a0      	strb	r0, [r4, #2]
     5ec:	d159      	bne.n	6a2 <find_volume+0x1ba>
     5ee:	f894 30a9 	ldrb.w	r3, [r4, #169]	; 0xa9
     5f2:	fa00 f303 	lsl.w	r3, r0, r3
     5f6:	b298      	uxth	r0, r3
     5f8:	8160      	strh	r0, [r4, #10]
     5fa:	2800      	cmp	r0, #0
     5fc:	d051      	beq.n	6a2 <find_volume+0x1ba>
     5fe:	f104 0098 	add.w	r0, r4, #152	; 0x98
     602:	f7ff fcfd 	bl	0 <ld_dword>
     606:	4681      	mov	r9, r0
     608:	4872      	ldr	r0, [pc, #456]	; (7d4 <find_volume+0x2ec>)
     60a:	4581      	cmp	r9, r0
     60c:	d849      	bhi.n	6a2 <find_volume+0x1ba>
     60e:	f109 0002 	add.w	r0, r9, #2
     612:	61e0      	str	r0, [r4, #28]
     614:	6265      	str	r5, [r4, #36]	; 0x24
     616:	f104 0094 	add.w	r0, r4, #148	; 0x94
     61a:	f7ff fcf1 	bl	0 <ld_dword>
     61e:	eb05 0800 	add.w	r8, r5, r0
     622:	f8c4 8030 	str.w	r8, [r4, #48]	; 0x30
     626:	f104 008c 	add.w	r0, r4, #140	; 0x8c
     62a:	f7ff fce9 	bl	0 <ld_dword>
     62e:	b29b      	uxth	r3, r3
     630:	4405      	add	r5, r0
     632:	fb09 f003 	mul.w	r0, r9, r3
     636:	eb10 0008 	adds.w	r0, r0, r8
     63a:	eb42 0302 	adc.w	r3, r2, r2
     63e:	4287      	cmp	r7, r0
     640:	eb71 0303 	sbcs.w	r3, r1, r3
     644:	62a5      	str	r5, [r4, #40]	; 0x28
     646:	d32c      	bcc.n	6a2 <find_volume+0x1ba>
     648:	f104 009c 	add.w	r0, r4, #156	; 0x9c
     64c:	f7ff fcd8 	bl	0 <ld_dword>
     650:	4615      	mov	r5, r2
     652:	4617      	mov	r7, r2
     654:	62e0      	str	r0, [r4, #44]	; 0x2c
     656:	b967      	cbnz	r7, 672 <find_volume+0x18a>
     658:	8963      	ldrh	r3, [r4, #10]
     65a:	42ab      	cmp	r3, r5
     65c:	d921      	bls.n	6a2 <find_volume+0x1ba>
     65e:	6ae1      	ldr	r1, [r4, #44]	; 0x2c
     660:	4620      	mov	r0, r4
     662:	f7ff fcfe 	bl	62 <clst2sect>
     666:	1941      	adds	r1, r0, r5
     668:	4620      	mov	r0, r4
     66a:	f7ff fdc8 	bl	1fe <move_window>
     66e:	b990      	cbnz	r0, 696 <find_volume+0x1ae>
     670:	3501      	adds	r5, #1
     672:	19e3      	adds	r3, r4, r7
     674:	f893 303c 	ldrb.w	r3, [r3, #60]	; 0x3c
     678:	2b81      	cmp	r3, #129	; 0x81
     67a:	d016      	beq.n	6aa <find_volume+0x1c2>
     67c:	3720      	adds	r7, #32
     67e:	f3c7 0708 	ubfx	r7, r7, #0, #9
     682:	e7e8      	b.n	656 <find_volume+0x16e>
     684:	2003      	movs	r0, #3
     686:	f108 0801 	add.w	r8, r8, #1
     68a:	f1b8 0f04 	cmp.w	r8, #4
     68e:	f47f af77 	bne.w	580 <find_volume+0x98>
     692:	2804      	cmp	r0, #4
     694:	d105      	bne.n	6a2 <find_volume+0x1ba>
     696:	2001      	movs	r0, #1
     698:	e747      	b.n	52a <find_volume+0x42>
     69a:	2804      	cmp	r0, #4
     69c:	d0fb      	beq.n	696 <find_volume+0x1ae>
     69e:	2801      	cmp	r0, #1
     6a0:	d901      	bls.n	6a6 <find_volume+0x1be>
     6a2:	200d      	movs	r0, #13
     6a4:	e741      	b.n	52a <find_volume+0x42>
     6a6:	2500      	movs	r5, #0
     6a8:	e774      	b.n	594 <find_volume+0xac>
     6aa:	f104 083c 	add.w	r8, r4, #60	; 0x3c
     6ae:	f107 0014 	add.w	r0, r7, #20
     6b2:	4440      	add	r0, r8
     6b4:	f7ff fca4 	bl	0 <ld_dword>
     6b8:	2801      	cmp	r0, #1
     6ba:	4605      	mov	r5, r0
     6bc:	d9f1      	bls.n	6a2 <find_volume+0x1ba>
     6be:	69e3      	ldr	r3, [r4, #28]
     6c0:	4283      	cmp	r3, r0
     6c2:	d9ee      	bls.n	6a2 <find_volume+0x1ba>
     6c4:	8961      	ldrh	r1, [r4, #10]
     6c6:	6b23      	ldr	r3, [r4, #48]	; 0x30
     6c8:	1e82      	subs	r2, r0, #2
     6ca:	fb02 3301 	mla	r3, r2, r1, r3
     6ce:	6363      	str	r3, [r4, #52]	; 0x34
     6d0:	6aa1      	ldr	r1, [r4, #40]	; 0x28
     6d2:	4620      	mov	r0, r4
     6d4:	eb01 11d5 	add.w	r1, r1, r5, lsr #7
     6d8:	f7ff fd91 	bl	1fe <move_window>
     6dc:	2800      	cmp	r0, #0
     6de:	d1da      	bne.n	696 <find_volume+0x1ae>
     6e0:	f005 007f 	and.w	r0, r5, #127	; 0x7f
     6e4:	eb08 0080 	add.w	r0, r8, r0, lsl #2
     6e8:	f7ff fc8a 	bl	0 <ld_dword>
     6ec:	1c42      	adds	r2, r0, #1
     6ee:	d003      	beq.n	6f8 <find_volume+0x210>
     6f0:	3501      	adds	r5, #1
     6f2:	42a8      	cmp	r0, r5
     6f4:	d0ec      	beq.n	6d0 <find_volume+0x1e8>
     6f6:	e7d4      	b.n	6a2 <find_volume+0x1ba>
     6f8:	2704      	movs	r7, #4
     6fa:	e9c4 0005 	strd	r0, r0, [r4, #20]
     6fe:	8ab3      	ldrh	r3, [r6, #20]
     700:	7027      	strb	r7, [r4, #0]
     702:	3301      	adds	r3, #1
     704:	b29b      	uxth	r3, r3
     706:	82b3      	strh	r3, [r6, #20]
     708:	80e3      	strh	r3, [r4, #6]
     70a:	4b33      	ldr	r3, [pc, #204]	; (7d8 <find_volume+0x2f0>)
     70c:	60e3      	str	r3, [r4, #12]
     70e:	f503 7300 	add.w	r3, r3, #512	; 0x200
     712:	6123      	str	r3, [r4, #16]
     714:	e708      	b.n	528 <find_volume+0x40>
     716:	f8b4 3047 	ldrh.w	r3, [r4, #71]	; 0x47
     71a:	f5b3 7f00 	cmp.w	r3, #512	; 0x200
     71e:	d1c0      	bne.n	6a2 <find_volume+0x1ba>
     720:	f8b4 1052 	ldrh.w	r1, [r4, #82]	; 0x52
     724:	b921      	cbnz	r1, 730 <find_volume+0x248>
     726:	f104 0060 	add.w	r0, r4, #96	; 0x60
     72a:	f7ff fc69 	bl	0 <ld_dword>
     72e:	4601      	mov	r1, r0
     730:	f894 204c 	ldrb.w	r2, [r4, #76]	; 0x4c
     734:	6221      	str	r1, [r4, #32]
     736:	1e53      	subs	r3, r2, #1
     738:	2b01      	cmp	r3, #1
     73a:	70a2      	strb	r2, [r4, #2]
     73c:	d8b1      	bhi.n	6a2 <find_volume+0x1ba>
     73e:	f894 8049 	ldrb.w	r8, [r4, #73]	; 0x49
     742:	f8a4 800a 	strh.w	r8, [r4, #10]
     746:	f1b8 0f00 	cmp.w	r8, #0
     74a:	d0aa      	beq.n	6a2 <find_volume+0x1ba>
     74c:	f108 33ff 	add.w	r3, r8, #4294967295	; 0xffffffff
     750:	ea13 0f08 	tst.w	r3, r8
     754:	d1a5      	bne.n	6a2 <find_volume+0x1ba>
     756:	f8b4 704d 	ldrh.w	r7, [r4, #77]	; 0x4d
     75a:	073b      	lsls	r3, r7, #28
     75c:	8127      	strh	r7, [r4, #8]
     75e:	d1a0      	bne.n	6a2 <find_volume+0x1ba>
     760:	f8b4 004f 	ldrh.w	r0, [r4, #79]	; 0x4f
     764:	b918      	cbnz	r0, 76e <find_volume+0x286>
     766:	f104 005c 	add.w	r0, r4, #92	; 0x5c
     76a:	f7ff fc49 	bl	0 <ld_dword>
     76e:	f8b4 304a 	ldrh.w	r3, [r4, #74]	; 0x4a
     772:	2b00      	cmp	r3, #0
     774:	d095      	beq.n	6a2 <find_volume+0x1ba>
     776:	434a      	muls	r2, r1
     778:	eb03 1c17 	add.w	ip, r3, r7, lsr #4
     77c:	4494      	add	ip, r2
     77e:	4560      	cmp	r0, ip
     780:	d38f      	bcc.n	6a2 <find_volume+0x1ba>
     782:	eba0 000c 	sub.w	r0, r0, ip
     786:	4540      	cmp	r0, r8
     788:	fbb0 fef8 	udiv	lr, r0, r8
     78c:	d389      	bcc.n	6a2 <find_volume+0x1ba>
     78e:	4813      	ldr	r0, [pc, #76]	; (7dc <find_volume+0x2f4>)
     790:	4586      	cmp	lr, r0
     792:	d886      	bhi.n	6a2 <find_volume+0x1ba>
     794:	f64f 78f5 	movw	r8, #65525	; 0xfff5
     798:	45c6      	cmp	lr, r8
     79a:	eb05 0003 	add.w	r0, r5, r3
     79e:	44ac      	add	ip, r5
     7a0:	f10e 0302 	add.w	r3, lr, #2
     7a4:	d81c      	bhi.n	7e0 <find_volume+0x2f8>
     7a6:	f640 78f5 	movw	r8, #4085	; 0xff5
     7aa:	45c6      	cmp	lr, r8
     7ac:	e9c4 5009 	strd	r5, r0, [r4, #36]	; 0x24
     7b0:	61e3      	str	r3, [r4, #28]
     7b2:	f8c4 c030 	str.w	ip, [r4, #48]	; 0x30
     7b6:	d866      	bhi.n	886 <find_volume+0x39e>
     7b8:	2f00      	cmp	r7, #0
     7ba:	f43f af72 	beq.w	6a2 <find_volume+0x1ba>
     7be:	4410      	add	r0, r2
     7c0:	eb03 0243 	add.w	r2, r3, r3, lsl #1
     7c4:	f003 0301 	and.w	r3, r3, #1
     7c8:	2701      	movs	r7, #1
     7ca:	eb03 0352 	add.w	r3, r3, r2, lsr #1
     7ce:	e017      	b.n	800 <find_volume+0x318>
     7d0:	00000000 	.word	0x00000000
     7d4:	7ffffffd 	.word	0x7ffffffd
     7d8:	00000016 	.word	0x00000016
     7dc:	0ffffff5 	.word	0x0ffffff5
     7e0:	f8b4 2066 	ldrh.w	r2, [r4, #102]	; 0x66
     7e4:	e9c4 5009 	strd	r5, r0, [r4, #36]	; 0x24
     7e8:	433a      	orrs	r2, r7
     7ea:	61e3      	str	r3, [r4, #28]
     7ec:	f8c4 c030 	str.w	ip, [r4, #48]	; 0x30
     7f0:	f47f af57 	bne.w	6a2 <find_volume+0x1ba>
     7f4:	f104 0068 	add.w	r0, r4, #104	; 0x68
     7f8:	f7ff fc02 	bl	0 <ld_dword>
     7fc:	2703      	movs	r7, #3
     7fe:	009b      	lsls	r3, r3, #2
     800:	f203 13ff 	addw	r3, r3, #511	; 0x1ff
     804:	ebb1 2f53 	cmp.w	r1, r3, lsr #9
     808:	62e0      	str	r0, [r4, #44]	; 0x2c
     80a:	f4ff af4a 	bcc.w	6a2 <find_volume+0x1ba>
     80e:	f04f 33ff 	mov.w	r3, #4294967295	; 0xffffffff
     812:	e9c4 3305 	strd	r3, r3, [r4, #20]
     816:	2380      	movs	r3, #128	; 0x80
     818:	2f03      	cmp	r7, #3
     81a:	7123      	strb	r3, [r4, #4]
     81c:	f47f af6f 	bne.w	6fe <find_volume+0x216>
     820:	f8b4 306c 	ldrh.w	r3, [r4, #108]	; 0x6c
     824:	2b01      	cmp	r3, #1
     826:	f47f af6a 	bne.w	6fe <find_volume+0x216>
     82a:	4620      	mov	r0, r4
     82c:	1c69      	adds	r1, r5, #1
     82e:	f7ff fce6 	bl	1fe <move_window>
     832:	2800      	cmp	r0, #0
     834:	f47f af63 	bne.w	6fe <find_volume+0x216>
     838:	f64a 2355 	movw	r3, #43605	; 0xaa55
     83c:	f8b4 223a 	ldrh.w	r2, [r4, #570]	; 0x23a
     840:	7120      	strb	r0, [r4, #4]
     842:	429a      	cmp	r2, r3
     844:	f47f af5b 	bne.w	6fe <find_volume+0x216>
     848:	f104 003c 	add.w	r0, r4, #60	; 0x3c
     84c:	f7ff fbd8 	bl	0 <ld_dword>
     850:	4b13      	ldr	r3, [pc, #76]	; (8a0 <find_volume+0x3b8>)
     852:	4298      	cmp	r0, r3
     854:	f47f af53 	bne.w	6fe <find_volume+0x216>
     858:	f504 7008 	add.w	r0, r4, #544	; 0x220
     85c:	f7ff fbd0 	bl	0 <ld_dword>
     860:	f103 53ff 	add.w	r3, r3, #534773760	; 0x1fe00000
     864:	f503 5300 	add.w	r3, r3, #8192	; 0x2000
     868:	3320      	adds	r3, #32
     86a:	4298      	cmp	r0, r3
     86c:	f47f af47 	bne.w	6fe <find_volume+0x216>
     870:	f504 7009 	add.w	r0, r4, #548	; 0x224
     874:	f7ff fbc4 	bl	0 <ld_dword>
     878:	61a0      	str	r0, [r4, #24]
     87a:	f504 700a 	add.w	r0, r4, #552	; 0x228
     87e:	f7ff fbbf 	bl	0 <ld_dword>
     882:	6160      	str	r0, [r4, #20]
     884:	e73b      	b.n	6fe <find_volume+0x216>
     886:	2f00      	cmp	r7, #0
     888:	f43f af0b 	beq.w	6a2 <find_volume+0x1ba>
     88c:	2702      	movs	r7, #2
     88e:	4410      	add	r0, r2
     890:	005b      	lsls	r3, r3, #1
     892:	e7b5      	b.n	800 <find_volume+0x318>
     894:	200b      	movs	r0, #11
     896:	e648      	b.n	52a <find_volume+0x42>
     898:	200c      	movs	r0, #12
     89a:	e646      	b.n	52a <find_volume+0x42>
     89c:	2003      	movs	r0, #3
     89e:	e644      	b.n	52a <find_volume+0x42>
     8a0:	41615252 	.word	0x41615252

000008a4 <put_fat>:
     8a4:	2901      	cmp	r1, #1
     8a6:	e92d 43f8 	stmdb	sp!, {r3, r4, r5, r6, r7, r8, r9, lr}
     8aa:	4606      	mov	r6, r0
     8ac:	460c      	mov	r4, r1
     8ae:	4615      	mov	r5, r2
     8b0:	d908      	bls.n	8c4 <put_fat+0x20>
     8b2:	69c3      	ldr	r3, [r0, #28]
     8b4:	428b      	cmp	r3, r1
     8b6:	d905      	bls.n	8c4 <put_fat+0x20>
     8b8:	7803      	ldrb	r3, [r0, #0]
     8ba:	2b02      	cmp	r3, #2
     8bc:	d05e      	beq.n	97c <put_fat+0xd8>
     8be:	d803      	bhi.n	8c8 <put_fat+0x24>
     8c0:	2b01      	cmp	r3, #1
     8c2:	d021      	beq.n	908 <put_fat+0x64>
     8c4:	2002      	movs	r0, #2
     8c6:	e04f      	b.n	968 <put_fat+0xc4>
     8c8:	3b03      	subs	r3, #3
     8ca:	2b01      	cmp	r3, #1
     8cc:	d8fa      	bhi.n	8c4 <put_fat+0x20>
     8ce:	6a81      	ldr	r1, [r0, #40]	; 0x28
     8d0:	eb01 11d4 	add.w	r1, r1, r4, lsr #7
     8d4:	f7ff fc93 	bl	1fe <move_window>
     8d8:	2800      	cmp	r0, #0
     8da:	d145      	bne.n	968 <put_fat+0xc4>
     8dc:	7832      	ldrb	r2, [r6, #0]
     8de:	00a4      	lsls	r4, r4, #2
     8e0:	f106 033c 	add.w	r3, r6, #60	; 0x3c
     8e4:	f404 74fe 	and.w	r4, r4, #508	; 0x1fc
     8e8:	2a04      	cmp	r2, #4
     8ea:	4423      	add	r3, r4
     8ec:	d007      	beq.n	8fe <put_fat+0x5a>
     8ee:	4618      	mov	r0, r3
     8f0:	f7ff fb86 	bl	0 <ld_dword>
     8f4:	f025 4570 	bic.w	r5, r5, #4026531840	; 0xf0000000
     8f8:	f000 4070 	and.w	r0, r0, #4026531840	; 0xf0000000
     8fc:	4305      	orrs	r5, r0
     8fe:	4629      	mov	r1, r5
     900:	4618      	mov	r0, r3
     902:	f7ff fb83 	bl	c <st_dword>
     906:	e02c      	b.n	962 <put_fat+0xbe>
     908:	eb01 0751 	add.w	r7, r1, r1, lsr #1
     90c:	6a81      	ldr	r1, [r0, #40]	; 0x28
     90e:	eb01 2157 	add.w	r1, r1, r7, lsr #9
     912:	f7ff fc74 	bl	1fe <move_window>
     916:	bb38      	cbnz	r0, 968 <put_fat+0xc4>
     918:	f014 0401 	ands.w	r4, r4, #1
     91c:	f106 083c 	add.w	r8, r6, #60	; 0x3c
     920:	f107 0901 	add.w	r9, r7, #1
     924:	f3c7 0708 	ubfx	r7, r7, #0, #9
     928:	bf1f      	itttt	ne
     92a:	f818 2007 	ldrbne.w	r2, [r8, r7]
     92e:	012b      	lslne	r3, r5, #4
     930:	f003 03f0 	andne.w	r3, r3, #240	; 0xf0
     934:	f002 020f 	andne.w	r2, r2, #15
     938:	bf14      	ite	ne
     93a:	4313      	orrne	r3, r2
     93c:	b2eb      	uxtbeq	r3, r5
     93e:	f808 3007 	strb.w	r3, [r8, r7]
     942:	2301      	movs	r3, #1
     944:	6ab1      	ldr	r1, [r6, #40]	; 0x28
     946:	4630      	mov	r0, r6
     948:	70f3      	strb	r3, [r6, #3]
     94a:	eb01 2159 	add.w	r1, r1, r9, lsr #9
     94e:	f7ff fc56 	bl	1fe <move_window>
     952:	b948      	cbnz	r0, 968 <put_fat+0xc4>
     954:	f3c9 0908 	ubfx	r9, r9, #0, #9
     958:	b144      	cbz	r4, 96c <put_fat+0xc8>
     95a:	f3c5 1507 	ubfx	r5, r5, #4, #8
     95e:	f808 5009 	strb.w	r5, [r8, r9]
     962:	2301      	movs	r3, #1
     964:	2000      	movs	r0, #0
     966:	70f3      	strb	r3, [r6, #3]
     968:	e8bd 83f8 	ldmia.w	sp!, {r3, r4, r5, r6, r7, r8, r9, pc}
     96c:	f818 3009 	ldrb.w	r3, [r8, r9]
     970:	f3c5 2503 	ubfx	r5, r5, #8, #4
     974:	f023 030f 	bic.w	r3, r3, #15
     978:	431d      	orrs	r5, r3
     97a:	e7f0      	b.n	95e <put_fat+0xba>
     97c:	6a81      	ldr	r1, [r0, #40]	; 0x28
     97e:	eb01 2114 	add.w	r1, r1, r4, lsr #8
     982:	f7ff fc3c 	bl	1fe <move_window>
     986:	2800      	cmp	r0, #0
     988:	d1ee      	bne.n	968 <put_fat+0xc4>
     98a:	0064      	lsls	r4, r4, #1
     98c:	f106 033c 	add.w	r3, r6, #60	; 0x3c
     990:	f404 74ff 	and.w	r4, r4, #510	; 0x1fe
     994:	551d      	strb	r5, [r3, r4]
     996:	191a      	adds	r2, r3, r4
     998:	f3c5 2507 	ubfx	r5, r5, #8, #8
     99c:	7055      	strb	r5, [r2, #1]
     99e:	e7e0      	b.n	962 <put_fat+0xbe>

000009a0 <fill_last_frag>:
     9a0:	b5f8      	push	{r3, r4, r5, r6, r7, lr}
     9a2:	4604      	mov	r4, r0
     9a4:	460e      	mov	r6, r1
     9a6:	4617      	mov	r7, r2
     9a8:	69e3      	ldr	r3, [r4, #28]
     9aa:	b90b      	cbnz	r3, 9b0 <fill_last_frag+0x10>
     9ac:	4618      	mov	r0, r3
     9ae:	bdf8      	pop	{r3, r4, r5, r6, r7, pc}
     9b0:	2b01      	cmp	r3, #1
     9b2:	eba6 0503 	sub.w	r5, r6, r3
     9b6:	bf0c      	ite	eq
     9b8:	463a      	moveq	r2, r7
     9ba:	1caa      	addne	r2, r5, #2
     9bc:	6820      	ldr	r0, [r4, #0]
     9be:	1c69      	adds	r1, r5, #1
     9c0:	f7ff ff70 	bl	8a4 <put_fat>
     9c4:	2800      	cmp	r0, #0
     9c6:	d1f2      	bne.n	9ae <fill_last_frag+0xe>
     9c8:	69e3      	ldr	r3, [r4, #28]
     9ca:	3b01      	subs	r3, #1
     9cc:	61e3      	str	r3, [r4, #28]
     9ce:	e7eb      	b.n	9a8 <fill_last_frag+0x8>

000009d0 <fill_first_frag>:
     9d0:	b570      	push	{r4, r5, r6, lr}
     9d2:	79c3      	ldrb	r3, [r0, #7]
     9d4:	4604      	mov	r4, r0
     9d6:	2b03      	cmp	r3, #3
     9d8:	d001      	beq.n	9de <fill_first_frag+0xe>
     9da:	2000      	movs	r0, #0
     9dc:	bd70      	pop	{r4, r5, r6, pc}
     9de:	6881      	ldr	r1, [r0, #8]
     9e0:	6983      	ldr	r3, [r0, #24]
     9e2:	18cd      	adds	r5, r1, r3
     9e4:	42a9      	cmp	r1, r5
     9e6:	d102      	bne.n	9ee <fill_first_frag+0x1e>
     9e8:	2300      	movs	r3, #0
     9ea:	71e3      	strb	r3, [r4, #7]
     9ec:	e7f5      	b.n	9da <fill_first_frag+0xa>
     9ee:	1c4e      	adds	r6, r1, #1
     9f0:	4632      	mov	r2, r6
     9f2:	6820      	ldr	r0, [r4, #0]
     9f4:	f7ff ff56 	bl	8a4 <put_fat>
     9f8:	2800      	cmp	r0, #0
     9fa:	d1ef      	bne.n	9dc <fill_first_frag+0xc>
     9fc:	4631      	mov	r1, r6
     9fe:	e7f1      	b.n	9e4 <fill_first_frag+0x14>

00000a00 <remove_chain>:
     a00:	2901      	cmp	r1, #1
     a02:	e92d 43f8 	stmdb	sp!, {r3, r4, r5, r6, r7, r8, r9, lr}
     a06:	4606      	mov	r6, r0
     a08:	460c      	mov	r4, r1
     a0a:	4617      	mov	r7, r2
     a0c:	6805      	ldr	r5, [r0, #0]
     a0e:	d802      	bhi.n	a16 <remove_chain+0x16>
     a10:	2002      	movs	r0, #2
     a12:	e8bd 83f8 	ldmia.w	sp!, {r3, r4, r5, r6, r7, r8, r9, pc}
     a16:	69eb      	ldr	r3, [r5, #28]
     a18:	428b      	cmp	r3, r1
     a1a:	d9f9      	bls.n	a10 <remove_chain+0x10>
     a1c:	b97a      	cbnz	r2, a3e <remove_chain+0x3e>
     a1e:	46a1      	mov	r9, r4
     a20:	4621      	mov	r1, r4
     a22:	4630      	mov	r0, r6
     a24:	f7ff fc41 	bl	2aa <get_fat>
     a28:	46a0      	mov	r8, r4
     a2a:	4604      	mov	r4, r0
     a2c:	b9b0      	cbnz	r0, a5c <remove_chain+0x5c>
     a2e:	782b      	ldrb	r3, [r5, #0]
     a30:	2b04      	cmp	r3, #4
     a32:	d102      	bne.n	a3a <remove_chain+0x3a>
     a34:	2f00      	cmp	r7, #0
     a36:	d144      	bne.n	ac2 <remove_chain+0xc2>
     a38:	71f7      	strb	r7, [r6, #7]
     a3a:	2000      	movs	r0, #0
     a3c:	e7e9      	b.n	a12 <remove_chain+0x12>
     a3e:	782b      	ldrb	r3, [r5, #0]
     a40:	2b04      	cmp	r3, #4
     a42:	d102      	bne.n	a4a <remove_chain+0x4a>
     a44:	79c3      	ldrb	r3, [r0, #7]
     a46:	2b02      	cmp	r3, #2
     a48:	d0e9      	beq.n	a1e <remove_chain+0x1e>
     a4a:	f04f 32ff 	mov.w	r2, #4294967295	; 0xffffffff
     a4e:	4639      	mov	r1, r7
     a50:	4628      	mov	r0, r5
     a52:	f7ff ff27 	bl	8a4 <put_fat>
     a56:	2800      	cmp	r0, #0
     a58:	d0e1      	beq.n	a1e <remove_chain+0x1e>
     a5a:	e7da      	b.n	a12 <remove_chain+0x12>
     a5c:	2801      	cmp	r0, #1
     a5e:	d0d7      	beq.n	a10 <remove_chain+0x10>
     a60:	1c42      	adds	r2, r0, #1
     a62:	d101      	bne.n	a68 <remove_chain+0x68>
     a64:	2001      	movs	r0, #1
     a66:	e7d4      	b.n	a12 <remove_chain+0x12>
     a68:	782b      	ldrb	r3, [r5, #0]
     a6a:	2b04      	cmp	r3, #4
     a6c:	d110      	bne.n	a90 <remove_chain+0x90>
     a6e:	e9d5 3206 	ldrd	r3, r2, [r5, #24]
     a72:	3a02      	subs	r2, #2
     a74:	4293      	cmp	r3, r2
     a76:	d313      	bcc.n	aa0 <remove_chain+0xa0>
     a78:	f108 0201 	add.w	r2, r8, #1
     a7c:	42a2      	cmp	r2, r4
     a7e:	d003      	beq.n	a88 <remove_chain+0x88>
     a80:	782b      	ldrb	r3, [r5, #0]
     a82:	2b04      	cmp	r3, #4
     a84:	d013      	beq.n	aae <remove_chain+0xae>
     a86:	46a1      	mov	r9, r4
     a88:	69eb      	ldr	r3, [r5, #28]
     a8a:	42a3      	cmp	r3, r4
     a8c:	d8c8      	bhi.n	a20 <remove_chain+0x20>
     a8e:	e7ce      	b.n	a2e <remove_chain+0x2e>
     a90:	2200      	movs	r2, #0
     a92:	4641      	mov	r1, r8
     a94:	4628      	mov	r0, r5
     a96:	f7ff ff05 	bl	8a4 <put_fat>
     a9a:	2800      	cmp	r0, #0
     a9c:	d0e7      	beq.n	a6e <remove_chain+0x6e>
     a9e:	e7b8      	b.n	a12 <remove_chain+0x12>
     aa0:	3301      	adds	r3, #1
     aa2:	61ab      	str	r3, [r5, #24]
     aa4:	792b      	ldrb	r3, [r5, #4]
     aa6:	f043 0301 	orr.w	r3, r3, #1
     aaa:	712b      	strb	r3, [r5, #4]
     aac:	e7e4      	b.n	a78 <remove_chain+0x78>
     aae:	2300      	movs	r3, #0
     ab0:	4649      	mov	r1, r9
     ab2:	4628      	mov	r0, r5
     ab4:	eba2 0209 	sub.w	r2, r2, r9
     ab8:	f7ff fbba 	bl	230 <change_bitmap>
     abc:	2800      	cmp	r0, #0
     abe:	d0e2      	beq.n	a86 <remove_chain+0x86>
     ac0:	e7a7      	b.n	a12 <remove_chain+0x12>
     ac2:	79f3      	ldrb	r3, [r6, #7]
     ac4:	b98b      	cbnz	r3, aea <remove_chain+0xea>
     ac6:	68b4      	ldr	r4, [r6, #8]
     ac8:	42bc      	cmp	r4, r7
     aca:	d102      	bne.n	ad2 <remove_chain+0xd2>
     acc:	2302      	movs	r3, #2
     ace:	71f3      	strb	r3, [r6, #7]
     ad0:	e7b3      	b.n	a3a <remove_chain+0x3a>
     ad2:	4621      	mov	r1, r4
     ad4:	4630      	mov	r0, r6
     ad6:	f7ff fbe8 	bl	2aa <get_fat>
     ada:	2801      	cmp	r0, #1
     adc:	d998      	bls.n	a10 <remove_chain+0x10>
     ade:	1c43      	adds	r3, r0, #1
     ae0:	d0c0      	beq.n	a64 <remove_chain+0x64>
     ae2:	3401      	adds	r4, #1
     ae4:	4284      	cmp	r4, r0
     ae6:	d0ef      	beq.n	ac8 <remove_chain+0xc8>
     ae8:	e7a7      	b.n	a3a <remove_chain+0x3a>
     aea:	2b03      	cmp	r3, #3
     aec:	d1a5      	bne.n	a3a <remove_chain+0x3a>
     aee:	68b3      	ldr	r3, [r6, #8]
     af0:	42bb      	cmp	r3, r7
     af2:	d8a2      	bhi.n	a3a <remove_chain+0x3a>
     af4:	69b2      	ldr	r2, [r6, #24]
     af6:	4413      	add	r3, r2
     af8:	42bb      	cmp	r3, r7
     afa:	d2e7      	bcs.n	acc <remove_chain+0xcc>
     afc:	e79d      	b.n	a3a <remove_chain+0x3a>

00000afe <dir_clear>:
     afe:	b5f8      	push	{r3, r4, r5, r6, r7, lr}
     b00:	4604      	mov	r4, r0
     b02:	460e      	mov	r6, r1
     b04:	f7ff fb13 	bl	12e <sync_window>
     b08:	4605      	mov	r5, r0
     b0a:	b9f8      	cbnz	r0, b4c <dir_clear+0x4e>
     b0c:	4631      	mov	r1, r6
     b0e:	4620      	mov	r0, r4
     b10:	f7ff faa7 	bl	62 <clst2sect>
     b14:	f104 073c 	add.w	r7, r4, #60	; 0x3c
     b18:	4606      	mov	r6, r0
     b1a:	63a0      	str	r0, [r4, #56]	; 0x38
     b1c:	f44f 7200 	mov.w	r2, #512	; 0x200
     b20:	4629      	mov	r1, r5
     b22:	4638      	mov	r0, r7
     b24:	f7ff fa89 	bl	3a <mem_set>
     b28:	8963      	ldrh	r3, [r4, #10]
     b2a:	429d      	cmp	r5, r3
     b2c:	d304      	bcc.n	b38 <dir_clear+0x3a>
     b2e:	8960      	ldrh	r0, [r4, #10]
     b30:	1b40      	subs	r0, r0, r5
     b32:	bf18      	it	ne
     b34:	2001      	movne	r0, #1
     b36:	bdf8      	pop	{r3, r4, r5, r6, r7, pc}
     b38:	2301      	movs	r3, #1
     b3a:	4639      	mov	r1, r7
     b3c:	7860      	ldrb	r0, [r4, #1]
     b3e:	1972      	adds	r2, r6, r5
     b40:	f7ff fffe 	bl	0 <disk_write>
     b44:	2800      	cmp	r0, #0
     b46:	d1f2      	bne.n	b2e <dir_clear+0x30>
     b48:	3501      	adds	r5, #1
     b4a:	e7ed      	b.n	b28 <dir_clear+0x2a>
     b4c:	2001      	movs	r0, #1
     b4e:	e7f2      	b.n	b36 <dir_clear+0x38>

00000b50 <sync_fs>:
     b50:	b5f8      	push	{r3, r4, r5, r6, r7, lr}
     b52:	4604      	mov	r4, r0
     b54:	f7ff faeb 	bl	12e <sync_window>
     b58:	4605      	mov	r5, r0
     b5a:	2800      	cmp	r0, #0
     b5c:	d142      	bne.n	be4 <sync_fs+0x94>
     b5e:	7823      	ldrb	r3, [r4, #0]
     b60:	2b03      	cmp	r3, #3
     b62:	d137      	bne.n	bd4 <sync_fs+0x84>
     b64:	7927      	ldrb	r7, [r4, #4]
     b66:	2f01      	cmp	r7, #1
     b68:	d134      	bne.n	bd4 <sync_fs+0x84>
     b6a:	2355      	movs	r3, #85	; 0x55
     b6c:	f104 063c 	add.w	r6, r4, #60	; 0x3c
     b70:	4601      	mov	r1, r0
     b72:	f44f 7200 	mov.w	r2, #512	; 0x200
     b76:	4630      	mov	r0, r6
     b78:	f7ff fa5f 	bl	3a <mem_set>
     b7c:	f884 323a 	strb.w	r3, [r4, #570]	; 0x23a
     b80:	23aa      	movs	r3, #170	; 0xaa
     b82:	f884 323b 	strb.w	r3, [r4, #571]	; 0x23b
     b86:	2352      	movs	r3, #82	; 0x52
     b88:	2241      	movs	r2, #65	; 0x41
     b8a:	2172      	movs	r1, #114	; 0x72
     b8c:	f884 303c 	strb.w	r3, [r4, #60]	; 0x3c
     b90:	f884 303d 	strb.w	r3, [r4, #61]	; 0x3d
     b94:	2361      	movs	r3, #97	; 0x61
     b96:	f884 203f 	strb.w	r2, [r4, #63]	; 0x3f
     b9a:	f884 303e 	strb.w	r3, [r4, #62]	; 0x3e
     b9e:	f884 3223 	strb.w	r3, [r4, #547]	; 0x223
     ba2:	f884 1220 	strb.w	r1, [r4, #544]	; 0x220
     ba6:	f884 1221 	strb.w	r1, [r4, #545]	; 0x221
     baa:	f884 2222 	strb.w	r2, [r4, #546]	; 0x222
     bae:	69a1      	ldr	r1, [r4, #24]
     bb0:	f504 7009 	add.w	r0, r4, #548	; 0x224
     bb4:	f7ff fa2a 	bl	c <st_dword>
     bb8:	6961      	ldr	r1, [r4, #20]
     bba:	f504 700a 	add.w	r0, r4, #552	; 0x228
     bbe:	f7ff fa25 	bl	c <st_dword>
     bc2:	6a62      	ldr	r2, [r4, #36]	; 0x24
     bc4:	463b      	mov	r3, r7
     bc6:	3201      	adds	r2, #1
     bc8:	4631      	mov	r1, r6
     bca:	7860      	ldrb	r0, [r4, #1]
     bcc:	63a2      	str	r2, [r4, #56]	; 0x38
     bce:	f7ff fffe 	bl	0 <disk_write>
     bd2:	7125      	strb	r5, [r4, #4]
     bd4:	2200      	movs	r2, #0
     bd6:	7860      	ldrb	r0, [r4, #1]
     bd8:	4611      	mov	r1, r2
     bda:	f7ff fffe 	bl	0 <disk_ioctl>
     bde:	3800      	subs	r0, #0
     be0:	bf18      	it	ne
     be2:	2001      	movne	r0, #1
     be4:	bdf8      	pop	{r3, r4, r5, r6, r7, pc}

00000be6 <get_fileinfo>:
     be6:	e92d 43f8 	stmdb	sp!, {r3, r4, r5, r6, r7, r8, r9, lr}
     bea:	2500      	movs	r5, #0
     bec:	f8d0 8000 	ldr.w	r8, [r0]
     bf0:	768d      	strb	r5, [r1, #26]
     bf2:	6b83      	ldr	r3, [r0, #56]	; 0x38
     bf4:	4607      	mov	r7, r0
     bf6:	460c      	mov	r4, r1
     bf8:	b333      	cbz	r3, c48 <get_fileinfo+0x62>
     bfa:	f898 3000 	ldrb.w	r3, [r8]
     bfe:	2b04      	cmp	r3, #4
     c00:	d147      	bne.n	c92 <get_fileinfo+0xac>
     c02:	2740      	movs	r7, #64	; 0x40
     c04:	462e      	mov	r6, r5
     c06:	462b      	mov	r3, r5
     c08:	f8d8 8010 	ldr.w	r8, [r8, #16]
     c0c:	f898 2023 	ldrb.w	r2, [r8, #35]	; 0x23
     c10:	4295      	cmp	r5, r2
     c12:	d31b      	bcc.n	c4c <get_fileinfo+0x66>
     c14:	b903      	cbnz	r3, c18 <get_fileinfo+0x32>
     c16:	b916      	cbnz	r6, c1e <get_fileinfo+0x38>
     c18:	233f      	movs	r3, #63	; 0x3f
     c1a:	2601      	movs	r6, #1
     c1c:	76a3      	strb	r3, [r4, #26]
     c1e:	2300      	movs	r3, #0
     c20:	4426      	add	r6, r4
     c22:	76b3      	strb	r3, [r6, #26]
     c24:	7363      	strb	r3, [r4, #13]
     c26:	f898 3004 	ldrb.w	r3, [r8, #4]
     c2a:	7323      	strb	r3, [r4, #12]
     c2c:	06db      	lsls	r3, r3, #27
     c2e:	d42d      	bmi.n	c8c <get_fileinfo+0xa6>
     c30:	f108 0038 	add.w	r0, r8, #56	; 0x38
     c34:	f7ff f9e6 	bl	4 <ld_qword>
     c38:	e9c4 0100 	strd	r0, r1, [r4]
     c3c:	f8b8 300c 	ldrh.w	r3, [r8, #12]
     c40:	8163      	strh	r3, [r4, #10]
     c42:	f8b8 300e 	ldrh.w	r3, [r8, #14]
     c46:	8123      	strh	r3, [r4, #8]
     c48:	e8bd 83f8 	ldmia.w	sp!, {r3, r4, r5, r6, r7, r8, r9, pc}
     c4c:	f5b7 7f18 	cmp.w	r7, #608	; 0x260
     c50:	d2e2      	bcs.n	c18 <get_fileinfo+0x32>
     c52:	06fa      	lsls	r2, r7, #27
     c54:	bf08      	it	eq
     c56:	3702      	addeq	r7, #2
     c58:	f838 0007 	ldrh.w	r0, [r8, r7]
     c5c:	3501      	adds	r5, #1
     c5e:	3702      	adds	r7, #2
     c60:	b92b      	cbnz	r3, c6e <get_fileinfo+0x88>
     c62:	f500 5220 	add.w	r2, r0, #10240	; 0x2800
     c66:	b292      	uxth	r2, r2
     c68:	f5b2 6f00 	cmp.w	r2, #2048	; 0x800
     c6c:	d30c      	bcc.n	c88 <get_fileinfo+0xa2>
     c6e:	f106 011a 	add.w	r1, r6, #26
     c72:	f1c6 02ff 	rsb	r2, r6, #255	; 0xff
     c76:	4421      	add	r1, r4
     c78:	ea40 4003 	orr.w	r0, r0, r3, lsl #16
     c7c:	f7ff fa90 	bl	1a0 <put_utf>
     c80:	2800      	cmp	r0, #0
     c82:	d0c9      	beq.n	c18 <get_fileinfo+0x32>
     c84:	4406      	add	r6, r0
     c86:	2000      	movs	r0, #0
     c88:	4603      	mov	r3, r0
     c8a:	e7bf      	b.n	c0c <get_fileinfo+0x26>
     c8c:	2000      	movs	r0, #0
     c8e:	4601      	mov	r1, r0
     c90:	e7d2      	b.n	c38 <get_fileinfo+0x52>
     c92:	6cc3      	ldr	r3, [r0, #76]	; 0x4c
     c94:	3301      	adds	r3, #1
     c96:	d142      	bne.n	d1e <get_fileinfo+0x138>
     c98:	2200      	movs	r2, #0
     c9a:	f04f 0c2e 	mov.w	ip, #46	; 0x2e
     c9e:	4615      	mov	r5, r2
     ca0:	6bf9      	ldr	r1, [r7, #60]	; 0x3c
     ca2:	1e4f      	subs	r7, r1, #1
     ca4:	f817 3f01 	ldrb.w	r3, [r7, #1]!
     ca8:	3501      	adds	r5, #1
     caa:	2b20      	cmp	r3, #32
     cac:	d03e      	beq.n	d2c <get_fileinfo+0x146>
     cae:	2b05      	cmp	r3, #5
     cb0:	bf08      	it	eq
     cb2:	23e5      	moveq	r3, #229	; 0xe5
     cb4:	2d09      	cmp	r5, #9
     cb6:	f102 0001 	add.w	r0, r2, #1
     cba:	eb04 0602 	add.w	r6, r4, r2
     cbe:	d133      	bne.n	d28 <get_fileinfo+0x142>
     cc0:	2a0b      	cmp	r2, #11
     cc2:	bf9b      	ittet	ls
     cc4:	1900      	addls	r0, r0, r4
     cc6:	f886 c00d 	strbls.w	ip, [r6, #13]
     cca:	4602      	movhi	r2, r0
     ccc:	3202      	addls	r2, #2
     cce:	bf94      	ite	ls
     cd0:	7343      	strbls	r3, [r0, #13]
     cd2:	7373      	strbhi	r3, [r6, #13]
     cd4:	e7e6      	b.n	ca4 <get_fileinfo+0xbe>
     cd6:	f1b9 0f00 	cmp.w	r9, #0
     cda:	d105      	bne.n	ce8 <get_fileinfo+0x102>
     cdc:	f500 5320 	add.w	r3, r0, #10240	; 0x2800
     ce0:	b29b      	uxth	r3, r3
     ce2:	f5b3 6f00 	cmp.w	r3, #2048	; 0x800
     ce6:	d30b      	bcc.n	d00 <get_fileinfo+0x11a>
     ce8:	f105 011a 	add.w	r1, r5, #26
     cec:	f1c5 02ff 	rsb	r2, r5, #255	; 0xff
     cf0:	4421      	add	r1, r4
     cf2:	ea40 4009 	orr.w	r0, r0, r9, lsl #16
     cf6:	f7ff fa53 	bl	1a0 <put_utf>
     cfa:	b198      	cbz	r0, d24 <get_fileinfo+0x13e>
     cfc:	4405      	add	r5, r0
     cfe:	2000      	movs	r0, #0
     d00:	4681      	mov	r9, r0
     d02:	3602      	adds	r6, #2
     d04:	f8d8 300c 	ldr.w	r3, [r8, #12]
     d08:	5b98      	ldrh	r0, [r3, r6]
     d0a:	2800      	cmp	r0, #0
     d0c:	d1e3      	bne.n	cd6 <get_fileinfo+0xf0>
     d0e:	f1b9 0f00 	cmp.w	r9, #0
     d12:	bf18      	it	ne
     d14:	2500      	movne	r5, #0
     d16:	2300      	movs	r3, #0
     d18:	4425      	add	r5, r4
     d1a:	76ab      	strb	r3, [r5, #26]
     d1c:	e7bc      	b.n	c98 <get_fileinfo+0xb2>
     d1e:	462e      	mov	r6, r5
     d20:	46a9      	mov	r9, r5
     d22:	e7ef      	b.n	d04 <get_fileinfo+0x11e>
     d24:	4605      	mov	r5, r0
     d26:	e7f2      	b.n	d0e <get_fileinfo+0x128>
     d28:	4602      	mov	r2, r0
     d2a:	7373      	strb	r3, [r6, #13]
     d2c:	2d0b      	cmp	r5, #11
     d2e:	d1b9      	bne.n	ca4 <get_fileinfo+0xbe>
     d30:	2000      	movs	r0, #0
     d32:	18a3      	adds	r3, r4, r2
     d34:	7358      	strb	r0, [r3, #13]
     d36:	7ea3      	ldrb	r3, [r4, #26]
     d38:	b9eb      	cbnz	r3, d76 <get_fileinfo+0x190>
     d3a:	b19a      	cbz	r2, d64 <get_fileinfo+0x17e>
     d3c:	f104 000c 	add.w	r0, r4, #12
     d40:	f810 2f01 	ldrb.w	r2, [r0, #1]!
     d44:	b18a      	cbz	r2, d6a <get_fileinfo+0x184>
     d46:	f1a2 0541 	sub.w	r5, r2, #65	; 0x41
     d4a:	2d19      	cmp	r5, #25
     d4c:	d807      	bhi.n	d5e <get_fileinfo+0x178>
     d4e:	2b08      	cmp	r3, #8
     d50:	bf8c      	ite	hi
     d52:	2510      	movhi	r5, #16
     d54:	2508      	movls	r5, #8
     d56:	7b0e      	ldrb	r6, [r1, #12]
     d58:	422e      	tst	r6, r5
     d5a:	bf18      	it	ne
     d5c:	3220      	addne	r2, #32
     d5e:	7342      	strb	r2, [r0, #13]
     d60:	3301      	adds	r3, #1
     d62:	e7ed      	b.n	d40 <get_fileinfo+0x15a>
     d64:	233f      	movs	r3, #63	; 0x3f
     d66:	76a3      	strb	r3, [r4, #26]
     d68:	2301      	movs	r3, #1
     d6a:	2200      	movs	r2, #0
     d6c:	4423      	add	r3, r4
     d6e:	769a      	strb	r2, [r3, #26]
     d70:	7b0b      	ldrb	r3, [r1, #12]
     d72:	b903      	cbnz	r3, d76 <get_fileinfo+0x190>
     d74:	7363      	strb	r3, [r4, #13]
     d76:	7acb      	ldrb	r3, [r1, #11]
     d78:	f101 001c 	add.w	r0, r1, #28
     d7c:	7323      	strb	r3, [r4, #12]
     d7e:	f7ff f93f 	bl	0 <ld_dword>
     d82:	2300      	movs	r3, #0
     d84:	6020      	str	r0, [r4, #0]
     d86:	6063      	str	r3, [r4, #4]
     d88:	8acb      	ldrh	r3, [r1, #22]
     d8a:	8163      	strh	r3, [r4, #10]
     d8c:	8b0b      	ldrh	r3, [r1, #24]
     d8e:	e75a      	b.n	c46 <get_fileinfo+0x60>

00000d90 <create_chain>:
     d90:	e92d 47f0 	stmdb	sp!, {r4, r5, r6, r7, r8, r9, sl, lr}
     d94:	4607      	mov	r7, r0
     d96:	4688      	mov	r8, r1
     d98:	6805      	ldr	r5, [r0, #0]
     d9a:	2900      	cmp	r1, #0
     d9c:	d139      	bne.n	e12 <create_chain+0x82>
     d9e:	e9d5 6305 	ldrd	r6, r3, [r5, #20]
     da2:	2e00      	cmp	r6, #0
     da4:	d04a      	beq.n	e3c <create_chain+0xac>
     da6:	69ea      	ldr	r2, [r5, #28]
     da8:	42b2      	cmp	r2, r6
     daa:	d947      	bls.n	e3c <create_chain+0xac>
     dac:	b91b      	cbnz	r3, db6 <create_chain+0x26>
     dae:	2400      	movs	r4, #0
     db0:	4620      	mov	r0, r4
     db2:	e8bd 87f0 	ldmia.w	sp!, {r4, r5, r6, r7, r8, r9, sl, pc}
     db6:	782b      	ldrb	r3, [r5, #0]
     db8:	2b04      	cmp	r3, #4
     dba:	d145      	bne.n	e48 <create_chain+0xb8>
     dbc:	69eb      	ldr	r3, [r5, #28]
     dbe:	1eb4      	subs	r4, r6, #2
     dc0:	3b02      	subs	r3, #2
     dc2:	429c      	cmp	r4, r3
     dc4:	bf28      	it	cs
     dc6:	2400      	movcs	r4, #0
     dc8:	46a1      	mov	r9, r4
     dca:	f04f 0a01 	mov.w	sl, #1
     dce:	6b69      	ldr	r1, [r5, #52]	; 0x34
     dd0:	4628      	mov	r0, r5
     dd2:	eb01 3119 	add.w	r1, r1, r9, lsr #12
     dd6:	f7ff fa12 	bl	1fe <move_window>
     dda:	2800      	cmp	r0, #0
     ddc:	d17f      	bne.n	ede <create_chain+0x14e>
     dde:	69ea      	ldr	r2, [r5, #28]
     de0:	f009 0307 	and.w	r3, r9, #7
     de4:	fa0a f303 	lsl.w	r3, sl, r3
     de8:	f3c9 01c8 	ubfx	r1, r9, #3, #9
     dec:	b2db      	uxtb	r3, r3
     dee:	f1a2 0c02 	sub.w	ip, r2, #2
     df2:	186a      	adds	r2, r5, r1
     df4:	f892 003c 	ldrb.w	r0, [r2, #60]	; 0x3c
     df8:	f109 0201 	add.w	r2, r9, #1
     dfc:	4562      	cmp	r2, ip
     dfe:	ea00 0003 	and.w	r0, r0, r3
     e02:	d33a      	bcc.n	e7a <create_chain+0xea>
     e04:	2800      	cmp	r0, #0
     e06:	d039      	beq.n	e7c <create_chain+0xec>
     e08:	2c00      	cmp	r4, #0
     e0a:	d039      	beq.n	e80 <create_chain+0xf0>
     e0c:	2200      	movs	r2, #0
     e0e:	4691      	mov	r9, r2
     e10:	e7dd      	b.n	dce <create_chain+0x3e>
     e12:	f7ff fa4a 	bl	2aa <get_fat>
     e16:	2801      	cmp	r0, #1
     e18:	4604      	mov	r4, r0
     e1a:	d801      	bhi.n	e20 <create_chain+0x90>
     e1c:	2401      	movs	r4, #1
     e1e:	e7c7      	b.n	db0 <create_chain+0x20>
     e20:	1c42      	adds	r2, r0, #1
     e22:	f000 80b1 	beq.w	f88 <create_chain+0x1f8>
     e26:	69eb      	ldr	r3, [r5, #28]
     e28:	4283      	cmp	r3, r0
     e2a:	d8c1      	bhi.n	db0 <create_chain+0x20>
     e2c:	69aa      	ldr	r2, [r5, #24]
     e2e:	2a00      	cmp	r2, #0
     e30:	d0bd      	beq.n	dae <create_chain+0x1e>
     e32:	782a      	ldrb	r2, [r5, #0]
     e34:	2a04      	cmp	r2, #4
     e36:	d179      	bne.n	f2c <create_chain+0x19c>
     e38:	4646      	mov	r6, r8
     e3a:	e7bf      	b.n	dbc <create_chain+0x2c>
     e3c:	2b00      	cmp	r3, #0
     e3e:	d0b6      	beq.n	dae <create_chain+0x1e>
     e40:	782b      	ldrb	r3, [r5, #0]
     e42:	2b04      	cmp	r3, #4
     e44:	d016      	beq.n	e74 <create_chain+0xe4>
     e46:	2601      	movs	r6, #1
     e48:	4634      	mov	r4, r6
     e4a:	69eb      	ldr	r3, [r5, #28]
     e4c:	3401      	adds	r4, #1
     e4e:	42a3      	cmp	r3, r4
     e50:	d802      	bhi.n	e58 <create_chain+0xc8>
     e52:	2e01      	cmp	r6, #1
     e54:	d0ab      	beq.n	dae <create_chain+0x1e>
     e56:	2402      	movs	r4, #2
     e58:	4621      	mov	r1, r4
     e5a:	4638      	mov	r0, r7
     e5c:	f7ff fa25 	bl	2aa <get_fat>
     e60:	2800      	cmp	r0, #0
     e62:	d07d      	beq.n	f60 <create_chain+0x1d0>
     e64:	2801      	cmp	r0, #1
     e66:	d0d9      	beq.n	e1c <create_chain+0x8c>
     e68:	3001      	adds	r0, #1
     e6a:	f000 808d 	beq.w	f88 <create_chain+0x1f8>
     e6e:	42b4      	cmp	r4, r6
     e70:	d1eb      	bne.n	e4a <create_chain+0xba>
     e72:	e79c      	b.n	dae <create_chain+0x1e>
     e74:	2400      	movs	r4, #0
     e76:	2601      	movs	r6, #1
     e78:	e7a6      	b.n	dc8 <create_chain+0x38>
     e7a:	bb18      	cbnz	r0, ec4 <create_chain+0x134>
     e7c:	f109 0402 	add.w	r4, r9, #2
     e80:	1e63      	subs	r3, r4, #1
     e82:	3303      	adds	r3, #3
     e84:	d894      	bhi.n	db0 <create_chain+0x20>
     e86:	2301      	movs	r3, #1
     e88:	4621      	mov	r1, r4
     e8a:	461a      	mov	r2, r3
     e8c:	4628      	mov	r0, r5
     e8e:	f7ff f9cf 	bl	230 <change_bitmap>
     e92:	2802      	cmp	r0, #2
     e94:	d0c2      	beq.n	e1c <create_chain+0x8c>
     e96:	2801      	cmp	r0, #1
     e98:	d076      	beq.n	f88 <create_chain+0x1f8>
     e9a:	f1b8 0f00 	cmp.w	r8, #0
     e9e:	d123      	bne.n	ee8 <create_chain+0x158>
     ea0:	2302      	movs	r3, #2
     ea2:	71fb      	strb	r3, [r7, #7]
     ea4:	2800      	cmp	r0, #0
     ea6:	d1b9      	bne.n	e1c <create_chain+0x8c>
     ea8:	e9d5 3206 	ldrd	r3, r2, [r5, #24]
     eac:	3a02      	subs	r2, #2
     eae:	4293      	cmp	r3, r2
     eb0:	bf9c      	itt	ls
     eb2:	f103 33ff 	addls.w	r3, r3, #4294967295	; 0xffffffff
     eb6:	61ab      	strls	r3, [r5, #24]
     eb8:	792b      	ldrb	r3, [r5, #4]
     eba:	616c      	str	r4, [r5, #20]
     ebc:	f043 0301 	orr.w	r3, r3, #1
     ec0:	712b      	strb	r3, [r5, #4]
     ec2:	e775      	b.n	db0 <create_chain+0x20>
     ec4:	42a2      	cmp	r2, r4
     ec6:	d00d      	beq.n	ee4 <create_chain+0x154>
     ec8:	005b      	lsls	r3, r3, #1
     eca:	f013 03ff 	ands.w	r3, r3, #255	; 0xff
     ece:	d104      	bne.n	eda <create_chain+0x14a>
     ed0:	3101      	adds	r1, #1
     ed2:	f5b1 7f00 	cmp.w	r1, #512	; 0x200
     ed6:	d09a      	beq.n	e0e <create_chain+0x7e>
     ed8:	2301      	movs	r3, #1
     eda:	4691      	mov	r9, r2
     edc:	e789      	b.n	df2 <create_chain+0x62>
     ede:	f04f 34ff 	mov.w	r4, #4294967295	; 0xffffffff
     ee2:	e7cd      	b.n	e80 <create_chain+0xf0>
     ee4:	2400      	movs	r4, #0
     ee6:	e7cb      	b.n	e80 <create_chain+0xf0>
     ee8:	79fb      	ldrb	r3, [r7, #7]
     eea:	2b02      	cmp	r3, #2
     eec:	d107      	bne.n	efe <create_chain+0x16e>
     eee:	1c73      	adds	r3, r6, #1
     ef0:	42a3      	cmp	r3, r4
     ef2:	d0d7      	beq.n	ea4 <create_chain+0x114>
     ef4:	68bb      	ldr	r3, [r7, #8]
     ef6:	1af3      	subs	r3, r6, r3
     ef8:	61bb      	str	r3, [r7, #24]
     efa:	2303      	movs	r3, #3
     efc:	71fb      	strb	r3, [r7, #7]
     efe:	f108 0201 	add.w	r2, r8, #1
     f02:	42a2      	cmp	r2, r4
     f04:	69fb      	ldr	r3, [r7, #28]
     f06:	d00b      	beq.n	f20 <create_chain+0x190>
     f08:	b90b      	cbnz	r3, f0e <create_chain+0x17e>
     f0a:	2301      	movs	r3, #1
     f0c:	61fb      	str	r3, [r7, #28]
     f0e:	4622      	mov	r2, r4
     f10:	4641      	mov	r1, r8
     f12:	4638      	mov	r0, r7
     f14:	f7ff fd44 	bl	9a0 <fill_last_frag>
     f18:	bb98      	cbnz	r0, f82 <create_chain+0x1f2>
     f1a:	2301      	movs	r3, #1
     f1c:	61fb      	str	r3, [r7, #28]
     f1e:	e7c3      	b.n	ea8 <create_chain+0x118>
     f20:	b113      	cbz	r3, f28 <create_chain+0x198>
     f22:	3301      	adds	r3, #1
     f24:	61fb      	str	r3, [r7, #28]
     f26:	e7bd      	b.n	ea4 <create_chain+0x114>
     f28:	2302      	movs	r3, #2
     f2a:	e7fb      	b.n	f24 <create_chain+0x194>
     f2c:	f108 0401 	add.w	r4, r8, #1
     f30:	42a3      	cmp	r3, r4
     f32:	bf98      	it	ls
     f34:	2402      	movls	r4, #2
     f36:	4638      	mov	r0, r7
     f38:	4621      	mov	r1, r4
     f3a:	f7ff f9b6 	bl	2aa <get_fat>
     f3e:	2801      	cmp	r0, #1
     f40:	f43f af6c 	beq.w	e1c <create_chain+0x8c>
     f44:	1c43      	adds	r3, r0, #1
     f46:	d01f      	beq.n	f88 <create_chain+0x1f8>
     f48:	b138      	cbz	r0, f5a <create_chain+0x1ca>
     f4a:	696e      	ldr	r6, [r5, #20]
     f4c:	2e01      	cmp	r6, #1
     f4e:	d905      	bls.n	f5c <create_chain+0x1cc>
     f50:	69eb      	ldr	r3, [r5, #28]
     f52:	429e      	cmp	r6, r3
     f54:	bf28      	it	cs
     f56:	4646      	movcs	r6, r8
     f58:	e776      	b.n	e48 <create_chain+0xb8>
     f5a:	b90c      	cbnz	r4, f60 <create_chain+0x1d0>
     f5c:	4646      	mov	r6, r8
     f5e:	e773      	b.n	e48 <create_chain+0xb8>
     f60:	f04f 32ff 	mov.w	r2, #4294967295	; 0xffffffff
     f64:	4621      	mov	r1, r4
     f66:	4628      	mov	r0, r5
     f68:	f7ff fc9c 	bl	8a4 <put_fat>
     f6c:	b948      	cbnz	r0, f82 <create_chain+0x1f2>
     f6e:	f1b8 0f00 	cmp.w	r8, #0
     f72:	d099      	beq.n	ea8 <create_chain+0x118>
     f74:	4622      	mov	r2, r4
     f76:	4641      	mov	r1, r8
     f78:	4628      	mov	r0, r5
     f7a:	f7ff fc93 	bl	8a4 <put_fat>
     f7e:	2800      	cmp	r0, #0
     f80:	d092      	beq.n	ea8 <create_chain+0x118>
     f82:	2801      	cmp	r0, #1
     f84:	f47f af4a 	bne.w	e1c <create_chain+0x8c>
     f88:	f04f 34ff 	mov.w	r4, #4294967295	; 0xffffffff
     f8c:	e710      	b.n	db0 <create_chain+0x20>

00000f8e <dir_next>:
     f8e:	e92d 43f8 	stmdb	sp!, {r3, r4, r5, r6, r7, r8, r9, lr}
     f92:	6806      	ldr	r6, [r0, #0]
     f94:	6b07      	ldr	r7, [r0, #48]	; 0x30
     f96:	7833      	ldrb	r3, [r6, #0]
     f98:	3720      	adds	r7, #32
     f9a:	2b04      	cmp	r3, #4
     f9c:	bf14      	ite	ne
     f9e:	f44f 1300 	movne.w	r3, #2097152	; 0x200000
     fa2:	f04f 5380 	moveq.w	r3, #268435456	; 0x10000000
     fa6:	42bb      	cmp	r3, r7
     fa8:	bf9c      	itt	ls
     faa:	2300      	movls	r3, #0
     fac:	6383      	strls	r3, [r0, #56]	; 0x38
     fae:	6b83      	ldr	r3, [r0, #56]	; 0x38
     fb0:	4604      	mov	r4, r0
     fb2:	4689      	mov	r9, r1
     fb4:	b173      	cbz	r3, fd4 <dir_next+0x46>
     fb6:	f3c7 0808 	ubfx	r8, r7, #0, #9
     fba:	f1b8 0f00 	cmp.w	r8, #0
     fbe:	d13c      	bne.n	103a <dir_next+0xac>
     fc0:	6b41      	ldr	r1, [r0, #52]	; 0x34
     fc2:	3301      	adds	r3, #1
     fc4:	6383      	str	r3, [r0, #56]	; 0x38
     fc6:	b941      	cbnz	r1, fda <dir_next+0x4c>
     fc8:	8933      	ldrh	r3, [r6, #8]
     fca:	ebb3 1f57 	cmp.w	r3, r7, lsr #5
     fce:	d834      	bhi.n	103a <dir_next+0xac>
     fd0:	2300      	movs	r3, #0
     fd2:	63a3      	str	r3, [r4, #56]	; 0x38
     fd4:	2004      	movs	r0, #4
     fd6:	e8bd 83f8 	ldmia.w	sp!, {r3, r4, r5, r6, r7, r8, r9, pc}
     fda:	8973      	ldrh	r3, [r6, #10]
     fdc:	3b01      	subs	r3, #1
     fde:	ea13 2357 	ands.w	r3, r3, r7, lsr #9
     fe2:	d12a      	bne.n	103a <dir_next+0xac>
     fe4:	f7ff f961 	bl	2aa <get_fat>
     fe8:	2801      	cmp	r0, #1
     fea:	4605      	mov	r5, r0
     fec:	d801      	bhi.n	ff2 <dir_next+0x64>
     fee:	2002      	movs	r0, #2
     ff0:	e7f1      	b.n	fd6 <dir_next+0x48>
     ff2:	1c42      	adds	r2, r0, #1
     ff4:	d101      	bne.n	ffa <dir_next+0x6c>
     ff6:	2001      	movs	r0, #1
     ff8:	e7ed      	b.n	fd6 <dir_next+0x48>
     ffa:	69f3      	ldr	r3, [r6, #28]
     ffc:	4283      	cmp	r3, r0
     ffe:	d816      	bhi.n	102e <dir_next+0xa0>
    1000:	f1b9 0f00 	cmp.w	r9, #0
    1004:	d0e4      	beq.n	fd0 <dir_next+0x42>
    1006:	4620      	mov	r0, r4
    1008:	6b61      	ldr	r1, [r4, #52]	; 0x34
    100a:	f7ff fec1 	bl	d90 <create_chain>
    100e:	4605      	mov	r5, r0
    1010:	b1c8      	cbz	r0, 1046 <dir_next+0xb8>
    1012:	2801      	cmp	r0, #1
    1014:	d0eb      	beq.n	fee <dir_next+0x60>
    1016:	1c43      	adds	r3, r0, #1
    1018:	d0ed      	beq.n	ff6 <dir_next+0x68>
    101a:	4601      	mov	r1, r0
    101c:	4630      	mov	r0, r6
    101e:	f7ff fd6e 	bl	afe <dir_clear>
    1022:	2800      	cmp	r0, #0
    1024:	d1e7      	bne.n	ff6 <dir_next+0x68>
    1026:	79e3      	ldrb	r3, [r4, #7]
    1028:	f043 0304 	orr.w	r3, r3, #4
    102c:	71e3      	strb	r3, [r4, #7]
    102e:	4629      	mov	r1, r5
    1030:	4630      	mov	r0, r6
    1032:	6365      	str	r5, [r4, #52]	; 0x34
    1034:	f7ff f815 	bl	62 <clst2sect>
    1038:	63a0      	str	r0, [r4, #56]	; 0x38
    103a:	363c      	adds	r6, #60	; 0x3c
    103c:	4446      	add	r6, r8
    103e:	2000      	movs	r0, #0
    1040:	6327      	str	r7, [r4, #48]	; 0x30
    1042:	63e6      	str	r6, [r4, #60]	; 0x3c
    1044:	e7c7      	b.n	fd6 <dir_next+0x48>
    1046:	2007      	movs	r0, #7
    1048:	e7c5      	b.n	fd6 <dir_next+0x48>

0000104a <load_xdir>:
    104a:	e92d 41f0 	stmdb	sp!, {r4, r5, r6, r7, r8, lr}
    104e:	4605      	mov	r5, r0
    1050:	6800      	ldr	r0, [r0, #0]
    1052:	6ba9      	ldr	r1, [r5, #56]	; 0x38
    1054:	6906      	ldr	r6, [r0, #16]
    1056:	f7ff f8d2 	bl	1fe <move_window>
    105a:	4604      	mov	r4, r0
    105c:	b920      	cbnz	r0, 1068 <load_xdir+0x1e>
    105e:	6be9      	ldr	r1, [r5, #60]	; 0x3c
    1060:	780b      	ldrb	r3, [r1, #0]
    1062:	2b85      	cmp	r3, #133	; 0x85
    1064:	d003      	beq.n	106e <load_xdir+0x24>
    1066:	2402      	movs	r4, #2
    1068:	4620      	mov	r0, r4
    106a:	e8bd 81f0 	ldmia.w	sp!, {r4, r5, r6, r7, r8, pc}
    106e:	2220      	movs	r2, #32
    1070:	4630      	mov	r0, r6
    1072:	f7ff f8af 	bl	1d4 <mem_cpy.part.0>
    1076:	7877      	ldrb	r7, [r6, #1]
    1078:	3701      	adds	r7, #1
    107a:	017f      	lsls	r7, r7, #5
    107c:	f1a7 0360 	sub.w	r3, r7, #96	; 0x60
    1080:	f5b3 7f00 	cmp.w	r3, #512	; 0x200
    1084:	d8ef      	bhi.n	1066 <load_xdir+0x1c>
    1086:	4621      	mov	r1, r4
    1088:	4628      	mov	r0, r5
    108a:	f7ff ff80 	bl	f8e <dir_next>
    108e:	2804      	cmp	r0, #4
    1090:	4604      	mov	r4, r0
    1092:	d0e8      	beq.n	1066 <load_xdir+0x1c>
    1094:	2800      	cmp	r0, #0
    1096:	d1e7      	bne.n	1068 <load_xdir+0x1e>
    1098:	6ba9      	ldr	r1, [r5, #56]	; 0x38
    109a:	6828      	ldr	r0, [r5, #0]
    109c:	f7ff f8af 	bl	1fe <move_window>
    10a0:	4604      	mov	r4, r0
    10a2:	2800      	cmp	r0, #0
    10a4:	d1e0      	bne.n	1068 <load_xdir+0x1e>
    10a6:	6be9      	ldr	r1, [r5, #60]	; 0x3c
    10a8:	780b      	ldrb	r3, [r1, #0]
    10aa:	2bc0      	cmp	r3, #192	; 0xc0
    10ac:	d1db      	bne.n	1066 <load_xdir+0x1c>
    10ae:	2220      	movs	r2, #32
    10b0:	18b0      	adds	r0, r6, r2
    10b2:	f7ff f88f 	bl	1d4 <mem_cpy.part.0>
    10b6:	220f      	movs	r2, #15
    10b8:	f896 3023 	ldrb.w	r3, [r6, #35]	; 0x23
    10bc:	332c      	adds	r3, #44	; 0x2c
    10be:	fbb3 f3f2 	udiv	r3, r3, r2
    10c2:	ebb7 1f43 	cmp.w	r7, r3, lsl #5
    10c6:	d3ce      	bcc.n	1066 <load_xdir+0x1c>
    10c8:	f04f 0840 	mov.w	r8, #64	; 0x40
    10cc:	2100      	movs	r1, #0
    10ce:	4628      	mov	r0, r5
    10d0:	f7ff ff5d 	bl	f8e <dir_next>
    10d4:	2804      	cmp	r0, #4
    10d6:	4604      	mov	r4, r0
    10d8:	d0c5      	beq.n	1066 <load_xdir+0x1c>
    10da:	2800      	cmp	r0, #0
    10dc:	d1c4      	bne.n	1068 <load_xdir+0x1e>
    10de:	6ba9      	ldr	r1, [r5, #56]	; 0x38
    10e0:	6828      	ldr	r0, [r5, #0]
    10e2:	f7ff f88c 	bl	1fe <move_window>
    10e6:	4604      	mov	r4, r0
    10e8:	2800      	cmp	r0, #0
    10ea:	d1bd      	bne.n	1068 <load_xdir+0x1e>
    10ec:	6be9      	ldr	r1, [r5, #60]	; 0x3c
    10ee:	780b      	ldrb	r3, [r1, #0]
    10f0:	2bc1      	cmp	r3, #193	; 0xc1
    10f2:	d1b8      	bne.n	1066 <load_xdir+0x1c>
    10f4:	eb06 0008 	add.w	r0, r6, r8
    10f8:	2220      	movs	r2, #32
    10fa:	f108 0820 	add.w	r8, r8, #32
    10fe:	f7ff f869 	bl	1d4 <mem_cpy.part.0>
    1102:	4547      	cmp	r7, r8
    1104:	d8e2      	bhi.n	10cc <load_xdir+0x82>
    1106:	4630      	mov	r0, r6
    1108:	f7fe ffc5 	bl	96 <xdir_sum>
    110c:	8874      	ldrh	r4, [r6, #2]
    110e:	1a24      	subs	r4, r4, r0
    1110:	bf18      	it	ne
    1112:	2401      	movne	r4, #1
    1114:	0064      	lsls	r4, r4, #1
    1116:	e7a7      	b.n	1068 <load_xdir+0x1e>

00001118 <dir_alloc>:
    1118:	b5f8      	push	{r3, r4, r5, r6, r7, lr}
    111a:	460e      	mov	r6, r1
    111c:	2100      	movs	r1, #0
    111e:	4604      	mov	r4, r0
    1120:	6807      	ldr	r7, [r0, #0]
    1122:	f7ff f957 	bl	3d4 <dir_sdi>
    1126:	b998      	cbnz	r0, 1150 <dir_alloc+0x38>
    1128:	4605      	mov	r5, r0
    112a:	4638      	mov	r0, r7
    112c:	6ba1      	ldr	r1, [r4, #56]	; 0x38
    112e:	f7ff f866 	bl	1fe <move_window>
    1132:	b968      	cbnz	r0, 1150 <dir_alloc+0x38>
    1134:	783a      	ldrb	r2, [r7, #0]
    1136:	6be3      	ldr	r3, [r4, #60]	; 0x3c
    1138:	2a04      	cmp	r2, #4
    113a:	781b      	ldrb	r3, [r3, #0]
    113c:	d10c      	bne.n	1158 <dir_alloc+0x40>
    113e:	061b      	lsls	r3, r3, #24
    1140:	d50e      	bpl.n	1160 <dir_alloc+0x48>
    1142:	4605      	mov	r5, r0
    1144:	2101      	movs	r1, #1
    1146:	4620      	mov	r0, r4
    1148:	f7ff ff21 	bl	f8e <dir_next>
    114c:	2800      	cmp	r0, #0
    114e:	d0ec      	beq.n	112a <dir_alloc+0x12>
    1150:	2804      	cmp	r0, #4
    1152:	bf08      	it	eq
    1154:	2007      	moveq	r0, #7
    1156:	e006      	b.n	1166 <dir_alloc+0x4e>
    1158:	2be5      	cmp	r3, #229	; 0xe5
    115a:	d001      	beq.n	1160 <dir_alloc+0x48>
    115c:	2b00      	cmp	r3, #0
    115e:	d1f0      	bne.n	1142 <dir_alloc+0x2a>
    1160:	3501      	adds	r5, #1
    1162:	42b5      	cmp	r5, r6
    1164:	d1ee      	bne.n	1144 <dir_alloc+0x2c>
    1166:	bdf8      	pop	{r3, r4, r5, r6, r7, pc}

00001168 <store_xdir>:
    1168:	6803      	ldr	r3, [r0, #0]
    116a:	e92d 41f0 	stmdb	sp!, {r4, r5, r6, r7, r8, lr}
    116e:	691e      	ldr	r6, [r3, #16]
    1170:	4605      	mov	r5, r0
    1172:	4630      	mov	r0, r6
    1174:	f7fe ff8f 	bl	96 <xdir_sum>
    1178:	70b0      	strb	r0, [r6, #2]
    117a:	0a00      	lsrs	r0, r0, #8
    117c:	70f0      	strb	r0, [r6, #3]
    117e:	6ce9      	ldr	r1, [r5, #76]	; 0x4c
    1180:	4628      	mov	r0, r5
    1182:	7877      	ldrb	r7, [r6, #1]
    1184:	f7ff f926 	bl	3d4 <dir_sdi>
    1188:	f04f 0801 	mov.w	r8, #1
    118c:	4604      	mov	r4, r0
    118e:	b12c      	cbz	r4, 119c <store_xdir+0x34>
    1190:	2c02      	cmp	r4, #2
    1192:	bf28      	it	cs
    1194:	2402      	movcs	r4, #2
    1196:	b2e0      	uxtb	r0, r4
    1198:	e8bd 81f0 	ldmia.w	sp!, {r4, r5, r6, r7, r8, pc}
    119c:	6ba9      	ldr	r1, [r5, #56]	; 0x38
    119e:	6828      	ldr	r0, [r5, #0]
    11a0:	f7ff f82d 	bl	1fe <move_window>
    11a4:	4604      	mov	r4, r0
    11a6:	2800      	cmp	r0, #0
    11a8:	d1f2      	bne.n	1190 <store_xdir+0x28>
    11aa:	2220      	movs	r2, #32
    11ac:	4631      	mov	r1, r6
    11ae:	6be8      	ldr	r0, [r5, #60]	; 0x3c
    11b0:	f7ff f810 	bl	1d4 <mem_cpy.part.0>
    11b4:	682b      	ldr	r3, [r5, #0]
    11b6:	f883 8003 	strb.w	r8, [r3, #3]
    11ba:	2f00      	cmp	r7, #0
    11bc:	d0e8      	beq.n	1190 <store_xdir+0x28>
    11be:	4621      	mov	r1, r4
    11c0:	4628      	mov	r0, r5
    11c2:	f7ff fee4 	bl	f8e <dir_next>
    11c6:	3620      	adds	r6, #32
    11c8:	4604      	mov	r4, r0
    11ca:	3f01      	subs	r7, #1
    11cc:	e7df      	b.n	118e <store_xdir+0x26>

000011ce <dir_remove>:
    11ce:	6cc1      	ldr	r1, [r0, #76]	; 0x4c
    11d0:	b5f8      	push	{r3, r4, r5, r6, r7, lr}
    11d2:	1c4b      	adds	r3, r1, #1
    11d4:	4604      	mov	r4, r0
    11d6:	6805      	ldr	r5, [r0, #0]
    11d8:	6b06      	ldr	r6, [r0, #48]	; 0x30
    11da:	d11c      	bne.n	1216 <dir_remove+0x48>
    11dc:	2701      	movs	r7, #1
    11de:	4628      	mov	r0, r5
    11e0:	6ba1      	ldr	r1, [r4, #56]	; 0x38
    11e2:	f7ff f80c 	bl	1fe <move_window>
    11e6:	b990      	cbnz	r0, 120e <dir_remove+0x40>
    11e8:	782b      	ldrb	r3, [r5, #0]
    11ea:	6be2      	ldr	r2, [r4, #60]	; 0x3c
    11ec:	2b04      	cmp	r3, #4
    11ee:	bf12      	itee	ne
    11f0:	23e5      	movne	r3, #229	; 0xe5
    11f2:	7813      	ldrbeq	r3, [r2, #0]
    11f4:	f003 037f 	andeq.w	r3, r3, #127	; 0x7f
    11f8:	7013      	strb	r3, [r2, #0]
    11fa:	70ef      	strb	r7, [r5, #3]
    11fc:	6b23      	ldr	r3, [r4, #48]	; 0x30
    11fe:	42b3      	cmp	r3, r6
    1200:	d20d      	bcs.n	121e <dir_remove+0x50>
    1202:	2100      	movs	r1, #0
    1204:	4620      	mov	r0, r4
    1206:	f7ff fec2 	bl	f8e <dir_next>
    120a:	2800      	cmp	r0, #0
    120c:	d0e7      	beq.n	11de <dir_remove+0x10>
    120e:	2804      	cmp	r0, #4
    1210:	bf08      	it	eq
    1212:	2002      	moveq	r0, #2
    1214:	e003      	b.n	121e <dir_remove+0x50>
    1216:	f7ff f8dd 	bl	3d4 <dir_sdi>
    121a:	2800      	cmp	r0, #0
    121c:	d0de      	beq.n	11dc <dir_remove+0xe>
    121e:	bdf8      	pop	{r3, r4, r5, r6, r7, pc}

00001220 <dir_read.constprop.0>:
    1220:	e92d 43f8 	stmdb	sp!, {r3, r4, r5, r6, r7, r8, r9, lr}
    1224:	27ff      	movs	r7, #255	; 0xff
    1226:	4604      	mov	r4, r0
    1228:	6806      	ldr	r6, [r0, #0]
    122a:	463d      	mov	r5, r7
    122c:	2004      	movs	r0, #4
    122e:	6ba1      	ldr	r1, [r4, #56]	; 0x38
    1230:	b911      	cbnz	r1, 1238 <dir_read.constprop.0+0x18>
    1232:	b1d8      	cbz	r0, 126c <dir_read.constprop.0+0x4c>
    1234:	2004      	movs	r0, #4
    1236:	e063      	b.n	1300 <dir_read.constprop.0+0xe0>
    1238:	4630      	mov	r0, r6
    123a:	f7fe ffe0 	bl	1fe <move_window>
    123e:	2800      	cmp	r0, #0
    1240:	d15e      	bne.n	1300 <dir_read.constprop.0+0xe0>
    1242:	6be0      	ldr	r0, [r4, #60]	; 0x3c
    1244:	7803      	ldrb	r3, [r0, #0]
    1246:	2b00      	cmp	r3, #0
    1248:	d0f4      	beq.n	1234 <dir_read.constprop.0+0x14>
    124a:	7832      	ldrb	r2, [r6, #0]
    124c:	2a04      	cmp	r2, #4
    124e:	d110      	bne.n	1272 <dir_read.constprop.0+0x52>
    1250:	2b85      	cmp	r3, #133	; 0x85
    1252:	d14f      	bne.n	12f4 <dir_read.constprop.0+0xd4>
    1254:	6b23      	ldr	r3, [r4, #48]	; 0x30
    1256:	4620      	mov	r0, r4
    1258:	64e3      	str	r3, [r4, #76]	; 0x4c
    125a:	f7ff fef6 	bl	104a <load_xdir>
    125e:	2800      	cmp	r0, #0
    1260:	d14e      	bne.n	1300 <dir_read.constprop.0+0xe0>
    1262:	6933      	ldr	r3, [r6, #16]
    1264:	791b      	ldrb	r3, [r3, #4]
    1266:	f003 033f 	and.w	r3, r3, #63	; 0x3f
    126a:	71a3      	strb	r3, [r4, #6]
    126c:	2000      	movs	r0, #0
    126e:	e8bd 83f8 	ldmia.w	sp!, {r3, r4, r5, r6, r7, r8, r9, pc}
    1272:	7ac2      	ldrb	r2, [r0, #11]
    1274:	2be5      	cmp	r3, #229	; 0xe5
    1276:	f002 023f 	and.w	r2, r2, #63	; 0x3f
    127a:	71a2      	strb	r2, [r4, #6]
    127c:	d045      	beq.n	130a <dir_read.constprop.0+0xea>
    127e:	2b2e      	cmp	r3, #46	; 0x2e
    1280:	d043      	beq.n	130a <dir_read.constprop.0+0xea>
    1282:	f022 0120 	bic.w	r1, r2, #32
    1286:	2908      	cmp	r1, #8
    1288:	d03f      	beq.n	130a <dir_read.constprop.0+0xea>
    128a:	2a0f      	cmp	r2, #15
    128c:	d142      	bne.n	1314 <dir_read.constprop.0+0xf4>
    128e:	0659      	lsls	r1, r3, #25
    1290:	d539      	bpl.n	1306 <dir_read.constprop.0+0xe6>
    1292:	f003 05bf 	and.w	r5, r3, #191	; 0xbf
    1296:	6b23      	ldr	r3, [r4, #48]	; 0x30
    1298:	7b47      	ldrb	r7, [r0, #13]
    129a:	64e3      	str	r3, [r4, #76]	; 0x4c
    129c:	7b43      	ldrb	r3, [r0, #13]
    129e:	42bb      	cmp	r3, r7
    12a0:	d133      	bne.n	130a <dir_read.constprop.0+0xea>
    12a2:	8b42      	ldrh	r2, [r0, #26]
    12a4:	bb8a      	cbnz	r2, 130a <dir_read.constprop.0+0xea>
    12a6:	210d      	movs	r1, #13
    12a8:	f04f 0e01 	mov.w	lr, #1
    12ac:	f64f 79ff 	movw	r9, #65535	; 0xffff
    12b0:	7803      	ldrb	r3, [r0, #0]
    12b2:	f8d6 c00c 	ldr.w	ip, [r6, #12]
    12b6:	f023 0340 	bic.w	r3, r3, #64	; 0x40
    12ba:	3b01      	subs	r3, #1
    12bc:	434b      	muls	r3, r1
    12be:	f8df 8068 	ldr.w	r8, [pc, #104]	; 1328 <dir_read.constprop.0+0x108>
    12c2:	f818 1b01 	ldrb.w	r1, [r8], #1
    12c6:	5a41      	ldrh	r1, [r0, r1]
    12c8:	f1be 0f00 	cmp.w	lr, #0
    12cc:	d01f      	beq.n	130e <dir_read.constprop.0+0xee>
    12ce:	2bfe      	cmp	r3, #254	; 0xfe
    12d0:	d81b      	bhi.n	130a <dir_read.constprop.0+0xea>
    12d2:	468e      	mov	lr, r1
    12d4:	f82c 1013 	strh.w	r1, [ip, r3, lsl #1]
    12d8:	3301      	adds	r3, #1
    12da:	3201      	adds	r2, #1
    12dc:	2a0d      	cmp	r2, #13
    12de:	d1f0      	bne.n	12c2 <dir_read.constprop.0+0xa2>
    12e0:	7802      	ldrb	r2, [r0, #0]
    12e2:	0652      	lsls	r2, r2, #25
    12e4:	d504      	bpl.n	12f0 <dir_read.constprop.0+0xd0>
    12e6:	2bfe      	cmp	r3, #254	; 0xfe
    12e8:	d80f      	bhi.n	130a <dir_read.constprop.0+0xea>
    12ea:	2200      	movs	r2, #0
    12ec:	f82c 2013 	strh.w	r2, [ip, r3, lsl #1]
    12f0:	3d01      	subs	r5, #1
    12f2:	b2ed      	uxtb	r5, r5
    12f4:	2100      	movs	r1, #0
    12f6:	4620      	mov	r0, r4
    12f8:	f7ff fe49 	bl	f8e <dir_next>
    12fc:	2800      	cmp	r0, #0
    12fe:	d096      	beq.n	122e <dir_read.constprop.0+0xe>
    1300:	2300      	movs	r3, #0
    1302:	63a3      	str	r3, [r4, #56]	; 0x38
    1304:	e7b3      	b.n	126e <dir_read.constprop.0+0x4e>
    1306:	42ab      	cmp	r3, r5
    1308:	d0c8      	beq.n	129c <dir_read.constprop.0+0x7c>
    130a:	25ff      	movs	r5, #255	; 0xff
    130c:	e7f2      	b.n	12f4 <dir_read.constprop.0+0xd4>
    130e:	4549      	cmp	r1, r9
    1310:	d0e3      	beq.n	12da <dir_read.constprop.0+0xba>
    1312:	e7fa      	b.n	130a <dir_read.constprop.0+0xea>
    1314:	b91d      	cbnz	r5, 131e <dir_read.constprop.0+0xfe>
    1316:	f7fe feaf 	bl	78 <sum_sfn>
    131a:	42b8      	cmp	r0, r7
    131c:	d0a6      	beq.n	126c <dir_read.constprop.0+0x4c>
    131e:	f04f 33ff 	mov.w	r3, #4294967295	; 0xffffffff
    1322:	64e3      	str	r3, [r4, #76]	; 0x4c
    1324:	e7a2      	b.n	126c <dir_read.constprop.0+0x4c>
    1326:	bf00      	nop
    1328:	00000000 	.word	0x00000000

0000132c <dir_find>:
    132c:	e92d 4ff0 	stmdb	sp!, {r4, r5, r6, r7, r8, r9, sl, fp, lr}
    1330:	2100      	movs	r1, #0
    1332:	b087      	sub	sp, #28
    1334:	4604      	mov	r4, r0
    1336:	f8d0 9000 	ldr.w	r9, [r0]
    133a:	f7ff f84b 	bl	3d4 <dir_sdi>
    133e:	4680      	mov	r8, r0
    1340:	bb00      	cbnz	r0, 1384 <dir_find+0x58>
    1342:	f899 3000 	ldrb.w	r3, [r9]
    1346:	2b04      	cmp	r3, #4
    1348:	d13d      	bne.n	13c6 <dir_find+0x9a>
    134a:	f8d9 000c 	ldr.w	r0, [r9, #12]
    134e:	f7fe ff0f 	bl	170 <xname_sum>
    1352:	4607      	mov	r7, r0
    1354:	4620      	mov	r0, r4
    1356:	f7ff ff63 	bl	1220 <dir_read.constprop.0>
    135a:	4605      	mov	r5, r0
    135c:	b108      	cbz	r0, 1362 <dir_find+0x36>
    135e:	4680      	mov	r8, r0
    1360:	e010      	b.n	1384 <dir_find+0x58>
    1362:	f8d9 3010 	ldr.w	r3, [r9, #16]
    1366:	8c9a      	ldrh	r2, [r3, #36]	; 0x24
    1368:	42ba      	cmp	r2, r7
    136a:	d1f3      	bne.n	1354 <dir_find+0x28>
    136c:	f04f 0a40 	mov.w	sl, #64	; 0x40
    1370:	f893 6023 	ldrb.w	r6, [r3, #35]	; 0x23
    1374:	42b5      	cmp	r5, r6
    1376:	d109      	bne.n	138c <dir_find+0x60>
    1378:	f8d9 300c 	ldr.w	r3, [r9, #12]
    137c:	f833 3015 	ldrh.w	r3, [r3, r5, lsl #1]
    1380:	2b00      	cmp	r3, #0
    1382:	d1e7      	bne.n	1354 <dir_find+0x28>
    1384:	4640      	mov	r0, r8
    1386:	b007      	add	sp, #28
    1388:	e8bd 8ff0 	ldmia.w	sp!, {r4, r5, r6, r7, r8, r9, sl, fp, pc}
    138c:	f01a 0f1f 	tst.w	sl, #31
    1390:	f8d9 3010 	ldr.w	r3, [r9, #16]
    1394:	bf08      	it	eq
    1396:	f10a 0a02 	addeq.w	sl, sl, #2
    139a:	f833 000a 	ldrh.w	r0, [r3, sl]
    139e:	f7ff fffe 	bl	0 <ff_wtoupper>
    13a2:	f8d9 300c 	ldr.w	r3, [r9, #12]
    13a6:	4683      	mov	fp, r0
    13a8:	f833 0015 	ldrh.w	r0, [r3, r5, lsl #1]
    13ac:	f7ff fffe 	bl	0 <ff_wtoupper>
    13b0:	4583      	cmp	fp, r0
    13b2:	d103      	bne.n	13bc <dir_find+0x90>
    13b4:	f10a 0a02 	add.w	sl, sl, #2
    13b8:	3501      	adds	r5, #1
    13ba:	e7db      	b.n	1374 <dir_find+0x48>
    13bc:	1b76      	subs	r6, r6, r5
    13be:	b2f6      	uxtb	r6, r6
    13c0:	2e00      	cmp	r6, #0
    13c2:	d1c7      	bne.n	1354 <dir_find+0x28>
    13c4:	e7d8      	b.n	1378 <dir_find+0x4c>
    13c6:	f04f 0aff 	mov.w	sl, #255	; 0xff
    13ca:	f04f 33ff 	mov.w	r3, #4294967295	; 0xffffffff
    13ce:	4655      	mov	r5, sl
    13d0:	64e3      	str	r3, [r4, #76]	; 0x4c
    13d2:	f104 0340 	add.w	r3, r4, #64	; 0x40
    13d6:	9302      	str	r3, [sp, #8]
    13d8:	4648      	mov	r0, r9
    13da:	6ba1      	ldr	r1, [r4, #56]	; 0x38
    13dc:	f7fe ff0f 	bl	1fe <move_window>
    13e0:	2800      	cmp	r0, #0
    13e2:	d15d      	bne.n	14a0 <dir_find+0x174>
    13e4:	6be6      	ldr	r6, [r4, #60]	; 0x3c
    13e6:	7837      	ldrb	r7, [r6, #0]
    13e8:	2f00      	cmp	r7, #0
    13ea:	d077      	beq.n	14dc <dir_find+0x1b0>
    13ec:	7af2      	ldrb	r2, [r6, #11]
    13ee:	2fe5      	cmp	r7, #229	; 0xe5
    13f0:	f002 033f 	and.w	r3, r2, #63	; 0x3f
    13f4:	71a3      	strb	r3, [r4, #6]
    13f6:	d003      	beq.n	1400 <dir_find+0xd4>
    13f8:	0712      	lsls	r2, r2, #28
    13fa:	d505      	bpl.n	1408 <dir_find+0xdc>
    13fc:	2b0f      	cmp	r3, #15
    13fe:	d005      	beq.n	140c <dir_find+0xe0>
    1400:	f04f 33ff 	mov.w	r3, #4294967295	; 0xffffffff
    1404:	64e3      	str	r3, [r4, #76]	; 0x4c
    1406:	e04f      	b.n	14a8 <dir_find+0x17c>
    1408:	2b0f      	cmp	r3, #15
    140a:	d154      	bne.n	14b6 <dir_find+0x18a>
    140c:	f894 304b 	ldrb.w	r3, [r4, #75]	; 0x4b
    1410:	065b      	lsls	r3, r3, #25
    1412:	d43f      	bmi.n	1494 <dir_find+0x168>
    1414:	0678      	lsls	r0, r7, #25
    1416:	d545      	bpl.n	14a4 <dir_find+0x178>
    1418:	6b23      	ldr	r3, [r4, #48]	; 0x30
    141a:	f896 a00d 	ldrb.w	sl, [r6, #13]
    141e:	f007 07bf 	and.w	r7, r7, #191	; 0xbf
    1422:	64e3      	str	r3, [r4, #76]	; 0x4c
    1424:	7b73      	ldrb	r3, [r6, #13]
    1426:	4553      	cmp	r3, sl
    1428:	d13e      	bne.n	14a8 <dir_find+0x17c>
    142a:	8b73      	ldrh	r3, [r6, #26]
    142c:	2b00      	cmp	r3, #0
    142e:	d13b      	bne.n	14a8 <dir_find+0x17c>
    1430:	f8d9 300c 	ldr.w	r3, [r9, #12]
    1434:	2201      	movs	r2, #1
    1436:	9301      	str	r3, [sp, #4]
    1438:	230d      	movs	r3, #13
    143a:	7835      	ldrb	r5, [r6, #0]
    143c:	f8df b0a4 	ldr.w	fp, [pc, #164]	; 14e4 <dir_find+0x1b8>
    1440:	f005 053f 	and.w	r5, r5, #63	; 0x3f
    1444:	3d01      	subs	r5, #1
    1446:	435d      	muls	r5, r3
    1448:	f81b 3b01 	ldrb.w	r3, [fp], #1
    144c:	5af3      	ldrh	r3, [r6, r3]
    144e:	b36a      	cbz	r2, 14ac <dir_find+0x180>
    1450:	2dfe      	cmp	r5, #254	; 0xfe
    1452:	d829      	bhi.n	14a8 <dir_find+0x17c>
    1454:	4618      	mov	r0, r3
    1456:	9305      	str	r3, [sp, #20]
    1458:	f7ff fffe 	bl	0 <ff_wtoupper>
    145c:	9b01      	ldr	r3, [sp, #4]
    145e:	9004      	str	r0, [sp, #16]
    1460:	1c69      	adds	r1, r5, #1
    1462:	f833 0015 	ldrh.w	r0, [r3, r5, lsl #1]
    1466:	9103      	str	r1, [sp, #12]
    1468:	f7ff fffe 	bl	0 <ff_wtoupper>
    146c:	9a04      	ldr	r2, [sp, #16]
    146e:	4282      	cmp	r2, r0
    1470:	d11a      	bne.n	14a8 <dir_find+0x17c>
    1472:	9b05      	ldr	r3, [sp, #20]
    1474:	9903      	ldr	r1, [sp, #12]
    1476:	461a      	mov	r2, r3
    1478:	460d      	mov	r5, r1
    147a:	4b1b      	ldr	r3, [pc, #108]	; (14e8 <dir_find+0x1bc>)
    147c:	459b      	cmp	fp, r3
    147e:	d1e3      	bne.n	1448 <dir_find+0x11c>
    1480:	7833      	ldrb	r3, [r6, #0]
    1482:	0659      	lsls	r1, r3, #25
    1484:	d504      	bpl.n	1490 <dir_find+0x164>
    1486:	b11a      	cbz	r2, 1490 <dir_find+0x164>
    1488:	9b01      	ldr	r3, [sp, #4]
    148a:	f833 3015 	ldrh.w	r3, [r3, r5, lsl #1]
    148e:	b95b      	cbnz	r3, 14a8 <dir_find+0x17c>
    1490:	3f01      	subs	r7, #1
    1492:	b2fd      	uxtb	r5, r7
    1494:	2100      	movs	r1, #0
    1496:	4620      	mov	r0, r4
    1498:	f7ff fd79 	bl	f8e <dir_next>
    149c:	2800      	cmp	r0, #0
    149e:	d09b      	beq.n	13d8 <dir_find+0xac>
    14a0:	4680      	mov	r8, r0
    14a2:	e76f      	b.n	1384 <dir_find+0x58>
    14a4:	42bd      	cmp	r5, r7
    14a6:	d0bd      	beq.n	1424 <dir_find+0xf8>
    14a8:	25ff      	movs	r5, #255	; 0xff
    14aa:	e7f3      	b.n	1494 <dir_find+0x168>
    14ac:	f64f 71ff 	movw	r1, #65535	; 0xffff
    14b0:	428b      	cmp	r3, r1
    14b2:	d0e2      	beq.n	147a <dir_find+0x14e>
    14b4:	e7f8      	b.n	14a8 <dir_find+0x17c>
    14b6:	b92d      	cbnz	r5, 14c4 <dir_find+0x198>
    14b8:	4630      	mov	r0, r6
    14ba:	f7fe fddd 	bl	78 <sum_sfn>
    14be:	4550      	cmp	r0, sl
    14c0:	f43f af60 	beq.w	1384 <dir_find+0x58>
    14c4:	f894 304b 	ldrb.w	r3, [r4, #75]	; 0x4b
    14c8:	07db      	lsls	r3, r3, #31
    14ca:	d499      	bmi.n	1400 <dir_find+0xd4>
    14cc:	220b      	movs	r2, #11
    14ce:	4630      	mov	r0, r6
    14d0:	9902      	ldr	r1, [sp, #8]
    14d2:	f7fe fdb8 	bl	46 <mem_cmp>
    14d6:	2800      	cmp	r0, #0
    14d8:	d192      	bne.n	1400 <dir_find+0xd4>
    14da:	e753      	b.n	1384 <dir_find+0x58>
    14dc:	f04f 0804 	mov.w	r8, #4
    14e0:	e750      	b.n	1384 <dir_find+0x58>
    14e2:	bf00      	nop
    14e4:	00000000 	.word	0x00000000
    14e8:	0000000d 	.word	0x0000000d

000014ec <dir_register>:
    14ec:	e92d 4ff0 	stmdb	sp!, {r4, r5, r6, r7, r8, r9, sl, fp, lr}
    14f0:	f890 504b 	ldrb.w	r5, [r0, #75]	; 0x4b
    14f4:	4604      	mov	r4, r0
    14f6:	f015 05a0 	ands.w	r5, r5, #160	; 0xa0
    14fa:	b099      	sub	sp, #100	; 0x64
    14fc:	f040 81c4 	bne.w	1888 <dir_register+0x39c>
    1500:	6806      	ldr	r6, [r0, #0]
    1502:	68f2      	ldr	r2, [r6, #12]
    1504:	f832 3015 	ldrh.w	r3, [r2, r5, lsl #1]
    1508:	2b00      	cmp	r3, #0
    150a:	d160      	bne.n	15ce <dir_register+0xe2>
    150c:	7833      	ldrb	r3, [r6, #0]
    150e:	2b04      	cmp	r3, #4
    1510:	f040 809c 	bne.w	164c <dir_register+0x160>
    1514:	230f      	movs	r3, #15
    1516:	350e      	adds	r5, #14
    1518:	fbb5 f5f3 	udiv	r5, r5, r3
    151c:	4620      	mov	r0, r4
    151e:	1ca9      	adds	r1, r5, #2
    1520:	f7ff fdfa 	bl	1118 <dir_alloc>
    1524:	4680      	mov	r8, r0
    1526:	2800      	cmp	r0, #0
    1528:	f040 808a 	bne.w	1640 <dir_register+0x154>
    152c:	6b23      	ldr	r3, [r4, #48]	; 0x30
    152e:	3501      	adds	r5, #1
    1530:	eba3 1345 	sub.w	r3, r3, r5, lsl #5
    1534:	64e3      	str	r3, [r4, #76]	; 0x4c
    1536:	79e3      	ldrb	r3, [r4, #7]
    1538:	075f      	lsls	r7, r3, #29
    153a:	d54a      	bpl.n	15d2 <dir_register+0xe6>
    153c:	f023 0304 	bic.w	r3, r3, #4
    1540:	4620      	mov	r0, r4
    1542:	71e3      	strb	r3, [r4, #7]
    1544:	f7ff fa44 	bl	9d0 <fill_first_frag>
    1548:	2800      	cmp	r0, #0
    154a:	d13e      	bne.n	15ca <dir_register+0xde>
    154c:	f04f 32ff 	mov.w	r2, #4294967295	; 0xffffffff
    1550:	4620      	mov	r0, r4
    1552:	6b61      	ldr	r1, [r4, #52]	; 0x34
    1554:	f7ff fa24 	bl	9a0 <fill_last_frag>
    1558:	2800      	cmp	r0, #0
    155a:	d136      	bne.n	15ca <dir_register+0xde>
    155c:	68a3      	ldr	r3, [r4, #8]
    155e:	2b00      	cmp	r3, #0
    1560:	d037      	beq.n	15d2 <dir_register+0xe6>
    1562:	6823      	ldr	r3, [r4, #0]
    1564:	6aa1      	ldr	r1, [r4, #40]	; 0x28
    1566:	9304      	str	r3, [sp, #16]
    1568:	6a23      	ldr	r3, [r4, #32]
    156a:	a804      	add	r0, sp, #16
    156c:	9306      	str	r3, [sp, #24]
    156e:	6a63      	ldr	r3, [r4, #36]	; 0x24
    1570:	f8cd 802c 	str.w	r8, [sp, #44]	; 0x2c
    1574:	f88d 3017 	strb.w	r3, [sp, #23]
    1578:	f023 03ff 	bic.w	r3, r3, #255	; 0xff
    157c:	e9cd 3808 	strd	r3, r8, [sp, #32]
    1580:	9117      	str	r1, [sp, #92]	; 0x5c
    1582:	f7fe ff27 	bl	3d4 <dir_sdi>
    1586:	bb00      	cbnz	r0, 15ca <dir_register+0xde>
    1588:	a804      	add	r0, sp, #16
    158a:	f7ff fd5e 	bl	104a <load_xdir>
    158e:	b9e0      	cbnz	r0, 15ca <dir_register+0xde>
    1590:	e9d4 2304 	ldrd	r2, r3, [r4, #16]
    1594:	f44f 7100 	mov.w	r1, #512	; 0x200
    1598:	8970      	ldrh	r0, [r6, #10]
    159a:	fbe0 2301 	umlal	r2, r3, r0, r1
    159e:	6930      	ldr	r0, [r6, #16]
    15a0:	e9c4 2304 	strd	r2, r3, [r4, #16]
    15a4:	3038      	adds	r0, #56	; 0x38
    15a6:	f7fe fd39 	bl	1c <st_qword>
    15aa:	e9d4 2304 	ldrd	r2, r3, [r4, #16]
    15ae:	6930      	ldr	r0, [r6, #16]
    15b0:	3028      	adds	r0, #40	; 0x28
    15b2:	f7fe fd33 	bl	1c <st_qword>
    15b6:	79e3      	ldrb	r3, [r4, #7]
    15b8:	6932      	ldr	r2, [r6, #16]
    15ba:	f043 0301 	orr.w	r3, r3, #1
    15be:	f882 3021 	strb.w	r3, [r2, #33]	; 0x21
    15c2:	a804      	add	r0, sp, #16
    15c4:	f7ff fdd0 	bl	1168 <store_xdir>
    15c8:	b118      	cbz	r0, 15d2 <dir_register+0xe6>
    15ca:	4680      	mov	r8, r0
    15cc:	e038      	b.n	1640 <dir_register+0x154>
    15ce:	3501      	adds	r5, #1
    15d0:	e798      	b.n	1504 <dir_register+0x18>
    15d2:	2385      	movs	r3, #133	; 0x85
    15d4:	e9d6 5403 	ldrd	r5, r4, [r6, #12]
    15d8:	2100      	movs	r1, #0
    15da:	2240      	movs	r2, #64	; 0x40
    15dc:	4620      	mov	r0, r4
    15de:	f7fe fd2c 	bl	3a <mem_set>
    15e2:	7023      	strb	r3, [r4, #0]
    15e4:	23c0      	movs	r3, #192	; 0xc0
    15e6:	2001      	movs	r0, #1
    15e8:	f884 3020 	strb.w	r3, [r4, #32]
    15ec:	460a      	mov	r2, r1
    15ee:	2340      	movs	r3, #64	; 0x40
    15f0:	f04f 0cc1 	mov.w	ip, #193	; 0xc1
    15f4:	468e      	mov	lr, r1
    15f6:	eb04 0900 	add.w	r9, r4, r0
    15fa:	1c5e      	adds	r6, r3, #1
    15fc:	f804 c003 	strb.w	ip, [r4, r3]
    1600:	f804 e006 	strb.w	lr, [r4, r6]
    1604:	3302      	adds	r3, #2
    1606:	b120      	cbz	r0, 1612 <dir_register+0x126>
    1608:	f835 0011 	ldrh.w	r0, [r5, r1, lsl #1]
    160c:	b108      	cbz	r0, 1612 <dir_register+0x126>
    160e:	3101      	adds	r1, #1
    1610:	b2c9      	uxtb	r1, r1
    1612:	0a06      	lsrs	r6, r0, #8
    1614:	54e0      	strb	r0, [r4, r3]
    1616:	f809 6003 	strb.w	r6, [r9, r3]
    161a:	3302      	adds	r3, #2
    161c:	06de      	lsls	r6, r3, #27
    161e:	d1f2      	bne.n	1606 <dir_register+0x11a>
    1620:	f835 6011 	ldrh.w	r6, [r5, r1, lsl #1]
    1624:	1c57      	adds	r7, r2, #1
    1626:	b97e      	cbnz	r6, 1648 <dir_register+0x15c>
    1628:	3202      	adds	r2, #2
    162a:	4628      	mov	r0, r5
    162c:	f884 1023 	strb.w	r1, [r4, #35]	; 0x23
    1630:	7062      	strb	r2, [r4, #1]
    1632:	f7fe fd9d 	bl	170 <xname_sum>
    1636:	f884 0024 	strb.w	r0, [r4, #36]	; 0x24
    163a:	0a00      	lsrs	r0, r0, #8
    163c:	f884 0025 	strb.w	r0, [r4, #37]	; 0x25
    1640:	4640      	mov	r0, r8
    1642:	b019      	add	sp, #100	; 0x64
    1644:	e8bd 8ff0 	ldmia.w	sp!, {r4, r5, r6, r7, r8, r9, sl, fp, pc}
    1648:	463a      	mov	r2, r7
    164a:	e7d6      	b.n	15fa <dir_register+0x10e>
    164c:	f104 0740 	add.w	r7, r4, #64	; 0x40
    1650:	220c      	movs	r2, #12
    1652:	4639      	mov	r1, r7
    1654:	a804      	add	r0, sp, #16
    1656:	f7fe fdbd 	bl	1d4 <mem_cpy.part.0>
    165a:	f89d b01b 	ldrb.w	fp, [sp, #27]
    165e:	f01b 0f01 	tst.w	fp, #1
    1662:	d07d      	beq.n	1760 <dir_register+0x274>
    1664:	2340      	movs	r3, #64	; 0x40
    1666:	f04f 0901 	mov.w	r9, #1
    166a:	f8df a224 	ldr.w	sl, [pc, #548]	; 1890 <dir_register+0x3a4>
    166e:	f884 304b 	strb.w	r3, [r4, #75]	; 0x4b
    1672:	220b      	movs	r2, #11
    1674:	4638      	mov	r0, r7
    1676:	a904      	add	r1, sp, #16
    1678:	f8d6 800c 	ldr.w	r8, [r6, #12]
    167c:	f7fe fdaa 	bl	1d4 <mem_cpy.part.0>
    1680:	f1b9 0f05 	cmp.w	r9, #5
    1684:	d953      	bls.n	172e <dir_register+0x242>
    1686:	464b      	mov	r3, r9
    1688:	f1a8 0102 	sub.w	r1, r8, #2
    168c:	f831 2f02 	ldrh.w	r2, [r1, #2]!
    1690:	2a00      	cmp	r2, #0
    1692:	d13d      	bne.n	1710 <dir_register+0x224>
    1694:	2207      	movs	r2, #7
    1696:	f10d 0c10 	add.w	ip, sp, #16
    169a:	f003 010f 	and.w	r1, r3, #15
    169e:	f101 0030 	add.w	r0, r1, #48	; 0x30
    16a2:	2839      	cmp	r0, #57	; 0x39
    16a4:	bf88      	it	hi
    16a6:	f101 0037 	addhi.w	r0, r1, #55	; 0x37
    16aa:	2b0f      	cmp	r3, #15
    16ac:	f80c 0d01 	strb.w	r0, [ip, #-1]!
    16b0:	f102 31ff 	add.w	r1, r2, #4294967295	; 0xffffffff
    16b4:	ea4f 1013 	mov.w	r0, r3, lsr #4
    16b8:	d83b      	bhi.n	1732 <dir_register+0x246>
    16ba:	207e      	movs	r0, #126	; 0x7e
    16bc:	f101 0360 	add.w	r3, r1, #96	; 0x60
    16c0:	446b      	add	r3, sp
    16c2:	f803 0c58 	strb.w	r0, [r3, #-88]
    16c6:	2300      	movs	r3, #0
    16c8:	1e90      	subs	r0, r2, #2
    16ca:	4299      	cmp	r1, r3
    16cc:	d902      	bls.n	16d4 <dir_register+0x1e8>
    16ce:	5cfa      	ldrb	r2, [r7, r3]
    16d0:	2a20      	cmp	r2, #32
    16d2:	d131      	bne.n	1738 <dir_register+0x24c>
    16d4:	f104 003f 	add.w	r0, r4, #63	; 0x3f
    16d8:	2907      	cmp	r1, #7
    16da:	bf8f      	iteee	hi
    16dc:	2220      	movhi	r2, #32
    16de:	f101 0260 	addls.w	r2, r1, #96	; 0x60
    16e2:	446a      	addls	r2, sp
    16e4:	f812 2c58 	ldrbls.w	r2, [r2, #-88]
    16e8:	f103 0301 	add.w	r3, r3, #1
    16ec:	bf98      	it	ls
    16ee:	3101      	addls	r1, #1
    16f0:	2b07      	cmp	r3, #7
    16f2:	54c2      	strb	r2, [r0, r3]
    16f4:	d9f0      	bls.n	16d8 <dir_register+0x1ec>
    16f6:	4620      	mov	r0, r4
    16f8:	f7ff fe18 	bl	132c <dir_find>
    16fc:	4680      	mov	r8, r0
    16fe:	bb50      	cbnz	r0, 1756 <dir_register+0x26a>
    1700:	f109 0901 	add.w	r9, r9, #1
    1704:	f1b9 0f64 	cmp.w	r9, #100	; 0x64
    1708:	d1b3      	bne.n	1672 <dir_register+0x186>
    170a:	f04f 0807 	mov.w	r8, #7
    170e:	e797      	b.n	1640 <dir_register+0x154>
    1710:	2010      	movs	r0, #16
    1712:	f002 0c01 	and.w	ip, r2, #1
    1716:	eb0c 0343 	add.w	r3, ip, r3, lsl #1
    171a:	f413 3f80 	tst.w	r3, #65536	; 0x10000
    171e:	bf18      	it	ne
    1720:	ea83 030a 	eorne.w	r3, r3, sl
    1724:	3801      	subs	r0, #1
    1726:	ea4f 0252 	mov.w	r2, r2, lsr #1
    172a:	d1f2      	bne.n	1712 <dir_register+0x226>
    172c:	e7ae      	b.n	168c <dir_register+0x1a0>
    172e:	464b      	mov	r3, r9
    1730:	e7b0      	b.n	1694 <dir_register+0x1a8>
    1732:	460a      	mov	r2, r1
    1734:	4603      	mov	r3, r0
    1736:	e7b0      	b.n	169a <dir_register+0x1ae>
    1738:	2a80      	cmp	r2, #128	; 0x80
    173a:	d90a      	bls.n	1752 <dir_register+0x266>
    173c:	2a9f      	cmp	r2, #159	; 0x9f
    173e:	d903      	bls.n	1748 <dir_register+0x25c>
    1740:	3220      	adds	r2, #32
    1742:	b2d2      	uxtb	r2, r2
    1744:	2a1c      	cmp	r2, #28
    1746:	d804      	bhi.n	1752 <dir_register+0x266>
    1748:	4298      	cmp	r0, r3
    174a:	f103 0201 	add.w	r2, r3, #1
    174e:	d0c1      	beq.n	16d4 <dir_register+0x1e8>
    1750:	4613      	mov	r3, r2
    1752:	3301      	adds	r3, #1
    1754:	e7b9      	b.n	16ca <dir_register+0x1de>
    1756:	2804      	cmp	r0, #4
    1758:	f47f af72 	bne.w	1640 <dir_register+0x154>
    175c:	f884 b04b 	strb.w	fp, [r4, #75]	; 0x4b
    1760:	f01b 0f02 	tst.w	fp, #2
    1764:	bf1d      	ittte	ne
    1766:	230d      	movne	r3, #13
    1768:	350c      	addne	r5, #12
    176a:	fbb5 f5f3 	udivne	r5, r5, r3
    176e:	2501      	moveq	r5, #1
    1770:	bf18      	it	ne
    1772:	3501      	addne	r5, #1
    1774:	4629      	mov	r1, r5
    1776:	4620      	mov	r0, r4
    1778:	f7ff fcce 	bl	1118 <dir_alloc>
    177c:	4680      	mov	r8, r0
    177e:	2800      	cmp	r0, #0
    1780:	f47f af5e 	bne.w	1640 <dir_register+0x154>
    1784:	3d01      	subs	r5, #1
    1786:	d11a      	bne.n	17be <dir_register+0x2d2>
    1788:	4630      	mov	r0, r6
    178a:	6ba1      	ldr	r1, [r4, #56]	; 0x38
    178c:	f7fe fd37 	bl	1fe <move_window>
    1790:	4680      	mov	r8, r0
    1792:	2800      	cmp	r0, #0
    1794:	f47f af54 	bne.w	1640 <dir_register+0x154>
    1798:	4601      	mov	r1, r0
    179a:	2220      	movs	r2, #32
    179c:	6be0      	ldr	r0, [r4, #60]	; 0x3c
    179e:	f7fe fc4c 	bl	3a <mem_set>
    17a2:	220b      	movs	r2, #11
    17a4:	4639      	mov	r1, r7
    17a6:	6be0      	ldr	r0, [r4, #60]	; 0x3c
    17a8:	f7fe fd14 	bl	1d4 <mem_cpy.part.0>
    17ac:	f894 304b 	ldrb.w	r3, [r4, #75]	; 0x4b
    17b0:	6be2      	ldr	r2, [r4, #60]	; 0x3c
    17b2:	f003 0318 	and.w	r3, r3, #24
    17b6:	7313      	strb	r3, [r2, #12]
    17b8:	2301      	movs	r3, #1
    17ba:	70f3      	strb	r3, [r6, #3]
    17bc:	e740      	b.n	1640 <dir_register+0x154>
    17be:	6b21      	ldr	r1, [r4, #48]	; 0x30
    17c0:	4620      	mov	r0, r4
    17c2:	eba1 1145 	sub.w	r1, r1, r5, lsl #5
    17c6:	f7fe fe05 	bl	3d4 <dir_sdi>
    17ca:	4680      	mov	r8, r0
    17cc:	2800      	cmp	r0, #0
    17ce:	f47f af37 	bne.w	1640 <dir_register+0x154>
    17d2:	4638      	mov	r0, r7
    17d4:	f7fe fc50 	bl	78 <sum_sfn>
    17d8:	9001      	str	r0, [sp, #4]
    17da:	4630      	mov	r0, r6
    17dc:	6ba1      	ldr	r1, [r4, #56]	; 0x38
    17de:	f7fe fd0e 	bl	1fe <move_window>
    17e2:	4680      	mov	r8, r0
    17e4:	2800      	cmp	r0, #0
    17e6:	f47f af2b 	bne.w	1640 <dir_register+0x154>
    17ea:	68f3      	ldr	r3, [r6, #12]
    17ec:	9a01      	ldr	r2, [sp, #4]
    17ee:	9300      	str	r3, [sp, #0]
    17f0:	6be3      	ldr	r3, [r4, #60]	; 0x3c
    17f2:	f04f 0c0d 	mov.w	ip, #13
    17f6:	735a      	strb	r2, [r3, #13]
    17f8:	f04f 020f 	mov.w	r2, #15
    17fc:	b2e9      	uxtb	r1, r5
    17fe:	72da      	strb	r2, [r3, #11]
    1800:	1e4a      	subs	r2, r1, #1
    1802:	fb0c f202 	mul.w	r2, ip, r2
    1806:	f04f 09ff 	mov.w	r9, #255	; 0xff
    180a:	4684      	mov	ip, r0
    180c:	f8df 8084 	ldr.w	r8, [pc, #132]	; 1894 <dir_register+0x3a8>
    1810:	7318      	strb	r0, [r3, #12]
    1812:	7698      	strb	r0, [r3, #26]
    1814:	76d8      	strb	r0, [r3, #27]
    1816:	f64f 7aff 	movw	sl, #65535	; 0xffff
    181a:	f818 eb01 	ldrb.w	lr, [r8], #1
    181e:	4550      	cmp	r0, sl
    1820:	eb03 0b0e 	add.w	fp, r3, lr
    1824:	d120      	bne.n	1868 <dir_register+0x37c>
    1826:	f803 900e 	strb.w	r9, [r3, lr]
    182a:	f88b 9001 	strb.w	r9, [fp, #1]
    182e:	f10c 0c01 	add.w	ip, ip, #1
    1832:	f1bc 0f0d 	cmp.w	ip, #13
    1836:	d1ee      	bne.n	1816 <dir_register+0x32a>
    1838:	f64f 7cff 	movw	ip, #65535	; 0xffff
    183c:	4560      	cmp	r0, ip
    183e:	d003      	beq.n	1848 <dir_register+0x35c>
    1840:	9800      	ldr	r0, [sp, #0]
    1842:	f830 2012 	ldrh.w	r2, [r0, r2, lsl #1]
    1846:	b90a      	cbnz	r2, 184c <dir_register+0x360>
    1848:	f041 0140 	orr.w	r1, r1, #64	; 0x40
    184c:	7019      	strb	r1, [r3, #0]
    184e:	2301      	movs	r3, #1
    1850:	2100      	movs	r1, #0
    1852:	4620      	mov	r0, r4
    1854:	70f3      	strb	r3, [r6, #3]
    1856:	f7ff fb9a 	bl	f8e <dir_next>
    185a:	4680      	mov	r8, r0
    185c:	2800      	cmp	r0, #0
    185e:	f47f aeef 	bne.w	1640 <dir_register+0x154>
    1862:	3d01      	subs	r5, #1
    1864:	d1b9      	bne.n	17da <dir_register+0x2ee>
    1866:	e78f      	b.n	1788 <dir_register+0x29c>
    1868:	9800      	ldr	r0, [sp, #0]
    186a:	f102 0a01 	add.w	sl, r2, #1
    186e:	f830 0012 	ldrh.w	r0, [r0, r2, lsl #1]
    1872:	0a02      	lsrs	r2, r0, #8
    1874:	f803 000e 	strb.w	r0, [r3, lr]
    1878:	f88b 2001 	strb.w	r2, [fp, #1]
    187c:	4652      	mov	r2, sl
    187e:	2800      	cmp	r0, #0
    1880:	d1d5      	bne.n	182e <dir_register+0x342>
    1882:	f64f 70ff 	movw	r0, #65535	; 0xffff
    1886:	e7d2      	b.n	182e <dir_register+0x342>
    1888:	f04f 0806 	mov.w	r8, #6
    188c:	e6d8      	b.n	1640 <dir_register+0x154>
    188e:	bf00      	nop
    1890:	00011021 	.word	0x00011021
    1894:	00000000 	.word	0x00000000

00001898 <init_alloc_info.isra.0>:
    1898:	b510      	push	{r4, lr}
    189a:	4604      	mov	r4, r0
    189c:	3034      	adds	r0, #52	; 0x34
    189e:	f7fe fbaf 	bl	0 <ld_dword>
    18a2:	6088      	str	r0, [r1, #8]
    18a4:	f104 0038 	add.w	r0, r4, #56	; 0x38
    18a8:	460a      	mov	r2, r1
    18aa:	f7fe fbab 	bl	4 <ld_qword>
    18ae:	e9c2 0104 	strd	r0, r1, [r2, #16]
    18b2:	f894 3021 	ldrb.w	r3, [r4, #33]	; 0x21
    18b6:	f003 0302 	and.w	r3, r3, #2
    18ba:	71d3      	strb	r3, [r2, #7]
    18bc:	2300      	movs	r3, #0
    18be:	61d3      	str	r3, [r2, #28]
    18c0:	bd10      	pop	{r4, pc}

000018c2 <ld_clust.isra.0>:
    18c2:	2803      	cmp	r0, #3
    18c4:	8b4b      	ldrh	r3, [r1, #26]
    18c6:	bf04      	itt	eq
    18c8:	8a8a      	ldrheq	r2, [r1, #20]
    18ca:	ea43 4302 	orreq.w	r3, r3, r2, lsl #16
    18ce:	4618      	mov	r0, r3
    18d0:	4770      	bx	lr

000018d2 <follow_path>:
    18d2:	e92d 4ff0 	stmdb	sp!, {r4, r5, r6, r7, r8, r9, sl, fp, lr}
    18d6:	4605      	mov	r5, r0
    18d8:	6803      	ldr	r3, [r0, #0]
    18da:	b085      	sub	sp, #20
    18dc:	9301      	str	r3, [sp, #4]
    18de:	4689      	mov	r9, r1
    18e0:	f811 3b01 	ldrb.w	r3, [r1], #1
    18e4:	2b2f      	cmp	r3, #47	; 0x2f
    18e6:	d0fa      	beq.n	18de <follow_path+0xc>
    18e8:	2b5c      	cmp	r3, #92	; 0x5c
    18ea:	d0f8      	beq.n	18de <follow_path+0xc>
    18ec:	2300      	movs	r3, #0
    18ee:	60ab      	str	r3, [r5, #8]
    18f0:	61eb      	str	r3, [r5, #28]
    18f2:	f899 3000 	ldrb.w	r3, [r9]
    18f6:	2b1f      	cmp	r3, #31
    18f8:	f200 8128 	bhi.w	1b4c <follow_path+0x27a>
    18fc:	2380      	movs	r3, #128	; 0x80
    18fe:	2100      	movs	r1, #0
    1900:	4628      	mov	r0, r5
    1902:	f885 304b 	strb.w	r3, [r5, #75]	; 0x4b
    1906:	b005      	add	sp, #20
    1908:	e8bd 4ff0 	ldmia.w	sp!, {r4, r5, r6, r7, r8, r9, sl, fp, lr}
    190c:	f7fe bd62 	b.w	3d4 <dir_sdi>
    1910:	289f      	cmp	r0, #159	; 0x9f
    1912:	d905      	bls.n	1920 <follow_path+0x4e>
    1914:	f100 0320 	add.w	r3, r0, #32
    1918:	b2db      	uxtb	r3, r3
    191a:	2b1c      	cmp	r3, #28
    191c:	f200 8123 	bhi.w	1b66 <follow_path+0x294>
    1920:	464f      	mov	r7, r9
    1922:	f899 3001 	ldrb.w	r3, [r9, #1]
    1926:	f837 0b02 	ldrh.w	r0, [r7], #2
    192a:	2b3f      	cmp	r3, #63	; 0x3f
    192c:	ba40      	rev16	r0, r0
    192e:	b280      	uxth	r0, r0
    1930:	d907      	bls.n	1942 <follow_path+0x70>
    1932:	2b7e      	cmp	r3, #126	; 0x7e
    1934:	f240 8117 	bls.w	1b66 <follow_path+0x294>
    1938:	f083 0380 	eor.w	r3, r3, #128	; 0x80
    193c:	2b7c      	cmp	r3, #124	; 0x7c
    193e:	f240 8112 	bls.w	1b66 <follow_path+0x294>
    1942:	2006      	movs	r0, #6
    1944:	e091      	b.n	1a6a <follow_path+0x198>
    1946:	2eff      	cmp	r6, #255	; 0xff
    1948:	d0fb      	beq.n	1942 <follow_path+0x70>
    194a:	f82b 0016 	strh.w	r0, [fp, r6, lsl #1]
    194e:	46b9      	mov	r9, r7
    1950:	3601      	adds	r6, #1
    1952:	e0ff      	b.n	1b54 <follow_path+0x282>
    1954:	783b      	ldrb	r3, [r7, #0]
    1956:	46b9      	mov	r9, r7
    1958:	2b2f      	cmp	r3, #47	; 0x2f
    195a:	f107 0701 	add.w	r7, r7, #1
    195e:	d0f9      	beq.n	1954 <follow_path+0x82>
    1960:	2b5c      	cmp	r3, #92	; 0x5c
    1962:	d0f7      	beq.n	1954 <follow_path+0x82>
    1964:	281f      	cmp	r0, #31
    1966:	bf8c      	ite	hi
    1968:	2400      	movhi	r4, #0
    196a:	2401      	movls	r4, #1
    196c:	f1ab 0202 	sub.w	r2, fp, #2
    1970:	00a4      	lsls	r4, r4, #2
    1972:	bbbe      	cbnz	r6, 19e4 <follow_path+0x112>
    1974:	f04f 0300 	mov.w	r3, #0
    1978:	f82b 3016 	strh.w	r3, [fp, r6, lsl #1]
    197c:	2e00      	cmp	r6, #0
    197e:	d0e0      	beq.n	1942 <follow_path+0x70>
    1980:	2200      	movs	r2, #0
    1982:	f83b 1012 	ldrh.w	r1, [fp, r2, lsl #1]
    1986:	4613      	mov	r3, r2
    1988:	2920      	cmp	r1, #32
    198a:	f102 0201 	add.w	r2, r2, #1
    198e:	d0f8      	beq.n	1982 <follow_path+0xb0>
    1990:	b90b      	cbnz	r3, 1996 <follow_path+0xc4>
    1992:	292e      	cmp	r1, #46	; 0x2e
    1994:	d102      	bne.n	199c <follow_path+0xca>
    1996:	f044 0403 	orr.w	r4, r4, #3
    199a:	b2e4      	uxtb	r4, r4
    199c:	f1ab 0102 	sub.w	r1, fp, #2
    19a0:	f831 2016 	ldrh.w	r2, [r1, r6, lsl #1]
    19a4:	2a2e      	cmp	r2, #46	; 0x2e
    19a6:	d001      	beq.n	19ac <follow_path+0xda>
    19a8:	3e01      	subs	r6, #1
    19aa:	d1f9      	bne.n	19a0 <follow_path+0xce>
    19ac:	f04f 0800 	mov.w	r8, #0
    19b0:	220b      	movs	r2, #11
    19b2:	2120      	movs	r1, #32
    19b4:	f105 0040 	add.w	r0, r5, #64	; 0x40
    19b8:	f7fe fb3f 	bl	3a <mem_set>
    19bc:	f04f 0a08 	mov.w	sl, #8
    19c0:	4647      	mov	r7, r8
    19c2:	f83b 0013 	ldrh.w	r0, [fp, r3, lsl #1]
    19c6:	1c5a      	adds	r2, r3, #1
    19c8:	2800      	cmp	r0, #0
    19ca:	f000 809a 	beq.w	1b02 <follow_path+0x230>
    19ce:	2820      	cmp	r0, #32
    19d0:	d003      	beq.n	19da <follow_path+0x108>
    19d2:	282e      	cmp	r0, #46	; 0x2e
    19d4:	d10e      	bne.n	19f4 <follow_path+0x122>
    19d6:	42b2      	cmp	r2, r6
    19d8:	d010      	beq.n	19fc <follow_path+0x12a>
    19da:	f044 0403 	orr.w	r4, r4, #3
    19de:	b2e4      	uxtb	r4, r4
    19e0:	4613      	mov	r3, r2
    19e2:	e7ee      	b.n	19c2 <follow_path+0xf0>
    19e4:	f832 3016 	ldrh.w	r3, [r2, r6, lsl #1]
    19e8:	2b20      	cmp	r3, #32
    19ea:	d001      	beq.n	19f0 <follow_path+0x11e>
    19ec:	2b2e      	cmp	r3, #46	; 0x2e
    19ee:	d1c1      	bne.n	1974 <follow_path+0xa2>
    19f0:	3e01      	subs	r6, #1
    19f2:	e7be      	b.n	1972 <follow_path+0xa0>
    19f4:	45d0      	cmp	r8, sl
    19f6:	d205      	bcs.n	1a04 <follow_path+0x132>
    19f8:	42b2      	cmp	r2, r6
    19fa:	d147      	bne.n	1a8c <follow_path+0x1ba>
    19fc:	f1ba 0f0b 	cmp.w	sl, #11
    1a00:	d13c      	bne.n	1a7c <follow_path+0x1aa>
    1a02:	e002      	b.n	1a0a <follow_path+0x138>
    1a04:	f1ba 0f0b 	cmp.w	sl, #11
    1a08:	d132      	bne.n	1a70 <follow_path+0x19e>
    1a0a:	f895 3040 	ldrb.w	r3, [r5, #64]	; 0x40
    1a0e:	2be5      	cmp	r3, #229	; 0xe5
    1a10:	d102      	bne.n	1a18 <follow_path+0x146>
    1a12:	2305      	movs	r3, #5
    1a14:	f885 3040 	strb.w	r3, [r5, #64]	; 0x40
    1a18:	f044 0403 	orr.w	r4, r4, #3
    1a1c:	b2e4      	uxtb	r4, r4
    1a1e:	f007 030c 	and.w	r3, r7, #12
    1a22:	2b0c      	cmp	r3, #12
    1a24:	d003      	beq.n	1a2e <follow_path+0x15c>
    1a26:	f007 0303 	and.w	r3, r7, #3
    1a2a:	2b03      	cmp	r3, #3
    1a2c:	d102      	bne.n	1a34 <follow_path+0x162>
    1a2e:	f044 0402 	orr.w	r4, r4, #2
    1a32:	b2e4      	uxtb	r4, r4
    1a34:	07a6      	lsls	r6, r4, #30
    1a36:	d409      	bmi.n	1a4c <follow_path+0x17a>
    1a38:	07f8      	lsls	r0, r7, #31
    1a3a:	bf44      	itt	mi
    1a3c:	f044 0410 	orrmi.w	r4, r4, #16
    1a40:	b2e4      	uxtbmi	r4, r4
    1a42:	0779      	lsls	r1, r7, #29
    1a44:	bf44      	itt	mi
    1a46:	f044 0408 	orrmi.w	r4, r4, #8
    1a4a:	b2e4      	uxtbmi	r4, r4
    1a4c:	4628      	mov	r0, r5
    1a4e:	f885 404b 	strb.w	r4, [r5, #75]	; 0x4b
    1a52:	f7ff fc6b 	bl	132c <dir_find>
    1a56:	f895 304b 	ldrb.w	r3, [r5, #75]	; 0x4b
    1a5a:	2800      	cmp	r0, #0
    1a5c:	d05e      	beq.n	1b1c <follow_path+0x24a>
    1a5e:	2804      	cmp	r0, #4
    1a60:	d103      	bne.n	1a6a <follow_path+0x198>
    1a62:	f013 0f04 	tst.w	r3, #4
    1a66:	bf08      	it	eq
    1a68:	2005      	moveq	r0, #5
    1a6a:	b005      	add	sp, #20
    1a6c:	e8bd 8ff0 	ldmia.w	sp!, {r4, r5, r6, r7, r8, r9, sl, fp, pc}
    1a70:	42b2      	cmp	r2, r6
    1a72:	d003      	beq.n	1a7c <follow_path+0x1aa>
    1a74:	f044 0403 	orr.w	r4, r4, #3
    1a78:	b2e4      	uxtb	r4, r4
    1a7a:	d842      	bhi.n	1b02 <follow_path+0x230>
    1a7c:	00bf      	lsls	r7, r7, #2
    1a7e:	4632      	mov	r2, r6
    1a80:	f04f 0a0b 	mov.w	sl, #11
    1a84:	f04f 0808 	mov.w	r8, #8
    1a88:	b2ff      	uxtb	r7, r7
    1a8a:	e7a9      	b.n	19e0 <follow_path+0x10e>
    1a8c:	287f      	cmp	r0, #127	; 0x7f
    1a8e:	d933      	bls.n	1af8 <follow_path+0x226>
    1a90:	f044 0302 	orr.w	r3, r4, #2
    1a94:	b2db      	uxtb	r3, r3
    1a96:	9203      	str	r2, [sp, #12]
    1a98:	9302      	str	r3, [sp, #8]
    1a9a:	f7ff fffe 	bl	0 <ff_wtoupper>
    1a9e:	f44f 7169 	mov.w	r1, #932	; 0x3a4
    1aa2:	f7ff fffe 	bl	0 <ff_uni2oem>
    1aa6:	e9dd 3202 	ldrd	r3, r2, [sp, #8]
    1aaa:	28ff      	cmp	r0, #255	; 0xff
    1aac:	d917      	bls.n	1ade <follow_path+0x20c>
    1aae:	f10a 31ff 	add.w	r1, sl, #4294967295	; 0xffffffff
    1ab2:	4588      	cmp	r8, r1
    1ab4:	d304      	bcc.n	1ac0 <follow_path+0x1ee>
    1ab6:	f044 0403 	orr.w	r4, r4, #3
    1aba:	46d0      	mov	r8, sl
    1abc:	b2e4      	uxtb	r4, r4
    1abe:	e78f      	b.n	19e0 <follow_path+0x10e>
    1ac0:	eb05 0108 	add.w	r1, r5, r8
    1ac4:	0a04      	lsrs	r4, r0, #8
    1ac6:	f881 4040 	strb.w	r4, [r1, #64]	; 0x40
    1aca:	f108 0801 	add.w	r8, r8, #1
    1ace:	eb05 0108 	add.w	r1, r5, r8
    1ad2:	461c      	mov	r4, r3
    1ad4:	f881 0040 	strb.w	r0, [r1, #64]	; 0x40
    1ad8:	f108 0801 	add.w	r8, r8, #1
    1adc:	e780      	b.n	19e0 <follow_path+0x10e>
    1ade:	b130      	cbz	r0, 1aee <follow_path+0x21c>
    1ae0:	4c3d      	ldr	r4, [pc, #244]	; (1bd8 <follow_path+0x306>)
    1ae2:	f814 1b01 	ldrb.w	r1, [r4], #1
    1ae6:	2900      	cmp	r1, #0
    1ae8:	d066      	beq.n	1bb8 <follow_path+0x2e6>
    1aea:	4281      	cmp	r1, r0
    1aec:	d1f9      	bne.n	1ae2 <follow_path+0x210>
    1aee:	f043 0303 	orr.w	r3, r3, #3
    1af2:	205f      	movs	r0, #95	; 0x5f
    1af4:	b2db      	uxtb	r3, r3
    1af6:	e7ea      	b.n	1ace <follow_path+0x1fc>
    1af8:	4623      	mov	r3, r4
    1afa:	e7f1      	b.n	1ae0 <follow_path+0x20e>
    1afc:	f047 0702 	orr.w	r7, r7, #2
    1b00:	e7e5      	b.n	1ace <follow_path+0x1fc>
    1b02:	f895 3040 	ldrb.w	r3, [r5, #64]	; 0x40
    1b06:	2be5      	cmp	r3, #229	; 0xe5
    1b08:	bf04      	itt	eq
    1b0a:	2305      	moveq	r3, #5
    1b0c:	f885 3040 	strbeq.w	r3, [r5, #64]	; 0x40
    1b10:	f1ba 0f08 	cmp.w	sl, #8
    1b14:	bf04      	itt	eq
    1b16:	00bf      	lsleq	r7, r7, #2
    1b18:	b2ff      	uxtbeq	r7, r7
    1b1a:	e780      	b.n	1a1e <follow_path+0x14c>
    1b1c:	075a      	lsls	r2, r3, #29
    1b1e:	d4a4      	bmi.n	1a6a <follow_path+0x198>
    1b20:	79ab      	ldrb	r3, [r5, #6]
    1b22:	06db      	lsls	r3, r3, #27
    1b24:	d546      	bpl.n	1bb4 <follow_path+0x2e2>
    1b26:	9b01      	ldr	r3, [sp, #4]
    1b28:	7818      	ldrb	r0, [r3, #0]
    1b2a:	2804      	cmp	r0, #4
    1b2c:	d137      	bne.n	1b9e <follow_path+0x2cc>
    1b2e:	68ab      	ldr	r3, [r5, #8]
    1b30:	79ea      	ldrb	r2, [r5, #7]
    1b32:	622b      	str	r3, [r5, #32]
    1b34:	692b      	ldr	r3, [r5, #16]
    1b36:	4629      	mov	r1, r5
    1b38:	f023 03ff 	bic.w	r3, r3, #255	; 0xff
    1b3c:	4313      	orrs	r3, r2
    1b3e:	626b      	str	r3, [r5, #36]	; 0x24
    1b40:	6ceb      	ldr	r3, [r5, #76]	; 0x4c
    1b42:	62ab      	str	r3, [r5, #40]	; 0x28
    1b44:	9b01      	ldr	r3, [sp, #4]
    1b46:	6918      	ldr	r0, [r3, #16]
    1b48:	f7ff fea6 	bl	1898 <init_alloc_info.isra.0>
    1b4c:	2600      	movs	r6, #0
    1b4e:	682b      	ldr	r3, [r5, #0]
    1b50:	f8d3 b00c 	ldr.w	fp, [r3, #12]
    1b54:	464f      	mov	r7, r9
    1b56:	f817 0b01 	ldrb.w	r0, [r7], #1
    1b5a:	2880      	cmp	r0, #128	; 0x80
    1b5c:	f63f aed8 	bhi.w	1910 <follow_path+0x3e>
    1b60:	2800      	cmp	r0, #0
    1b62:	f43f aef7 	beq.w	1954 <follow_path+0x82>
    1b66:	f44f 7169 	mov.w	r1, #932	; 0x3a4
    1b6a:	f7ff fffe 	bl	0 <ff_oem2uni>
    1b6e:	2800      	cmp	r0, #0
    1b70:	f43f aee7 	beq.w	1942 <follow_path+0x70>
    1b74:	281f      	cmp	r0, #31
    1b76:	f67f aeed 	bls.w	1954 <follow_path+0x82>
    1b7a:	282f      	cmp	r0, #47	; 0x2f
    1b7c:	f43f aeea 	beq.w	1954 <follow_path+0x82>
    1b80:	285c      	cmp	r0, #92	; 0x5c
    1b82:	f43f aee7 	beq.w	1954 <follow_path+0x82>
    1b86:	287f      	cmp	r0, #127	; 0x7f
    1b88:	f63f aedd 	bhi.w	1946 <follow_path+0x74>
    1b8c:	4a13      	ldr	r2, [pc, #76]	; (1bdc <follow_path+0x30a>)
    1b8e:	f812 3b01 	ldrb.w	r3, [r2], #1
    1b92:	2b00      	cmp	r3, #0
    1b94:	f43f aed7 	beq.w	1946 <follow_path+0x74>
    1b98:	4298      	cmp	r0, r3
    1b9a:	d1f8      	bne.n	1b8e <follow_path+0x2bc>
    1b9c:	e6d1      	b.n	1942 <follow_path+0x70>
    1b9e:	9b01      	ldr	r3, [sp, #4]
    1ba0:	f103 013c 	add.w	r1, r3, #60	; 0x3c
    1ba4:	6b2b      	ldr	r3, [r5, #48]	; 0x30
    1ba6:	f3c3 0308 	ubfx	r3, r3, #0, #9
    1baa:	4419      	add	r1, r3
    1bac:	f7ff fe89 	bl	18c2 <ld_clust.isra.0>
    1bb0:	60a8      	str	r0, [r5, #8]
    1bb2:	e7cb      	b.n	1b4c <follow_path+0x27a>
    1bb4:	2005      	movs	r0, #5
    1bb6:	e758      	b.n	1a6a <follow_path+0x198>
    1bb8:	f1a0 0141 	sub.w	r1, r0, #65	; 0x41
    1bbc:	b289      	uxth	r1, r1
    1bbe:	2919      	cmp	r1, #25
    1bc0:	d99c      	bls.n	1afc <follow_path+0x22a>
    1bc2:	f1a0 0161 	sub.w	r1, r0, #97	; 0x61
    1bc6:	b289      	uxth	r1, r1
    1bc8:	2919      	cmp	r1, #25
    1bca:	bf9e      	ittt	ls
    1bcc:	3820      	subls	r0, #32
    1bce:	f047 0701 	orrls.w	r7, r7, #1
    1bd2:	b280      	uxthls	r0, r0
    1bd4:	e77b      	b.n	1ace <follow_path+0x1fc>
    1bd6:	bf00      	nop
    1bd8:	0000001f 	.word	0x0000001f
    1bdc:	00000016 	.word	0x00000016

00001be0 <f_mount>:
    1be0:	b51f      	push	{r0, r1, r2, r3, r4, lr}
    1be2:	e9cd 1000 	strd	r1, r0, [sp]
    1be6:	a803      	add	r0, sp, #12
    1be8:	4614      	mov	r4, r2
    1bea:	9103      	str	r1, [sp, #12]
    1bec:	f7fe fa68 	bl	c0 <get_ldnumber>
    1bf0:	2800      	cmp	r0, #0
    1bf2:	db15      	blt.n	1c20 <f_mount+0x40>
    1bf4:	4a0b      	ldr	r2, [pc, #44]	; (1c24 <f_mount+0x44>)
    1bf6:	f852 3020 	ldr.w	r3, [r2, r0, lsl #2]
    1bfa:	b10b      	cbz	r3, 1c00 <f_mount+0x20>
    1bfc:	2100      	movs	r1, #0
    1bfe:	7019      	strb	r1, [r3, #0]
    1c00:	9b01      	ldr	r3, [sp, #4]
    1c02:	b10b      	cbz	r3, 1c08 <f_mount+0x28>
    1c04:	2100      	movs	r1, #0
    1c06:	7019      	strb	r1, [r3, #0]
    1c08:	f842 3020 	str.w	r3, [r2, r0, lsl #2]
    1c0c:	b12c      	cbz	r4, 1c1a <f_mount+0x3a>
    1c0e:	2200      	movs	r2, #0
    1c10:	4668      	mov	r0, sp
    1c12:	a901      	add	r1, sp, #4
    1c14:	f7fe fc68 	bl	4e8 <find_volume>
    1c18:	4604      	mov	r4, r0
    1c1a:	4620      	mov	r0, r4
    1c1c:	b004      	add	sp, #16
    1c1e:	bd10      	pop	{r4, pc}
    1c20:	240b      	movs	r4, #11
    1c22:	e7fa      	b.n	1c1a <f_mount+0x3a>
    1c24:	00000000 	.word	0x00000000

00001c28 <f_open>:
    1c28:	e92d 4ff0 	stmdb	sp!, {r4, r5, r6, r7, r8, r9, sl, fp, lr}
    1c2c:	b099      	sub	sp, #100	; 0x64
    1c2e:	4616      	mov	r6, r2
    1c30:	4604      	mov	r4, r0
    1c32:	9101      	str	r1, [sp, #4]
    1c34:	2800      	cmp	r0, #0
    1c36:	f000 8133 	beq.w	1ea0 <f_open+0x278>
    1c3a:	f002 093f 	and.w	r9, r2, #63	; 0x3f
    1c3e:	464a      	mov	r2, r9
    1c40:	a903      	add	r1, sp, #12
    1c42:	a801      	add	r0, sp, #4
    1c44:	f7fe fc50 	bl	4e8 <find_volume>
    1c48:	4607      	mov	r7, r0
    1c4a:	b948      	cbnz	r0, 1c60 <f_open+0x38>
    1c4c:	9d03      	ldr	r5, [sp, #12]
    1c4e:	9901      	ldr	r1, [sp, #4]
    1c50:	a804      	add	r0, sp, #16
    1c52:	9504      	str	r5, [sp, #16]
    1c54:	f7ff fe3d 	bl	18d2 <follow_path>
    1c58:	b148      	cbz	r0, 1c6e <f_open+0x46>
    1c5a:	f016 0f1c 	tst.w	r6, #28
    1c5e:	d11a      	bne.n	1c96 <f_open+0x6e>
    1c60:	2300      	movs	r3, #0
    1c62:	4607      	mov	r7, r0
    1c64:	6023      	str	r3, [r4, #0]
    1c66:	4638      	mov	r0, r7
    1c68:	b019      	add	sp, #100	; 0x64
    1c6a:	e8bd 8ff0 	ldmia.w	sp!, {r4, r5, r6, r7, r8, r9, sl, fp, pc}
    1c6e:	f99d 305b 	ldrsb.w	r3, [sp, #91]	; 0x5b
    1c72:	2b00      	cmp	r3, #0
    1c74:	f2c0 810e 	blt.w	1e94 <f_open+0x26c>
    1c78:	f016 0f1c 	tst.w	r6, #28
    1c7c:	f89d 3016 	ldrb.w	r3, [sp, #22]
    1c80:	f040 80a6 	bne.w	1dd0 <f_open+0x1a8>
    1c84:	06d8      	lsls	r0, r3, #27
    1c86:	f100 8107 	bmi.w	1e98 <f_open+0x270>
    1c8a:	07b1      	lsls	r1, r6, #30
    1c8c:	d542      	bpl.n	1d14 <f_open+0xec>
    1c8e:	07da      	lsls	r2, r3, #31
    1c90:	d540      	bpl.n	1d14 <f_open+0xec>
    1c92:	2007      	movs	r0, #7
    1c94:	e7e4      	b.n	1c60 <f_open+0x38>
    1c96:	2804      	cmp	r0, #4
    1c98:	d1e2      	bne.n	1c60 <f_open+0x38>
    1c9a:	a804      	add	r0, sp, #16
    1c9c:	f7ff fc26 	bl	14ec <dir_register>
    1ca0:	2800      	cmp	r0, #0
    1ca2:	d1dd      	bne.n	1c60 <f_open+0x38>
    1ca4:	f049 0908 	orr.w	r9, r9, #8
    1ca8:	f019 0f08 	tst.w	r9, #8
    1cac:	7828      	ldrb	r0, [r5, #0]
    1cae:	d036      	beq.n	1d1e <f_open+0xf6>
    1cb0:	2804      	cmp	r0, #4
    1cb2:	f040 8096 	bne.w	1de2 <f_open+0x1ba>
    1cb6:	692e      	ldr	r6, [r5, #16]
    1cb8:	4621      	mov	r1, r4
    1cba:	4630      	mov	r0, r6
    1cbc:	6025      	str	r5, [r4, #0]
    1cbe:	f7ff fdeb 	bl	1898 <init_alloc_info.isra.0>
    1cc2:	2100      	movs	r1, #0
    1cc4:	1cb0      	adds	r0, r6, #2
    1cc6:	221e      	movs	r2, #30
    1cc8:	f7fe f9b7 	bl	3a <mem_set>
    1ccc:	6928      	ldr	r0, [r5, #16]
    1cce:	221a      	movs	r2, #26
    1cd0:	3026      	adds	r0, #38	; 0x26
    1cd2:	f7fe f9b2 	bl	3a <mem_set>
    1cd6:	2220      	movs	r2, #32
    1cd8:	692b      	ldr	r3, [r5, #16]
    1cda:	711a      	strb	r2, [r3, #4]
    1cdc:	692e      	ldr	r6, [r5, #16]
    1cde:	f7ff fffe 	bl	0 <get_fattime>
    1ce2:	2201      	movs	r2, #1
    1ce4:	3608      	adds	r6, #8
    1ce6:	4601      	mov	r1, r0
    1ce8:	4630      	mov	r0, r6
    1cea:	f7fe f98f 	bl	c <st_dword>
    1cee:	692b      	ldr	r3, [r5, #16]
    1cf0:	a804      	add	r0, sp, #16
    1cf2:	f883 2021 	strb.w	r2, [r3, #33]	; 0x21
    1cf6:	f7ff fa37 	bl	1168 <store_xdir>
    1cfa:	2800      	cmp	r0, #0
    1cfc:	d1b0      	bne.n	1c60 <f_open+0x38>
    1cfe:	68a1      	ldr	r1, [r4, #8]
    1d00:	b141      	cbz	r1, 1d14 <f_open+0xec>
    1d02:	4602      	mov	r2, r0
    1d04:	4620      	mov	r0, r4
    1d06:	f7fe fe7b 	bl	a00 <remove_chain>
    1d0a:	68a6      	ldr	r6, [r4, #8]
    1d0c:	3e01      	subs	r6, #1
    1d0e:	616e      	str	r6, [r5, #20]
    1d10:	2800      	cmp	r0, #0
    1d12:	d1a5      	bne.n	1c60 <f_open+0x38>
    1d14:	f019 0f08 	tst.w	r9, #8
    1d18:	bf18      	it	ne
    1d1a:	f049 0940 	orrne.w	r9, r9, #64	; 0x40
    1d1e:	6bab      	ldr	r3, [r5, #56]	; 0x38
    1d20:	9913      	ldr	r1, [sp, #76]	; 0x4c
    1d22:	64a3      	str	r3, [r4, #72]	; 0x48
    1d24:	64e1      	str	r1, [r4, #76]	; 0x4c
    1d26:	7828      	ldrb	r0, [r5, #0]
    1d28:	2804      	cmp	r0, #4
    1d2a:	f040 808b 	bne.w	1e44 <f_open+0x21c>
    1d2e:	9b06      	ldr	r3, [sp, #24]
    1d30:	f89d 2017 	ldrb.w	r2, [sp, #23]
    1d34:	6223      	str	r3, [r4, #32]
    1d36:	9b08      	ldr	r3, [sp, #32]
    1d38:	4621      	mov	r1, r4
    1d3a:	f023 03ff 	bic.w	r3, r3, #255	; 0xff
    1d3e:	4313      	orrs	r3, r2
    1d40:	6263      	str	r3, [r4, #36]	; 0x24
    1d42:	9b17      	ldr	r3, [sp, #92]	; 0x5c
    1d44:	6928      	ldr	r0, [r5, #16]
    1d46:	62a3      	str	r3, [r4, #40]	; 0x28
    1d48:	f7ff fda6 	bl	1898 <init_alloc_info.isra.0>
    1d4c:	88eb      	ldrh	r3, [r5, #6]
    1d4e:	f04f 0a00 	mov.w	sl, #0
    1d52:	2200      	movs	r2, #0
    1d54:	80a3      	strh	r3, [r4, #4]
    1d56:	2300      	movs	r3, #0
    1d58:	f104 0850 	add.w	r8, r4, #80	; 0x50
    1d5c:	e9c4 230e 	strd	r2, r3, [r4, #56]	; 0x38
    1d60:	4651      	mov	r1, sl
    1d62:	f44f 7200 	mov.w	r2, #512	; 0x200
    1d66:	4640      	mov	r0, r8
    1d68:	6025      	str	r5, [r4, #0]
    1d6a:	f884 9030 	strb.w	r9, [r4, #48]	; 0x30
    1d6e:	f884 a031 	strb.w	sl, [r4, #49]	; 0x31
    1d72:	f8c4 a044 	str.w	sl, [r4, #68]	; 0x44
    1d76:	f7fe f960 	bl	3a <mem_set>
    1d7a:	f019 0f20 	tst.w	r9, #32
    1d7e:	f43f af72 	beq.w	1c66 <f_open+0x3e>
    1d82:	e9d4 6904 	ldrd	r6, r9, [r4, #16]
    1d86:	ea56 0309 	orrs.w	r3, r6, r9
    1d8a:	f43f af6c 	beq.w	1c66 <f_open+0x3e>
    1d8e:	f8b5 b00a 	ldrh.w	fp, [r5, #10]
    1d92:	e9c4 690e 	strd	r6, r9, [r4, #56]	; 0x38
    1d96:	ea4f 2b4b 	mov.w	fp, fp, lsl #9
    1d9a:	45b3      	cmp	fp, r6
    1d9c:	eb7a 0309 	sbcs.w	r3, sl, r9
    1da0:	68a1      	ldr	r1, [r4, #8]
    1da2:	d25a      	bcs.n	1e5a <f_open+0x232>
    1da4:	4620      	mov	r0, r4
    1da6:	f7fe fa80 	bl	2aa <get_fat>
    1daa:	ebb6 060b 	subs.w	r6, r6, fp
    1dae:	f169 0900 	sbc.w	r9, r9, #0
    1db2:	2801      	cmp	r0, #1
    1db4:	4601      	mov	r1, r0
    1db6:	d969      	bls.n	1e8c <f_open+0x264>
    1db8:	1c43      	adds	r3, r0, #1
    1dba:	d069      	beq.n	1e90 <f_open+0x268>
    1dbc:	45b3      	cmp	fp, r6
    1dbe:	eb7a 0309 	sbcs.w	r3, sl, r9
    1dc2:	d3ef      	bcc.n	1da4 <f_open+0x17c>
    1dc4:	2000      	movs	r0, #0
    1dc6:	6421      	str	r1, [r4, #64]	; 0x40
    1dc8:	2800      	cmp	r0, #0
    1dca:	f47f af49 	bne.w	1c60 <f_open+0x38>
    1dce:	e045      	b.n	1e5c <f_open+0x234>
    1dd0:	f013 0f11 	tst.w	r3, #17
    1dd4:	f47f af5d 	bne.w	1c92 <f_open+0x6a>
    1dd8:	0776      	lsls	r6, r6, #29
    1dda:	f57f af65 	bpl.w	1ca8 <f_open+0x80>
    1dde:	2008      	movs	r0, #8
    1de0:	e73e      	b.n	1c60 <f_open+0x38>
    1de2:	f8dd 804c 	ldr.w	r8, [sp, #76]	; 0x4c
    1de6:	4641      	mov	r1, r8
    1de8:	f7ff fd6b 	bl	18c2 <ld_clust.isra.0>
    1dec:	4606      	mov	r6, r0
    1dee:	f7ff fffe 	bl	0 <get_fattime>
    1df2:	4601      	mov	r1, r0
    1df4:	f108 000e 	add.w	r0, r8, #14
    1df8:	f7fe f908 	bl	c <st_dword>
    1dfc:	2320      	movs	r3, #32
    1dfe:	2200      	movs	r2, #0
    1e00:	f888 300b 	strb.w	r3, [r8, #11]
    1e04:	4641      	mov	r1, r8
    1e06:	4628      	mov	r0, r5
    1e08:	f7fe f9ed 	bl	1e6 <st_clust>
    1e0c:	2200      	movs	r2, #0
    1e0e:	2301      	movs	r3, #1
    1e10:	f888 201c 	strb.w	r2, [r8, #28]
    1e14:	f888 201d 	strb.w	r2, [r8, #29]
    1e18:	f888 201e 	strb.w	r2, [r8, #30]
    1e1c:	f888 201f 	strb.w	r2, [r8, #31]
    1e20:	70eb      	strb	r3, [r5, #3]
    1e22:	2e00      	cmp	r6, #0
    1e24:	f43f af76 	beq.w	1d14 <f_open+0xec>
    1e28:	4631      	mov	r1, r6
    1e2a:	a804      	add	r0, sp, #16
    1e2c:	f8d5 8038 	ldr.w	r8, [r5, #56]	; 0x38
    1e30:	f7fe fde6 	bl	a00 <remove_chain>
    1e34:	2800      	cmp	r0, #0
    1e36:	f47f af13 	bne.w	1c60 <f_open+0x38>
    1e3a:	4641      	mov	r1, r8
    1e3c:	4628      	mov	r0, r5
    1e3e:	f7fe f9de 	bl	1fe <move_window>
    1e42:	e763      	b.n	1d0c <f_open+0xe4>
    1e44:	f7ff fd3d 	bl	18c2 <ld_clust.isra.0>
    1e48:	60a0      	str	r0, [r4, #8]
    1e4a:	f101 001c 	add.w	r0, r1, #28
    1e4e:	f7fe f8d7 	bl	0 <ld_dword>
    1e52:	2300      	movs	r3, #0
    1e54:	6120      	str	r0, [r4, #16]
    1e56:	6163      	str	r3, [r4, #20]
    1e58:	e778      	b.n	1d4c <f_open+0x124>
    1e5a:	6421      	str	r1, [r4, #64]	; 0x40
    1e5c:	f3c6 0308 	ubfx	r3, r6, #0, #9
    1e60:	2b00      	cmp	r3, #0
    1e62:	f43f af00 	beq.w	1c66 <f_open+0x3e>
    1e66:	4628      	mov	r0, r5
    1e68:	f7fe f8fb 	bl	62 <clst2sect>
    1e6c:	b1b0      	cbz	r0, 1e9c <f_open+0x274>
    1e6e:	0a76      	lsrs	r6, r6, #9
    1e70:	ea46 56c9 	orr.w	r6, r6, r9, lsl #23
    1e74:	1982      	adds	r2, r0, r6
    1e76:	6462      	str	r2, [r4, #68]	; 0x44
    1e78:	2301      	movs	r3, #1
    1e7a:	4641      	mov	r1, r8
    1e7c:	7868      	ldrb	r0, [r5, #1]
    1e7e:	f7ff fffe 	bl	0 <disk_read>
    1e82:	2800      	cmp	r0, #0
    1e84:	f43f aeef 	beq.w	1c66 <f_open+0x3e>
    1e88:	2001      	movs	r0, #1
    1e8a:	e6e9      	b.n	1c60 <f_open+0x38>
    1e8c:	2002      	movs	r0, #2
    1e8e:	e79a      	b.n	1dc6 <f_open+0x19e>
    1e90:	2001      	movs	r0, #1
    1e92:	e798      	b.n	1dc6 <f_open+0x19e>
    1e94:	2006      	movs	r0, #6
    1e96:	e6e3      	b.n	1c60 <f_open+0x38>
    1e98:	2004      	movs	r0, #4
    1e9a:	e6e1      	b.n	1c60 <f_open+0x38>
    1e9c:	2002      	movs	r0, #2
    1e9e:	e6df      	b.n	1c60 <f_open+0x38>
    1ea0:	2709      	movs	r7, #9
    1ea2:	e6e0      	b.n	1c66 <f_open+0x3e>

00001ea4 <f_read>:
    1ea4:	e92d 4ff0 	stmdb	sp!, {r4, r5, r6, r7, r8, r9, sl, fp, lr}
    1ea8:	469a      	mov	sl, r3
    1eaa:	2300      	movs	r3, #0
    1eac:	b087      	sub	sp, #28
    1eae:	4688      	mov	r8, r1
    1eb0:	f8ca 3000 	str.w	r3, [sl]
    1eb4:	a905      	add	r1, sp, #20
    1eb6:	4604      	mov	r4, r0
    1eb8:	4616      	mov	r6, r2
    1eba:	f7fe f91e 	bl	fa <validate>
    1ebe:	4605      	mov	r5, r0
    1ec0:	bb90      	cbnz	r0, 1f28 <f_read+0x84>
    1ec2:	f894 5031 	ldrb.w	r5, [r4, #49]	; 0x31
    1ec6:	bb7d      	cbnz	r5, 1f28 <f_read+0x84>
    1ec8:	f894 3030 	ldrb.w	r3, [r4, #48]	; 0x30
    1ecc:	f013 0301 	ands.w	r3, r3, #1
    1ed0:	9301      	str	r3, [sp, #4]
    1ed2:	f000 80ab 	beq.w	202c <f_read+0x188>
    1ed6:	e9d4 3204 	ldrd	r3, r2, [r4, #16]
    1eda:	e9d4 010e 	ldrd	r0, r1, [r4, #56]	; 0x38
    1ede:	1a1b      	subs	r3, r3, r0
    1ee0:	eb62 0201 	sbc.w	r2, r2, r1
    1ee4:	42b3      	cmp	r3, r6
    1ee6:	f172 0200 	sbcs.w	r2, r2, #0
    1eea:	bf38      	it	cc
    1eec:	461e      	movcc	r6, r3
    1eee:	f104 0350 	add.w	r3, r4, #80	; 0x50
    1ef2:	9302      	str	r3, [sp, #8]
    1ef4:	b1c6      	cbz	r6, 1f28 <f_read+0x84>
    1ef6:	e9d4 010e 	ldrd	r0, r1, [r4, #56]	; 0x38
    1efa:	f3c0 0308 	ubfx	r3, r0, #0, #9
    1efe:	2b00      	cmp	r3, #0
    1f00:	f040 8085 	bne.w	200e <f_read+0x16a>
    1f04:	f8dd 9014 	ldr.w	r9, [sp, #20]
    1f08:	0a43      	lsrs	r3, r0, #9
    1f0a:	f8b9 200a 	ldrh.w	r2, [r9, #10]
    1f0e:	ea43 53c1 	orr.w	r3, r3, r1, lsl #23
    1f12:	3a01      	subs	r2, #1
    1f14:	401a      	ands	r2, r3
    1f16:	d11a      	bne.n	1f4e <f_read+0xaa>
    1f18:	4301      	orrs	r1, r0
    1f1a:	d109      	bne.n	1f30 <f_read+0x8c>
    1f1c:	68a0      	ldr	r0, [r4, #8]
    1f1e:	2801      	cmp	r0, #1
    1f20:	d80d      	bhi.n	1f3e <f_read+0x9a>
    1f22:	2502      	movs	r5, #2
    1f24:	f884 5031 	strb.w	r5, [r4, #49]	; 0x31
    1f28:	4628      	mov	r0, r5
    1f2a:	b007      	add	sp, #28
    1f2c:	e8bd 8ff0 	ldmia.w	sp!, {r4, r5, r6, r7, r8, r9, sl, fp, pc}
    1f30:	4620      	mov	r0, r4
    1f32:	6c21      	ldr	r1, [r4, #64]	; 0x40
    1f34:	9203      	str	r2, [sp, #12]
    1f36:	f7fe f9b8 	bl	2aa <get_fat>
    1f3a:	9a03      	ldr	r2, [sp, #12]
    1f3c:	e7ef      	b.n	1f1e <f_read+0x7a>
    1f3e:	1c43      	adds	r3, r0, #1
    1f40:	d104      	bne.n	1f4c <f_read+0xa8>
    1f42:	2301      	movs	r3, #1
    1f44:	9d01      	ldr	r5, [sp, #4]
    1f46:	f884 3031 	strb.w	r3, [r4, #49]	; 0x31
    1f4a:	e7ed      	b.n	1f28 <f_read+0x84>
    1f4c:	6420      	str	r0, [r4, #64]	; 0x40
    1f4e:	4648      	mov	r0, r9
    1f50:	6c21      	ldr	r1, [r4, #64]	; 0x40
    1f52:	f7fe f886 	bl	62 <clst2sect>
    1f56:	2800      	cmp	r0, #0
    1f58:	d0e3      	beq.n	1f22 <f_read+0x7e>
    1f5a:	f5b6 7f00 	cmp.w	r6, #512	; 0x200
    1f5e:	eb02 0700 	add.w	r7, r2, r0
    1f62:	d333      	bcc.n	1fcc <f_read+0x128>
    1f64:	f8b9 100a 	ldrh.w	r1, [r9, #10]
    1f68:	eb02 2056 	add.w	r0, r2, r6, lsr #9
    1f6c:	4288      	cmp	r0, r1
    1f6e:	ea4f 2b56 	mov.w	fp, r6, lsr #9
    1f72:	bf88      	it	hi
    1f74:	eba1 0b02 	subhi.w	fp, r1, r2
    1f78:	465b      	mov	r3, fp
    1f7a:	463a      	mov	r2, r7
    1f7c:	4641      	mov	r1, r8
    1f7e:	f899 0001 	ldrb.w	r0, [r9, #1]
    1f82:	f7ff fffe 	bl	0 <disk_read>
    1f86:	2800      	cmp	r0, #0
    1f88:	d1db      	bne.n	1f42 <f_read+0x9e>
    1f8a:	f994 2030 	ldrsb.w	r2, [r4, #48]	; 0x30
    1f8e:	2a00      	cmp	r2, #0
    1f90:	da0b      	bge.n	1faa <f_read+0x106>
    1f92:	6c60      	ldr	r0, [r4, #68]	; 0x44
    1f94:	1bc0      	subs	r0, r0, r7
    1f96:	4558      	cmp	r0, fp
    1f98:	d207      	bcs.n	1faa <f_read+0x106>
    1f9a:	f44f 7200 	mov.w	r2, #512	; 0x200
    1f9e:	f104 0150 	add.w	r1, r4, #80	; 0x50
    1fa2:	eb08 2040 	add.w	r0, r8, r0, lsl #9
    1fa6:	f7fe f915 	bl	1d4 <mem_cpy.part.0>
    1faa:	ea4f 274b 	mov.w	r7, fp, lsl #9
    1fae:	f8da 3000 	ldr.w	r3, [sl]
    1fb2:	1bf6      	subs	r6, r6, r7
    1fb4:	443b      	add	r3, r7
    1fb6:	f8ca 3000 	str.w	r3, [sl]
    1fba:	e9d4 320e 	ldrd	r3, r2, [r4, #56]	; 0x38
    1fbe:	19db      	adds	r3, r3, r7
    1fc0:	f142 0200 	adc.w	r2, r2, #0
    1fc4:	e9c4 320e 	strd	r3, r2, [r4, #56]	; 0x38
    1fc8:	44b8      	add	r8, r7
    1fca:	e793      	b.n	1ef4 <f_read+0x50>
    1fcc:	6c62      	ldr	r2, [r4, #68]	; 0x44
    1fce:	42ba      	cmp	r2, r7
    1fd0:	d01c      	beq.n	200c <f_read+0x168>
    1fd2:	f994 3030 	ldrsb.w	r3, [r4, #48]	; 0x30
    1fd6:	f899 0001 	ldrb.w	r0, [r9, #1]
    1fda:	2b00      	cmp	r3, #0
    1fdc:	f104 0150 	add.w	r1, r4, #80	; 0x50
    1fe0:	da0c      	bge.n	1ffc <f_read+0x158>
    1fe2:	2301      	movs	r3, #1
    1fe4:	9103      	str	r1, [sp, #12]
    1fe6:	f7ff fffe 	bl	0 <disk_write>
    1fea:	2800      	cmp	r0, #0
    1fec:	d1a9      	bne.n	1f42 <f_read+0x9e>
    1fee:	f894 3030 	ldrb.w	r3, [r4, #48]	; 0x30
    1ff2:	9903      	ldr	r1, [sp, #12]
    1ff4:	f003 037f 	and.w	r3, r3, #127	; 0x7f
    1ff8:	f884 3030 	strb.w	r3, [r4, #48]	; 0x30
    1ffc:	2301      	movs	r3, #1
    1ffe:	463a      	mov	r2, r7
    2000:	f899 0001 	ldrb.w	r0, [r9, #1]
    2004:	f7ff fffe 	bl	0 <disk_read>
    2008:	2800      	cmp	r0, #0
    200a:	d19a      	bne.n	1f42 <f_read+0x9e>
    200c:	6467      	str	r7, [r4, #68]	; 0x44
    200e:	6ba1      	ldr	r1, [r4, #56]	; 0x38
    2010:	9b02      	ldr	r3, [sp, #8]
    2012:	f3c1 0108 	ubfx	r1, r1, #0, #9
    2016:	f5c1 7700 	rsb	r7, r1, #512	; 0x200
    201a:	42b7      	cmp	r7, r6
    201c:	bf28      	it	cs
    201e:	4637      	movcs	r7, r6
    2020:	4640      	mov	r0, r8
    2022:	463a      	mov	r2, r7
    2024:	4419      	add	r1, r3
    2026:	f7fe f8d5 	bl	1d4 <mem_cpy.part.0>
    202a:	e7c0      	b.n	1fae <f_read+0x10a>
    202c:	2507      	movs	r5, #7
    202e:	e77b      	b.n	1f28 <f_read+0x84>

00002030 <f_write>:
    2030:	e92d 4ff0 	stmdb	sp!, {r4, r5, r6, r7, r8, r9, sl, fp, lr}
    2034:	469a      	mov	sl, r3
    2036:	2300      	movs	r3, #0
    2038:	b085      	sub	sp, #20
    203a:	4689      	mov	r9, r1
    203c:	f8ca 3000 	str.w	r3, [sl]
    2040:	a903      	add	r1, sp, #12
    2042:	4604      	mov	r4, r0
    2044:	4617      	mov	r7, r2
    2046:	f7fe f858 	bl	fa <validate>
    204a:	4606      	mov	r6, r0
    204c:	bb98      	cbnz	r0, 20b6 <f_write+0x86>
    204e:	f894 6031 	ldrb.w	r6, [r4, #49]	; 0x31
    2052:	bb86      	cbnz	r6, 20b6 <f_write+0x86>
    2054:	f894 3030 	ldrb.w	r3, [r4, #48]	; 0x30
    2058:	079a      	lsls	r2, r3, #30
    205a:	f140 80cb 	bpl.w	21f4 <f_write+0x1c4>
    205e:	f8dd 800c 	ldr.w	r8, [sp, #12]
    2062:	f898 3000 	ldrb.w	r3, [r8]
    2066:	2b04      	cmp	r3, #4
    2068:	d003      	beq.n	2072 <f_write+0x42>
    206a:	6ba3      	ldr	r3, [r4, #56]	; 0x38
    206c:	42fb      	cmn	r3, r7
    206e:	bf28      	it	cs
    2070:	43df      	mvncs	r7, r3
    2072:	f104 0350 	add.w	r3, r4, #80	; 0x50
    2076:	9300      	str	r3, [sp, #0]
    2078:	b1bf      	cbz	r7, 20aa <f_write+0x7a>
    207a:	e9d4 310e 	ldrd	r3, r1, [r4, #56]	; 0x38
    207e:	f3c3 0208 	ubfx	r2, r3, #0, #9
    2082:	2a00      	cmp	r2, #0
    2084:	f040 80a1 	bne.w	21ca <f_write+0x19a>
    2088:	f8b8 500a 	ldrh.w	r5, [r8, #10]
    208c:	0a5a      	lsrs	r2, r3, #9
    208e:	3d01      	subs	r5, #1
    2090:	ea42 52c1 	orr.w	r2, r2, r1, lsl #23
    2094:	4015      	ands	r5, r2
    2096:	d122      	bne.n	20de <f_write+0xae>
    2098:	430b      	orrs	r3, r1
    209a:	d110      	bne.n	20be <f_write+0x8e>
    209c:	68a1      	ldr	r1, [r4, #8]
    209e:	b981      	cbnz	r1, 20c2 <f_write+0x92>
    20a0:	4620      	mov	r0, r4
    20a2:	f7fe fe75 	bl	d90 <create_chain>
    20a6:	4601      	mov	r1, r0
    20a8:	b958      	cbnz	r0, 20c2 <f_write+0x92>
    20aa:	f894 3030 	ldrb.w	r3, [r4, #48]	; 0x30
    20ae:	f043 0340 	orr.w	r3, r3, #64	; 0x40
    20b2:	f884 3030 	strb.w	r3, [r4, #48]	; 0x30
    20b6:	4630      	mov	r0, r6
    20b8:	b005      	add	sp, #20
    20ba:	e8bd 8ff0 	ldmia.w	sp!, {r4, r5, r6, r7, r8, r9, sl, fp, pc}
    20be:	6c21      	ldr	r1, [r4, #64]	; 0x40
    20c0:	e7ee      	b.n	20a0 <f_write+0x70>
    20c2:	2901      	cmp	r1, #1
    20c4:	d103      	bne.n	20ce <f_write+0x9e>
    20c6:	2602      	movs	r6, #2
    20c8:	f884 6031 	strb.w	r6, [r4, #49]	; 0x31
    20cc:	e7f3      	b.n	20b6 <f_write+0x86>
    20ce:	1c4b      	adds	r3, r1, #1
    20d0:	d101      	bne.n	20d6 <f_write+0xa6>
    20d2:	2601      	movs	r6, #1
    20d4:	e7f8      	b.n	20c8 <f_write+0x98>
    20d6:	68a3      	ldr	r3, [r4, #8]
    20d8:	6421      	str	r1, [r4, #64]	; 0x40
    20da:	b903      	cbnz	r3, 20de <f_write+0xae>
    20dc:	60a1      	str	r1, [r4, #8]
    20de:	f994 3030 	ldrsb.w	r3, [r4, #48]	; 0x30
    20e2:	2b00      	cmp	r3, #0
    20e4:	da0f      	bge.n	2106 <f_write+0xd6>
    20e6:	2301      	movs	r3, #1
    20e8:	6c62      	ldr	r2, [r4, #68]	; 0x44
    20ea:	f898 0001 	ldrb.w	r0, [r8, #1]
    20ee:	f104 0150 	add.w	r1, r4, #80	; 0x50
    20f2:	f7ff fffe 	bl	0 <disk_write>
    20f6:	2800      	cmp	r0, #0
    20f8:	d1eb      	bne.n	20d2 <f_write+0xa2>
    20fa:	f894 3030 	ldrb.w	r3, [r4, #48]	; 0x30
    20fe:	f003 037f 	and.w	r3, r3, #127	; 0x7f
    2102:	f884 3030 	strb.w	r3, [r4, #48]	; 0x30
    2106:	4640      	mov	r0, r8
    2108:	6c21      	ldr	r1, [r4, #64]	; 0x40
    210a:	f7fd ffaa 	bl	62 <clst2sect>
    210e:	2800      	cmp	r0, #0
    2110:	d0d9      	beq.n	20c6 <f_write+0x96>
    2112:	f5b7 7f00 	cmp.w	r7, #512	; 0x200
    2116:	eb05 0b00 	add.w	fp, r5, r0
    211a:	d340      	bcc.n	219e <f_write+0x16e>
    211c:	f8b8 100a 	ldrh.w	r1, [r8, #10]
    2120:	eb05 2057 	add.w	r0, r5, r7, lsr #9
    2124:	4288      	cmp	r0, r1
    2126:	ea4f 2357 	mov.w	r3, r7, lsr #9
    212a:	465a      	mov	r2, fp
    212c:	bf88      	it	hi
    212e:	1b4b      	subhi	r3, r1, r5
    2130:	f898 0001 	ldrb.w	r0, [r8, #1]
    2134:	4649      	mov	r1, r9
    2136:	9301      	str	r3, [sp, #4]
    2138:	f7ff fffe 	bl	0 <disk_write>
    213c:	2800      	cmp	r0, #0
    213e:	d1c8      	bne.n	20d2 <f_write+0xa2>
    2140:	6c61      	ldr	r1, [r4, #68]	; 0x44
    2142:	9b01      	ldr	r3, [sp, #4]
    2144:	eba1 010b 	sub.w	r1, r1, fp
    2148:	4299      	cmp	r1, r3
    214a:	d20e      	bcs.n	216a <f_write+0x13a>
    214c:	f44f 7200 	mov.w	r2, #512	; 0x200
    2150:	eb09 2141 	add.w	r1, r9, r1, lsl #9
    2154:	f104 0050 	add.w	r0, r4, #80	; 0x50
    2158:	f7fe f83c 	bl	1d4 <mem_cpy.part.0>
    215c:	f894 2030 	ldrb.w	r2, [r4, #48]	; 0x30
    2160:	9b01      	ldr	r3, [sp, #4]
    2162:	f002 027f 	and.w	r2, r2, #127	; 0x7f
    2166:	f884 2030 	strb.w	r2, [r4, #48]	; 0x30
    216a:	025d      	lsls	r5, r3, #9
    216c:	f8da 3000 	ldr.w	r3, [sl]
    2170:	1b7f      	subs	r7, r7, r5
    2172:	442b      	add	r3, r5
    2174:	f8ca 3000 	str.w	r3, [sl]
    2178:	44a9      	add	r9, r5
    217a:	e9d4 230e 	ldrd	r2, r3, [r4, #56]	; 0x38
    217e:	18ad      	adds	r5, r5, r2
    2180:	f143 0300 	adc.w	r3, r3, #0
    2184:	e9d4 1204 	ldrd	r1, r2, [r4, #16]
    2188:	42a9      	cmp	r1, r5
    218a:	eb72 0003 	sbcs.w	r0, r2, r3
    218e:	bf3c      	itt	cc
    2190:	4629      	movcc	r1, r5
    2192:	461a      	movcc	r2, r3
    2194:	e9c4 530e 	strd	r5, r3, [r4, #56]	; 0x38
    2198:	e9c4 1204 	strd	r1, r2, [r4, #16]
    219c:	e76c      	b.n	2078 <f_write+0x48>
    219e:	6c61      	ldr	r1, [r4, #68]	; 0x44
    21a0:	e9d4 530e 	ldrd	r5, r3, [r4, #56]	; 0x38
    21a4:	4559      	cmp	r1, fp
    21a6:	d00e      	beq.n	21c6 <f_write+0x196>
    21a8:	e9d4 0104 	ldrd	r0, r1, [r4, #16]
    21ac:	4285      	cmp	r5, r0
    21ae:	418b      	sbcs	r3, r1
    21b0:	d209      	bcs.n	21c6 <f_write+0x196>
    21b2:	2301      	movs	r3, #1
    21b4:	465a      	mov	r2, fp
    21b6:	f898 0001 	ldrb.w	r0, [r8, #1]
    21ba:	f104 0150 	add.w	r1, r4, #80	; 0x50
    21be:	f7ff fffe 	bl	0 <disk_read>
    21c2:	2800      	cmp	r0, #0
    21c4:	d185      	bne.n	20d2 <f_write+0xa2>
    21c6:	f8c4 b044 	str.w	fp, [r4, #68]	; 0x44
    21ca:	6ba0      	ldr	r0, [r4, #56]	; 0x38
    21cc:	9b00      	ldr	r3, [sp, #0]
    21ce:	f3c0 0008 	ubfx	r0, r0, #0, #9
    21d2:	f5c0 7500 	rsb	r5, r0, #512	; 0x200
    21d6:	42bd      	cmp	r5, r7
    21d8:	bf28      	it	cs
    21da:	463d      	movcs	r5, r7
    21dc:	4418      	add	r0, r3
    21de:	462a      	mov	r2, r5
    21e0:	4649      	mov	r1, r9
    21e2:	f7fd fff7 	bl	1d4 <mem_cpy.part.0>
    21e6:	f894 3030 	ldrb.w	r3, [r4, #48]	; 0x30
    21ea:	f063 037f 	orn	r3, r3, #127	; 0x7f
    21ee:	f884 3030 	strb.w	r3, [r4, #48]	; 0x30
    21f2:	e7bb      	b.n	216c <f_write+0x13c>
    21f4:	2607      	movs	r6, #7
    21f6:	e75e      	b.n	20b6 <f_write+0x86>

000021f8 <f_sync>:
    21f8:	e92d 41f0 	stmdb	sp!, {r4, r5, r6, r7, r8, lr}
    21fc:	b096      	sub	sp, #88	; 0x58
    21fe:	a901      	add	r1, sp, #4
    2200:	4605      	mov	r5, r0
    2202:	f7fd ff7a 	bl	fa <validate>
    2206:	4604      	mov	r4, r0
    2208:	2800      	cmp	r0, #0
    220a:	d17d      	bne.n	2308 <f_sync+0x110>
    220c:	f895 3030 	ldrb.w	r3, [r5, #48]	; 0x30
    2210:	f013 0440 	ands.w	r4, r3, #64	; 0x40
    2214:	d078      	beq.n	2308 <f_sync+0x110>
    2216:	061b      	lsls	r3, r3, #24
    2218:	9e01      	ldr	r6, [sp, #4]
    221a:	d50f      	bpl.n	223c <f_sync+0x44>
    221c:	2301      	movs	r3, #1
    221e:	6c6a      	ldr	r2, [r5, #68]	; 0x44
    2220:	7870      	ldrb	r0, [r6, #1]
    2222:	f105 0150 	add.w	r1, r5, #80	; 0x50
    2226:	f7ff fffe 	bl	0 <disk_write>
    222a:	2800      	cmp	r0, #0
    222c:	f040 8090 	bne.w	2350 <f_sync+0x158>
    2230:	f895 3030 	ldrb.w	r3, [r5, #48]	; 0x30
    2234:	f003 037f 	and.w	r3, r3, #127	; 0x7f
    2238:	f885 3030 	strb.w	r3, [r5, #48]	; 0x30
    223c:	f7ff fffe 	bl	0 <get_fattime>
    2240:	7833      	ldrb	r3, [r6, #0]
    2242:	4680      	mov	r8, r0
    2244:	2b04      	cmp	r3, #4
    2246:	d163      	bne.n	2310 <f_sync+0x118>
    2248:	4628      	mov	r0, r5
    224a:	f7fe fbc1 	bl	9d0 <fill_first_frag>
    224e:	4604      	mov	r4, r0
    2250:	2800      	cmp	r0, #0
    2252:	d159      	bne.n	2308 <f_sync+0x110>
    2254:	f04f 32ff 	mov.w	r2, #4294967295	; 0xffffffff
    2258:	4628      	mov	r0, r5
    225a:	6c29      	ldr	r1, [r5, #64]	; 0x40
    225c:	f7fe fba0 	bl	9a0 <fill_last_frag>
    2260:	4604      	mov	r4, r0
    2262:	2800      	cmp	r0, #0
    2264:	d150      	bne.n	2308 <f_sync+0x110>
    2266:	682b      	ldr	r3, [r5, #0]
    2268:	6aa9      	ldr	r1, [r5, #40]	; 0x28
    226a:	9302      	str	r3, [sp, #8]
    226c:	6a2b      	ldr	r3, [r5, #32]
    226e:	9009      	str	r0, [sp, #36]	; 0x24
    2270:	9304      	str	r3, [sp, #16]
    2272:	6a6b      	ldr	r3, [r5, #36]	; 0x24
    2274:	9115      	str	r1, [sp, #84]	; 0x54
    2276:	f88d 300f 	strb.w	r3, [sp, #15]
    227a:	f023 03ff 	bic.w	r3, r3, #255	; 0xff
    227e:	e9cd 3006 	strd	r3, r0, [sp, #24]
    2282:	a802      	add	r0, sp, #8
    2284:	f7fe f8a6 	bl	3d4 <dir_sdi>
    2288:	4604      	mov	r4, r0
    228a:	2800      	cmp	r0, #0
    228c:	d13c      	bne.n	2308 <f_sync+0x110>
    228e:	a802      	add	r0, sp, #8
    2290:	f7fe fedb 	bl	104a <load_xdir>
    2294:	4604      	mov	r4, r0
    2296:	2800      	cmp	r0, #0
    2298:	d136      	bne.n	2308 <f_sync+0x110>
    229a:	6932      	ldr	r2, [r6, #16]
    229c:	7913      	ldrb	r3, [r2, #4]
    229e:	f043 0320 	orr.w	r3, r3, #32
    22a2:	7113      	strb	r3, [r2, #4]
    22a4:	79eb      	ldrb	r3, [r5, #7]
    22a6:	6932      	ldr	r2, [r6, #16]
    22a8:	f043 0301 	orr.w	r3, r3, #1
    22ac:	f882 3021 	strb.w	r3, [r2, #33]	; 0x21
    22b0:	6930      	ldr	r0, [r6, #16]
    22b2:	68a9      	ldr	r1, [r5, #8]
    22b4:	3034      	adds	r0, #52	; 0x34
    22b6:	f7fd fea9 	bl	c <st_dword>
    22ba:	e9d5 2304 	ldrd	r2, r3, [r5, #16]
    22be:	6930      	ldr	r0, [r6, #16]
    22c0:	3038      	adds	r0, #56	; 0x38
    22c2:	f7fd feab 	bl	1c <st_qword>
    22c6:	e9d5 2304 	ldrd	r2, r3, [r5, #16]
    22ca:	6930      	ldr	r0, [r6, #16]
    22cc:	3028      	adds	r0, #40	; 0x28
    22ce:	f7fd fea5 	bl	1c <st_qword>
    22d2:	6930      	ldr	r0, [r6, #16]
    22d4:	4641      	mov	r1, r8
    22d6:	300c      	adds	r0, #12
    22d8:	f7fd fe98 	bl	c <st_dword>
    22dc:	6933      	ldr	r3, [r6, #16]
    22de:	a802      	add	r0, sp, #8
    22e0:	755c      	strb	r4, [r3, #21]
    22e2:	6933      	ldr	r3, [r6, #16]
    22e4:	741c      	strb	r4, [r3, #16]
    22e6:	745c      	strb	r4, [r3, #17]
    22e8:	749c      	strb	r4, [r3, #18]
    22ea:	74dc      	strb	r4, [r3, #19]
    22ec:	f7fe ff3c 	bl	1168 <store_xdir>
    22f0:	4604      	mov	r4, r0
    22f2:	b948      	cbnz	r0, 2308 <f_sync+0x110>
    22f4:	4630      	mov	r0, r6
    22f6:	f7fe fc2b 	bl	b50 <sync_fs>
    22fa:	4604      	mov	r4, r0
    22fc:	f895 3030 	ldrb.w	r3, [r5, #48]	; 0x30
    2300:	f023 0340 	bic.w	r3, r3, #64	; 0x40
    2304:	f885 3030 	strb.w	r3, [r5, #48]	; 0x30
    2308:	4620      	mov	r0, r4
    230a:	b016      	add	sp, #88	; 0x58
    230c:	e8bd 81f0 	ldmia.w	sp!, {r4, r5, r6, r7, r8, pc}
    2310:	4630      	mov	r0, r6
    2312:	6ca9      	ldr	r1, [r5, #72]	; 0x48
    2314:	f7fd ff73 	bl	1fe <move_window>
    2318:	4604      	mov	r4, r0
    231a:	2800      	cmp	r0, #0
    231c:	d1f4      	bne.n	2308 <f_sync+0x110>
    231e:	6cef      	ldr	r7, [r5, #76]	; 0x4c
    2320:	7afb      	ldrb	r3, [r7, #11]
    2322:	4639      	mov	r1, r7
    2324:	f043 0320 	orr.w	r3, r3, #32
    2328:	72fb      	strb	r3, [r7, #11]
    232a:	6828      	ldr	r0, [r5, #0]
    232c:	68aa      	ldr	r2, [r5, #8]
    232e:	f7fd ff5a 	bl	1e6 <st_clust>
    2332:	6929      	ldr	r1, [r5, #16]
    2334:	f107 001c 	add.w	r0, r7, #28
    2338:	f7fd fe68 	bl	c <st_dword>
    233c:	4641      	mov	r1, r8
    233e:	f107 0016 	add.w	r0, r7, #22
    2342:	f7fd fe63 	bl	c <st_dword>
    2346:	2301      	movs	r3, #1
    2348:	74bc      	strb	r4, [r7, #18]
    234a:	74fc      	strb	r4, [r7, #19]
    234c:	70f3      	strb	r3, [r6, #3]
    234e:	e7d1      	b.n	22f4 <f_sync+0xfc>
    2350:	2401      	movs	r4, #1
    2352:	e7d9      	b.n	2308 <f_sync+0x110>

00002354 <f_close>:
    2354:	b513      	push	{r0, r1, r4, lr}
    2356:	4604      	mov	r4, r0
    2358:	f7ff fffe 	bl	21f8 <f_sync>
    235c:	b928      	cbnz	r0, 236a <f_close+0x16>
    235e:	4620      	mov	r0, r4
    2360:	a901      	add	r1, sp, #4
    2362:	f7fd feca 	bl	fa <validate>
    2366:	b900      	cbnz	r0, 236a <f_close+0x16>
    2368:	6020      	str	r0, [r4, #0]
    236a:	b002      	add	sp, #8
    236c:	bd10      	pop	{r4, pc}

0000236e <f_lseek>:
    236e:	e92d 4ff0 	stmdb	sp!, {r4, r5, r6, r7, r8, r9, sl, fp, lr}
    2372:	b085      	sub	sp, #20
    2374:	a903      	add	r1, sp, #12
    2376:	4604      	mov	r4, r0
    2378:	4615      	mov	r5, r2
    237a:	461e      	mov	r6, r3
    237c:	f7fd febd 	bl	fa <validate>
    2380:	4607      	mov	r7, r0
    2382:	2800      	cmp	r0, #0
    2384:	f040 80c1 	bne.w	250a <f_lseek+0x19c>
    2388:	f894 7031 	ldrb.w	r7, [r4, #49]	; 0x31
    238c:	2f00      	cmp	r7, #0
    238e:	f040 80bc 	bne.w	250a <f_lseek+0x19c>
    2392:	f8dd 900c 	ldr.w	r9, [sp, #12]
    2396:	f899 3000 	ldrb.w	r3, [r9]
    239a:	2b04      	cmp	r3, #4
    239c:	d10c      	bne.n	23b8 <f_lseek+0x4a>
    239e:	f04f 32ff 	mov.w	r2, #4294967295	; 0xffffffff
    23a2:	4620      	mov	r0, r4
    23a4:	6c21      	ldr	r1, [r4, #64]	; 0x40
    23a6:	f7fe fafb 	bl	9a0 <fill_last_frag>
    23aa:	b108      	cbz	r0, 23b0 <f_lseek+0x42>
    23ac:	4607      	mov	r7, r0
    23ae:	e0ac      	b.n	250a <f_lseek+0x19c>
    23b0:	f899 3000 	ldrb.w	r3, [r9]
    23b4:	2b04      	cmp	r3, #4
    23b6:	d004      	beq.n	23c2 <f_lseek+0x54>
    23b8:	2e00      	cmp	r6, #0
    23ba:	bf1c      	itt	ne
    23bc:	f04f 35ff 	movne.w	r5, #4294967295	; 0xffffffff
    23c0:	2600      	movne	r6, #0
    23c2:	e9d4 0104 	ldrd	r0, r1, [r4, #16]
    23c6:	e9d4 320e 	ldrd	r3, r2, [r4, #56]	; 0x38
    23ca:	42a8      	cmp	r0, r5
    23cc:	eb71 0c06 	sbcs.w	ip, r1, r6
    23d0:	d236      	bcs.n	2440 <f_lseek+0xd2>
    23d2:	f894 c030 	ldrb.w	ip, [r4, #48]	; 0x30
    23d6:	f01c 0f02 	tst.w	ip, #2
    23da:	d02f      	beq.n	243c <f_lseek+0xce>
    23dc:	2000      	movs	r0, #0
    23de:	2100      	movs	r1, #0
    23e0:	e9c4 010e 	strd	r0, r1, [r4, #56]	; 0x38
    23e4:	f8b9 800a 	ldrh.w	r8, [r9, #10]
    23e8:	ea53 0102 	orrs.w	r1, r3, r2
    23ec:	ea4f 2848 	mov.w	r8, r8, lsl #9
    23f0:	d063      	beq.n	24ba <f_lseek+0x14c>
    23f2:	f113 3bff 	adds.w	fp, r3, #4294967295	; 0xffffffff
    23f6:	f142 3aff 	adc.w	sl, r2, #4294967295	; 0xffffffff
    23fa:	1e68      	subs	r0, r5, #1
    23fc:	f166 0100 	sbc.w	r1, r6, #0
    2400:	4642      	mov	r2, r8
    2402:	2300      	movs	r3, #0
    2404:	f7ff fffe 	bl	0 <__aeabi_uldivmod>
    2408:	2300      	movs	r3, #0
    240a:	e9cd 0100 	strd	r0, r1, [sp]
    240e:	4642      	mov	r2, r8
    2410:	4658      	mov	r0, fp
    2412:	4651      	mov	r1, sl
    2414:	f7ff fffe 	bl	0 <__aeabi_uldivmod>
    2418:	9b00      	ldr	r3, [sp, #0]
    241a:	4283      	cmp	r3, r0
    241c:	9b01      	ldr	r3, [sp, #4]
    241e:	418b      	sbcs	r3, r1
    2420:	d34b      	bcc.n	24ba <f_lseek+0x14c>
    2422:	f1c8 0300 	rsb	r3, r8, #0
    2426:	ea03 030b 	and.w	r3, r3, fp
    242a:	e9c4 3a0e 	strd	r3, sl, [r4, #56]	; 0x38
    242e:	1aeb      	subs	r3, r5, r3
    2430:	461d      	mov	r5, r3
    2432:	6c21      	ldr	r1, [r4, #64]	; 0x40
    2434:	eb66 060a 	sbc.w	r6, r6, sl
    2438:	b149      	cbz	r1, 244e <f_lseek+0xe0>
    243a:	e041      	b.n	24c0 <f_lseek+0x152>
    243c:	4605      	mov	r5, r0
    243e:	460e      	mov	r6, r1
    2440:	2100      	movs	r1, #0
    2442:	2000      	movs	r0, #0
    2444:	e9c4 010e 	strd	r0, r1, [r4, #56]	; 0x38
    2448:	ea55 0106 	orrs.w	r1, r5, r6
    244c:	d1ca      	bne.n	23e4 <f_lseek+0x76>
    244e:	2500      	movs	r5, #0
    2450:	e9d4 320e 	ldrd	r3, r2, [r4, #56]	; 0x38
    2454:	e9d4 0104 	ldrd	r0, r1, [r4, #16]
    2458:	4298      	cmp	r0, r3
    245a:	4191      	sbcs	r1, r2
    245c:	bf3c      	itt	cc
    245e:	e9c4 3204 	strdcc	r3, r2, [r4, #16]
    2462:	f894 2030 	ldrbcc.w	r2, [r4, #48]	; 0x30
    2466:	f3c3 0308 	ubfx	r3, r3, #0, #9
    246a:	bf3c      	itt	cc
    246c:	f042 0240 	orrcc.w	r2, r2, #64	; 0x40
    2470:	f884 2030 	strbcc.w	r2, [r4, #48]	; 0x30
    2474:	2b00      	cmp	r3, #0
    2476:	d048      	beq.n	250a <f_lseek+0x19c>
    2478:	6c62      	ldr	r2, [r4, #68]	; 0x44
    247a:	42aa      	cmp	r2, r5
    247c:	d045      	beq.n	250a <f_lseek+0x19c>
    247e:	f994 3030 	ldrsb.w	r3, [r4, #48]	; 0x30
    2482:	f899 0001 	ldrb.w	r0, [r9, #1]
    2486:	2b00      	cmp	r3, #0
    2488:	f104 0650 	add.w	r6, r4, #80	; 0x50
    248c:	da0b      	bge.n	24a6 <f_lseek+0x138>
    248e:	2301      	movs	r3, #1
    2490:	4631      	mov	r1, r6
    2492:	f7ff fffe 	bl	0 <disk_write>
    2496:	2800      	cmp	r0, #0
    2498:	d13d      	bne.n	2516 <f_lseek+0x1a8>
    249a:	f894 3030 	ldrb.w	r3, [r4, #48]	; 0x30
    249e:	f003 037f 	and.w	r3, r3, #127	; 0x7f
    24a2:	f884 3030 	strb.w	r3, [r4, #48]	; 0x30
    24a6:	2301      	movs	r3, #1
    24a8:	462a      	mov	r2, r5
    24aa:	4631      	mov	r1, r6
    24ac:	f899 0001 	ldrb.w	r0, [r9, #1]
    24b0:	f7ff fffe 	bl	0 <disk_read>
    24b4:	bb78      	cbnz	r0, 2516 <f_lseek+0x1a8>
    24b6:	6465      	str	r5, [r4, #68]	; 0x44
    24b8:	e027      	b.n	250a <f_lseek+0x19c>
    24ba:	68a1      	ldr	r1, [r4, #8]
    24bc:	b1e1      	cbz	r1, 24f8 <f_lseek+0x18a>
    24be:	6421      	str	r1, [r4, #64]	; 0x40
    24c0:	f04f 0a00 	mov.w	sl, #0
    24c4:	e9d4 320e 	ldrd	r3, r2, [r4, #56]	; 0x38
    24c8:	45a8      	cmp	r8, r5
    24ca:	eb7a 0006 	sbcs.w	r0, sl, r6
    24ce:	d327      	bcc.n	2520 <f_lseek+0x1b2>
    24d0:	e9d4 320e 	ldrd	r3, r2, [r4, #56]	; 0x38
    24d4:	195b      	adds	r3, r3, r5
    24d6:	eb46 0202 	adc.w	r2, r6, r2
    24da:	e9c4 320e 	strd	r3, r2, [r4, #56]	; 0x38
    24de:	f3c5 0308 	ubfx	r3, r5, #0, #9
    24e2:	2b00      	cmp	r3, #0
    24e4:	d0b3      	beq.n	244e <f_lseek+0xe0>
    24e6:	4648      	mov	r0, r9
    24e8:	f7fd fdbb 	bl	62 <clst2sect>
    24ec:	b150      	cbz	r0, 2504 <f_lseek+0x196>
    24ee:	0a6d      	lsrs	r5, r5, #9
    24f0:	ea45 55c6 	orr.w	r5, r5, r6, lsl #23
    24f4:	4405      	add	r5, r0
    24f6:	e7ab      	b.n	2450 <f_lseek+0xe2>
    24f8:	4620      	mov	r0, r4
    24fa:	f7fe fc49 	bl	d90 <create_chain>
    24fe:	2801      	cmp	r0, #1
    2500:	4601      	mov	r1, r0
    2502:	d106      	bne.n	2512 <f_lseek+0x1a4>
    2504:	2702      	movs	r7, #2
    2506:	f884 7031 	strb.w	r7, [r4, #49]	; 0x31
    250a:	4638      	mov	r0, r7
    250c:	b005      	add	sp, #20
    250e:	e8bd 8ff0 	ldmia.w	sp!, {r4, r5, r6, r7, r8, r9, sl, fp, pc}
    2512:	1c42      	adds	r2, r0, #1
    2514:	d101      	bne.n	251a <f_lseek+0x1ac>
    2516:	2701      	movs	r7, #1
    2518:	e7f5      	b.n	2506 <f_lseek+0x198>
    251a:	60a0      	str	r0, [r4, #8]
    251c:	6420      	str	r0, [r4, #64]	; 0x40
    251e:	e78b      	b.n	2438 <f_lseek+0xca>
    2520:	ebb5 0508 	subs.w	r5, r5, r8
    2524:	f894 e030 	ldrb.w	lr, [r4, #48]	; 0x30
    2528:	f166 0600 	sbc.w	r6, r6, #0
    252c:	eb18 0303 	adds.w	r3, r8, r3
    2530:	f142 0000 	adc.w	r0, r2, #0
    2534:	f01e 0f02 	tst.w	lr, #2
    2538:	e9c4 300e 	strd	r3, r0, [r4, #56]	; 0x38
    253c:	d012      	beq.n	2564 <f_lseek+0x1f6>
    253e:	e9d4 c204 	ldrd	ip, r2, [r4, #16]
    2542:	459c      	cmp	ip, r3
    2544:	4182      	sbcs	r2, r0
    2546:	bf3e      	ittt	cc
    2548:	f04e 0e40 	orrcc.w	lr, lr, #64	; 0x40
    254c:	e9c4 3004 	strdcc	r3, r0, [r4, #16]
    2550:	f884 e030 	strbcc.w	lr, [r4, #48]	; 0x30
    2554:	4620      	mov	r0, r4
    2556:	f7fe fc1b 	bl	d90 <create_chain>
    255a:	4601      	mov	r1, r0
    255c:	b930      	cbnz	r0, 256c <f_lseek+0x1fe>
    255e:	4605      	mov	r5, r0
    2560:	4606      	mov	r6, r0
    2562:	e7b5      	b.n	24d0 <f_lseek+0x162>
    2564:	4620      	mov	r0, r4
    2566:	f7fd fea0 	bl	2aa <get_fat>
    256a:	4601      	mov	r1, r0
    256c:	1c4b      	adds	r3, r1, #1
    256e:	d0d2      	beq.n	2516 <f_lseek+0x1a8>
    2570:	2901      	cmp	r1, #1
    2572:	d9c7      	bls.n	2504 <f_lseek+0x196>
    2574:	f8d9 301c 	ldr.w	r3, [r9, #28]
    2578:	428b      	cmp	r3, r1
    257a:	d9c3      	bls.n	2504 <f_lseek+0x196>
    257c:	6421      	str	r1, [r4, #64]	; 0x40
    257e:	e7a1      	b.n	24c4 <f_lseek+0x156>

00002580 <f_opendir>:
    2580:	b530      	push	{r4, r5, lr}
    2582:	b085      	sub	sp, #20
    2584:	4604      	mov	r4, r0
    2586:	9101      	str	r1, [sp, #4]
    2588:	2800      	cmp	r0, #0
    258a:	d03b      	beq.n	2604 <f_opendir+0x84>
    258c:	2200      	movs	r2, #0
    258e:	a903      	add	r1, sp, #12
    2590:	a801      	add	r0, sp, #4
    2592:	f7fd ffa9 	bl	4e8 <find_volume>
    2596:	b948      	cbnz	r0, 25ac <f_opendir+0x2c>
    2598:	9d03      	ldr	r5, [sp, #12]
    259a:	4620      	mov	r0, r4
    259c:	9901      	ldr	r1, [sp, #4]
    259e:	6025      	str	r5, [r4, #0]
    25a0:	f7ff f997 	bl	18d2 <follow_path>
    25a4:	b128      	cbz	r0, 25b2 <f_opendir+0x32>
    25a6:	2804      	cmp	r0, #4
    25a8:	d100      	bne.n	25ac <f_opendir+0x2c>
    25aa:	2005      	movs	r0, #5
    25ac:	2300      	movs	r3, #0
    25ae:	6023      	str	r3, [r4, #0]
    25b0:	e021      	b.n	25f6 <f_opendir+0x76>
    25b2:	f994 304b 	ldrsb.w	r3, [r4, #75]	; 0x4b
    25b6:	2b00      	cmp	r3, #0
    25b8:	db13      	blt.n	25e2 <f_opendir+0x62>
    25ba:	79a3      	ldrb	r3, [r4, #6]
    25bc:	06db      	lsls	r3, r3, #27
    25be:	d5f4      	bpl.n	25aa <f_opendir+0x2a>
    25c0:	7828      	ldrb	r0, [r5, #0]
    25c2:	2804      	cmp	r0, #4
    25c4:	d119      	bne.n	25fa <f_opendir+0x7a>
    25c6:	68a3      	ldr	r3, [r4, #8]
    25c8:	79e2      	ldrb	r2, [r4, #7]
    25ca:	6223      	str	r3, [r4, #32]
    25cc:	6923      	ldr	r3, [r4, #16]
    25ce:	4621      	mov	r1, r4
    25d0:	f023 03ff 	bic.w	r3, r3, #255	; 0xff
    25d4:	4313      	orrs	r3, r2
    25d6:	6263      	str	r3, [r4, #36]	; 0x24
    25d8:	6ce3      	ldr	r3, [r4, #76]	; 0x4c
    25da:	6928      	ldr	r0, [r5, #16]
    25dc:	62a3      	str	r3, [r4, #40]	; 0x28
    25de:	f7ff f95b 	bl	1898 <init_alloc_info.isra.0>
    25e2:	88eb      	ldrh	r3, [r5, #6]
    25e4:	2100      	movs	r1, #0
    25e6:	4620      	mov	r0, r4
    25e8:	80a3      	strh	r3, [r4, #4]
    25ea:	f7fd fef3 	bl	3d4 <dir_sdi>
    25ee:	2804      	cmp	r0, #4
    25f0:	d0db      	beq.n	25aa <f_opendir+0x2a>
    25f2:	2800      	cmp	r0, #0
    25f4:	d1da      	bne.n	25ac <f_opendir+0x2c>
    25f6:	b005      	add	sp, #20
    25f8:	bd30      	pop	{r4, r5, pc}
    25fa:	6be1      	ldr	r1, [r4, #60]	; 0x3c
    25fc:	f7ff f961 	bl	18c2 <ld_clust.isra.0>
    2600:	60a0      	str	r0, [r4, #8]
    2602:	e7ee      	b.n	25e2 <f_opendir+0x62>
    2604:	2009      	movs	r0, #9
    2606:	e7f6      	b.n	25f6 <f_opendir+0x76>

00002608 <f_closedir>:
    2608:	b513      	push	{r0, r1, r4, lr}
    260a:	a901      	add	r1, sp, #4
    260c:	4604      	mov	r4, r0
    260e:	f7fd fd74 	bl	fa <validate>
    2612:	b900      	cbnz	r0, 2616 <f_closedir+0xe>
    2614:	6020      	str	r0, [r4, #0]
    2616:	b002      	add	sp, #8
    2618:	bd10      	pop	{r4, pc}

0000261a <f_readdir>:
    261a:	b573      	push	{r0, r1, r4, r5, r6, lr}
    261c:	460d      	mov	r5, r1
    261e:	a901      	add	r1, sp, #4
    2620:	4604      	mov	r4, r0
    2622:	f7fd fd6a 	bl	fa <validate>
    2626:	b9c0      	cbnz	r0, 265a <f_readdir+0x40>
    2628:	b935      	cbnz	r5, 2638 <f_readdir+0x1e>
    262a:	4629      	mov	r1, r5
    262c:	4620      	mov	r0, r4
    262e:	b002      	add	sp, #8
    2630:	e8bd 4070 	ldmia.w	sp!, {r4, r5, r6, lr}
    2634:	f7fd bece 	b.w	3d4 <dir_sdi>
    2638:	4620      	mov	r0, r4
    263a:	f7fe fdf1 	bl	1220 <dir_read.constprop.0>
    263e:	f010 06fb 	ands.w	r6, r0, #251	; 0xfb
    2642:	d10a      	bne.n	265a <f_readdir+0x40>
    2644:	4629      	mov	r1, r5
    2646:	4620      	mov	r0, r4
    2648:	f7fe facd 	bl	be6 <get_fileinfo>
    264c:	4631      	mov	r1, r6
    264e:	4620      	mov	r0, r4
    2650:	f7fe fc9d 	bl	f8e <dir_next>
    2654:	2804      	cmp	r0, #4
    2656:	bf08      	it	eq
    2658:	2000      	moveq	r0, #0
    265a:	b002      	add	sp, #8
    265c:	bd70      	pop	{r4, r5, r6, pc}

0000265e <f_stat>:
    265e:	b530      	push	{r4, r5, lr}
    2660:	b097      	sub	sp, #92	; 0x5c
    2662:	9001      	str	r0, [sp, #4]
    2664:	460d      	mov	r5, r1
    2666:	2200      	movs	r2, #0
    2668:	a902      	add	r1, sp, #8
    266a:	a801      	add	r0, sp, #4
    266c:	f7fd ff3c 	bl	4e8 <find_volume>
    2670:	4604      	mov	r4, r0
    2672:	b970      	cbnz	r0, 2692 <f_stat+0x34>
    2674:	9901      	ldr	r1, [sp, #4]
    2676:	a802      	add	r0, sp, #8
    2678:	f7ff f92b 	bl	18d2 <follow_path>
    267c:	4604      	mov	r4, r0
    267e:	b940      	cbnz	r0, 2692 <f_stat+0x34>
    2680:	f99d 3053 	ldrsb.w	r3, [sp, #83]	; 0x53
    2684:	2b00      	cmp	r3, #0
    2686:	db07      	blt.n	2698 <f_stat+0x3a>
    2688:	b11d      	cbz	r5, 2692 <f_stat+0x34>
    268a:	4629      	mov	r1, r5
    268c:	a802      	add	r0, sp, #8
    268e:	f7fe faaa 	bl	be6 <get_fileinfo>
    2692:	4620      	mov	r0, r4
    2694:	b017      	add	sp, #92	; 0x5c
    2696:	bd30      	pop	{r4, r5, pc}
    2698:	2406      	movs	r4, #6
    269a:	e7fa      	b.n	2692 <f_stat+0x34>

0000269c <f_getfree>:
    269c:	e92d 4ff0 	stmdb	sp!, {r4, r5, r6, r7, r8, r9, sl, fp, lr}
    26a0:	b091      	sub	sp, #68	; 0x44
    26a2:	9001      	str	r0, [sp, #4]
    26a4:	4689      	mov	r9, r1
    26a6:	4616      	mov	r6, r2
    26a8:	a903      	add	r1, sp, #12
    26aa:	2200      	movs	r2, #0
    26ac:	a801      	add	r0, sp, #4
    26ae:	f7fd ff1b 	bl	4e8 <find_volume>
    26b2:	4605      	mov	r5, r0
    26b4:	b948      	cbnz	r0, 26ca <f_getfree+0x2e>
    26b6:	9c03      	ldr	r4, [sp, #12]
    26b8:	e9d4 3a06 	ldrd	r3, sl, [r4, #24]
    26bc:	f1aa 0702 	sub.w	r7, sl, #2
    26c0:	42bb      	cmp	r3, r7
    26c2:	6034      	str	r4, [r6, #0]
    26c4:	d805      	bhi.n	26d2 <f_getfree+0x36>
    26c6:	f8c9 3000 	str.w	r3, [r9]
    26ca:	4628      	mov	r0, r5
    26cc:	b011      	add	sp, #68	; 0x44
    26ce:	e8bd 8ff0 	ldmia.w	sp!, {r4, r5, r6, r7, r8, r9, sl, fp, pc}
    26d2:	7823      	ldrb	r3, [r4, #0]
    26d4:	2b01      	cmp	r3, #1
    26d6:	d118      	bne.n	270a <f_getfree+0x6e>
    26d8:	2702      	movs	r7, #2
    26da:	4606      	mov	r6, r0
    26dc:	9404      	str	r4, [sp, #16]
    26de:	4639      	mov	r1, r7
    26e0:	a804      	add	r0, sp, #16
    26e2:	f7fd fde2 	bl	2aa <get_fat>
    26e6:	1c43      	adds	r3, r0, #1
    26e8:	d05e      	beq.n	27a8 <f_getfree+0x10c>
    26ea:	2801      	cmp	r0, #1
    26ec:	d05e      	beq.n	27ac <f_getfree+0x110>
    26ee:	b900      	cbnz	r0, 26f2 <f_getfree+0x56>
    26f0:	3601      	adds	r6, #1
    26f2:	69e3      	ldr	r3, [r4, #28]
    26f4:	3701      	adds	r7, #1
    26f6:	42bb      	cmp	r3, r7
    26f8:	d8f1      	bhi.n	26de <f_getfree+0x42>
    26fa:	f8c9 6000 	str.w	r6, [r9]
    26fe:	7923      	ldrb	r3, [r4, #4]
    2700:	61a6      	str	r6, [r4, #24]
    2702:	f043 0301 	orr.w	r3, r3, #1
    2706:	7123      	strb	r3, [r4, #4]
    2708:	e7df      	b.n	26ca <f_getfree+0x2e>
    270a:	2b04      	cmp	r3, #4
    270c:	d127      	bne.n	275e <f_getfree+0xc2>
    270e:	4680      	mov	r8, r0
    2710:	4606      	mov	r6, r0
    2712:	6b61      	ldr	r1, [r4, #52]	; 0x34
    2714:	f1b8 0f00 	cmp.w	r8, #0
    2718:	d107      	bne.n	272a <f_getfree+0x8e>
    271a:	4620      	mov	r0, r4
    271c:	f101 0a01 	add.w	sl, r1, #1
    2720:	f7fd fd6d 	bl	1fe <move_window>
    2724:	2800      	cmp	r0, #0
    2726:	d143      	bne.n	27b0 <f_getfree+0x114>
    2728:	4651      	mov	r1, sl
    272a:	eb04 0308 	add.w	r3, r4, r8
    272e:	f893 303c 	ldrb.w	r3, [r3, #60]	; 0x3c
    2732:	2f00      	cmp	r7, #0
    2734:	d0e1      	beq.n	26fa <f_getfree+0x5e>
    2736:	f1a7 0208 	sub.w	r2, r7, #8
    273a:	07d8      	lsls	r0, r3, #31
    273c:	f107 37ff 	add.w	r7, r7, #4294967295	; 0xffffffff
    2740:	bf58      	it	pl
    2742:	3601      	addpl	r6, #1
    2744:	4297      	cmp	r7, r2
    2746:	ea4f 0353 	mov.w	r3, r3, lsr #1
    274a:	d001      	beq.n	2750 <f_getfree+0xb4>
    274c:	2f00      	cmp	r7, #0
    274e:	d1f4      	bne.n	273a <f_getfree+0x9e>
    2750:	f108 0801 	add.w	r8, r8, #1
    2754:	f3c8 0808 	ubfx	r8, r8, #0, #9
    2758:	2f00      	cmp	r7, #0
    275a:	d1db      	bne.n	2714 <f_getfree+0x78>
    275c:	e7cd      	b.n	26fa <f_getfree+0x5e>
    275e:	4607      	mov	r7, r0
    2760:	4606      	mov	r6, r0
    2762:	6aa1      	ldr	r1, [r4, #40]	; 0x28
    2764:	f104 083c 	add.w	r8, r4, #60	; 0x3c
    2768:	b937      	cbnz	r7, 2778 <f_getfree+0xdc>
    276a:	4620      	mov	r0, r4
    276c:	f101 0b01 	add.w	fp, r1, #1
    2770:	f7fd fd45 	bl	1fe <move_window>
    2774:	b9e0      	cbnz	r0, 27b0 <f_getfree+0x114>
    2776:	4659      	mov	r1, fp
    2778:	7823      	ldrb	r3, [r4, #0]
    277a:	eb08 0007 	add.w	r0, r8, r7
    277e:	2b02      	cmp	r3, #2
    2780:	d10a      	bne.n	2798 <f_getfree+0xfc>
    2782:	f838 3007 	ldrh.w	r3, [r8, r7]
    2786:	b903      	cbnz	r3, 278a <f_getfree+0xee>
    2788:	3601      	adds	r6, #1
    278a:	3702      	adds	r7, #2
    278c:	f1ba 0a01 	subs.w	sl, sl, #1
    2790:	f3c7 0708 	ubfx	r7, r7, #0, #9
    2794:	d1e8      	bne.n	2768 <f_getfree+0xcc>
    2796:	e7b0      	b.n	26fa <f_getfree+0x5e>
    2798:	f7fd fc32 	bl	0 <ld_dword>
    279c:	f030 4370 	bics.w	r3, r0, #4026531840	; 0xf0000000
    27a0:	bf08      	it	eq
    27a2:	3601      	addeq	r6, #1
    27a4:	3704      	adds	r7, #4
    27a6:	e7f1      	b.n	278c <f_getfree+0xf0>
    27a8:	2501      	movs	r5, #1
    27aa:	e7a6      	b.n	26fa <f_getfree+0x5e>
    27ac:	2502      	movs	r5, #2
    27ae:	e7a4      	b.n	26fa <f_getfree+0x5e>
    27b0:	4605      	mov	r5, r0
    27b2:	e7a2      	b.n	26fa <f_getfree+0x5e>

000027b4 <f_truncate>:
    27b4:	b537      	push	{r0, r1, r2, r4, r5, lr}
    27b6:	a901      	add	r1, sp, #4
    27b8:	4604      	mov	r4, r0
    27ba:	f7fd fc9e 	bl	fa <validate>
    27be:	4605      	mov	r5, r0
    27c0:	2800      	cmp	r0, #0
    27c2:	d16d      	bne.n	28a0 <f_truncate+0xec>
    27c4:	f894 5031 	ldrb.w	r5, [r4, #49]	; 0x31
    27c8:	2d00      	cmp	r5, #0
    27ca:	d169      	bne.n	28a0 <f_truncate+0xec>
    27cc:	f894 3030 	ldrb.w	r3, [r4, #48]	; 0x30
    27d0:	0799      	lsls	r1, r3, #30
    27d2:	d568      	bpl.n	28a6 <f_truncate+0xf2>
    27d4:	e9d4 320e 	ldrd	r3, r2, [r4, #56]	; 0x38
    27d8:	e9d4 0104 	ldrd	r0, r1, [r4, #16]
    27dc:	4283      	cmp	r3, r0
    27de:	eb72 0101 	sbcs.w	r1, r2, r1
    27e2:	d25d      	bcs.n	28a0 <f_truncate+0xec>
    27e4:	4313      	orrs	r3, r2
    27e6:	d112      	bne.n	280e <f_truncate+0x5a>
    27e8:	462a      	mov	r2, r5
    27ea:	4620      	mov	r0, r4
    27ec:	68a1      	ldr	r1, [r4, #8]
    27ee:	f7fe f907 	bl	a00 <remove_chain>
    27f2:	60a5      	str	r5, [r4, #8]
    27f4:	e9d4 230e 	ldrd	r2, r3, [r4, #56]	; 0x38
    27f8:	e9c4 2304 	strd	r2, r3, [r4, #16]
    27fc:	f894 3030 	ldrb.w	r3, [r4, #48]	; 0x30
    2800:	f043 0340 	orr.w	r3, r3, #64	; 0x40
    2804:	f884 3030 	strb.w	r3, [r4, #48]	; 0x30
    2808:	2800      	cmp	r0, #0
    280a:	d037      	beq.n	287c <f_truncate+0xc8>
    280c:	e013      	b.n	2836 <f_truncate+0x82>
    280e:	6c21      	ldr	r1, [r4, #64]	; 0x40
    2810:	4620      	mov	r0, r4
    2812:	f7fd fd4a 	bl	2aa <get_fat>
    2816:	1c42      	adds	r2, r0, #1
    2818:	4601      	mov	r1, r0
    281a:	d019      	beq.n	2850 <f_truncate+0x9c>
    281c:	2801      	cmp	r0, #1
    281e:	d10e      	bne.n	283e <f_truncate+0x8a>
    2820:	e9d4 230e 	ldrd	r2, r3, [r4, #56]	; 0x38
    2824:	2002      	movs	r0, #2
    2826:	e9c4 2304 	strd	r2, r3, [r4, #16]
    282a:	f894 3030 	ldrb.w	r3, [r4, #48]	; 0x30
    282e:	f043 0340 	orr.w	r3, r3, #64	; 0x40
    2832:	f884 3030 	strb.w	r3, [r4, #48]	; 0x30
    2836:	4605      	mov	r5, r0
    2838:	f884 0031 	strb.w	r0, [r4, #49]	; 0x31
    283c:	e030      	b.n	28a0 <f_truncate+0xec>
    283e:	9b01      	ldr	r3, [sp, #4]
    2840:	69db      	ldr	r3, [r3, #28]
    2842:	4283      	cmp	r3, r0
    2844:	d910      	bls.n	2868 <f_truncate+0xb4>
    2846:	4620      	mov	r0, r4
    2848:	6c22      	ldr	r2, [r4, #64]	; 0x40
    284a:	f7fe f8d9 	bl	a00 <remove_chain>
    284e:	e7d1      	b.n	27f4 <f_truncate+0x40>
    2850:	e9d4 230e 	ldrd	r2, r3, [r4, #56]	; 0x38
    2854:	e9c4 2304 	strd	r2, r3, [r4, #16]
    2858:	f894 3030 	ldrb.w	r3, [r4, #48]	; 0x30
    285c:	f043 0340 	orr.w	r3, r3, #64	; 0x40
    2860:	f884 3030 	strb.w	r3, [r4, #48]	; 0x30
    2864:	2001      	movs	r0, #1
    2866:	e7e6      	b.n	2836 <f_truncate+0x82>
    2868:	e9d4 230e 	ldrd	r2, r3, [r4, #56]	; 0x38
    286c:	e9c4 2304 	strd	r2, r3, [r4, #16]
    2870:	f894 3030 	ldrb.w	r3, [r4, #48]	; 0x30
    2874:	f043 0340 	orr.w	r3, r3, #64	; 0x40
    2878:	f884 3030 	strb.w	r3, [r4, #48]	; 0x30
    287c:	061b      	lsls	r3, r3, #24
    287e:	d50f      	bpl.n	28a0 <f_truncate+0xec>
    2880:	9801      	ldr	r0, [sp, #4]
    2882:	2301      	movs	r3, #1
    2884:	6c62      	ldr	r2, [r4, #68]	; 0x44
    2886:	7840      	ldrb	r0, [r0, #1]
    2888:	f104 0150 	add.w	r1, r4, #80	; 0x50
    288c:	f7ff fffe 	bl	0 <disk_write>
    2890:	2800      	cmp	r0, #0
    2892:	d1e7      	bne.n	2864 <f_truncate+0xb0>
    2894:	f894 3030 	ldrb.w	r3, [r4, #48]	; 0x30
    2898:	f003 037f 	and.w	r3, r3, #127	; 0x7f
    289c:	f884 3030 	strb.w	r3, [r4, #48]	; 0x30
    28a0:	4628      	mov	r0, r5
    28a2:	b003      	add	sp, #12
    28a4:	bd30      	pop	{r4, r5, pc}
    28a6:	2507      	movs	r5, #7
    28a8:	e7fa      	b.n	28a0 <f_truncate+0xec>

000028aa <f_unlink>:
    28aa:	b570      	push	{r4, r5, r6, lr}
    28ac:	b0b8      	sub	sp, #224	; 0xe0
    28ae:	9001      	str	r0, [sp, #4]
    28b0:	2202      	movs	r2, #2
    28b2:	a903      	add	r1, sp, #12
    28b4:	a801      	add	r0, sp, #4
    28b6:	f7fd fe17 	bl	4e8 <find_volume>
    28ba:	b978      	cbnz	r0, 28dc <f_unlink+0x32>
    28bc:	9c03      	ldr	r4, [sp, #12]
    28be:	9901      	ldr	r1, [sp, #4]
    28c0:	a810      	add	r0, sp, #64	; 0x40
    28c2:	9410      	str	r4, [sp, #64]	; 0x40
    28c4:	f7ff f805 	bl	18d2 <follow_path>
    28c8:	b940      	cbnz	r0, 28dc <f_unlink+0x32>
    28ca:	f99d 308b 	ldrsb.w	r3, [sp, #139]	; 0x8b
    28ce:	2b00      	cmp	r3, #0
    28d0:	db44      	blt.n	295c <f_unlink+0xb2>
    28d2:	f89d 6046 	ldrb.w	r6, [sp, #70]	; 0x46
    28d6:	07f3      	lsls	r3, r6, #31
    28d8:	d502      	bpl.n	28e0 <f_unlink+0x36>
    28da:	2007      	movs	r0, #7
    28dc:	b038      	add	sp, #224	; 0xe0
    28de:	bd70      	pop	{r4, r5, r6, pc}
    28e0:	7820      	ldrb	r0, [r4, #0]
    28e2:	9404      	str	r4, [sp, #16]
    28e4:	2804      	cmp	r0, #4
    28e6:	f006 0610 	and.w	r6, r6, #16
    28ea:	d126      	bne.n	293a <f_unlink+0x90>
    28ec:	6920      	ldr	r0, [r4, #16]
    28ee:	a904      	add	r1, sp, #16
    28f0:	f7fe ffd2 	bl	1898 <init_alloc_info.isra.0>
    28f4:	9d06      	ldr	r5, [sp, #24]
    28f6:	b1b6      	cbz	r6, 2926 <f_unlink+0x7c>
    28f8:	e9dd 2308 	ldrd	r2, r3, [sp, #32]
    28fc:	e9cd 2328 	strd	r2, r3, [sp, #160]	; 0xa0
    2900:	f89d 3017 	ldrb.w	r3, [sp, #23]
    2904:	9424      	str	r4, [sp, #144]	; 0x90
    2906:	9526      	str	r5, [sp, #152]	; 0x98
    2908:	f88d 3097 	strb.w	r3, [sp, #151]	; 0x97
    290c:	2100      	movs	r1, #0
    290e:	a824      	add	r0, sp, #144	; 0x90
    2910:	f7fd fd60 	bl	3d4 <dir_sdi>
    2914:	2800      	cmp	r0, #0
    2916:	d1e1      	bne.n	28dc <f_unlink+0x32>
    2918:	a824      	add	r0, sp, #144	; 0x90
    291a:	f7fe fc81 	bl	1220 <dir_read.constprop.0>
    291e:	2800      	cmp	r0, #0
    2920:	d0db      	beq.n	28da <f_unlink+0x30>
    2922:	2804      	cmp	r0, #4
    2924:	d1da      	bne.n	28dc <f_unlink+0x32>
    2926:	a810      	add	r0, sp, #64	; 0x40
    2928:	f7fe fc51 	bl	11ce <dir_remove>
    292c:	2800      	cmp	r0, #0
    292e:	d1d5      	bne.n	28dc <f_unlink+0x32>
    2930:	b965      	cbnz	r5, 294c <f_unlink+0xa2>
    2932:	4620      	mov	r0, r4
    2934:	f7fe f90c 	bl	b50 <sync_fs>
    2938:	e7d0      	b.n	28dc <f_unlink+0x32>
    293a:	991f      	ldr	r1, [sp, #124]	; 0x7c
    293c:	f7fe ffc1 	bl	18c2 <ld_clust.isra.0>
    2940:	4605      	mov	r5, r0
    2942:	2e00      	cmp	r6, #0
    2944:	d0ef      	beq.n	2926 <f_unlink+0x7c>
    2946:	9424      	str	r4, [sp, #144]	; 0x90
    2948:	9026      	str	r0, [sp, #152]	; 0x98
    294a:	e7df      	b.n	290c <f_unlink+0x62>
    294c:	4602      	mov	r2, r0
    294e:	4629      	mov	r1, r5
    2950:	a804      	add	r0, sp, #16
    2952:	f7fe f855 	bl	a00 <remove_chain>
    2956:	2800      	cmp	r0, #0
    2958:	d1c0      	bne.n	28dc <f_unlink+0x32>
    295a:	e7ea      	b.n	2932 <f_unlink+0x88>
    295c:	2006      	movs	r0, #6
    295e:	e7bd      	b.n	28dc <f_unlink+0x32>

00002960 <f_mkdir>:
    2960:	e92d 41f0 	stmdb	sp!, {r4, r5, r6, r7, r8, lr}
    2964:	b0a4      	sub	sp, #144	; 0x90
    2966:	9001      	str	r0, [sp, #4]
    2968:	2202      	movs	r2, #2
    296a:	a903      	add	r1, sp, #12
    296c:	a801      	add	r0, sp, #4
    296e:	f7fd fdbb 	bl	4e8 <find_volume>
    2972:	4604      	mov	r4, r0
    2974:	4606      	mov	r6, r0
    2976:	2800      	cmp	r0, #0
    2978:	f040 8087 	bne.w	2a8a <f_mkdir+0x12a>
    297c:	9d03      	ldr	r5, [sp, #12]
    297e:	9901      	ldr	r1, [sp, #4]
    2980:	a810      	add	r0, sp, #64	; 0x40
    2982:	9510      	str	r5, [sp, #64]	; 0x40
    2984:	f7fe ffa5 	bl	18d2 <follow_path>
    2988:	4604      	mov	r4, r0
    298a:	2800      	cmp	r0, #0
    298c:	f000 8095 	beq.w	2aba <f_mkdir+0x15a>
    2990:	2804      	cmp	r0, #4
    2992:	d17a      	bne.n	2a8a <f_mkdir+0x12a>
    2994:	4631      	mov	r1, r6
    2996:	a804      	add	r0, sp, #16
    2998:	9504      	str	r5, [sp, #16]
    299a:	f7fe f9f9 	bl	d90 <create_chain>
    299e:	4606      	mov	r6, r0
    29a0:	b940      	cbnz	r0, 29b4 <f_mkdir+0x54>
    29a2:	f7ff fffe 	bl	0 <get_fattime>
    29a6:	2407      	movs	r4, #7
    29a8:	2200      	movs	r2, #0
    29aa:	4631      	mov	r1, r6
    29ac:	a804      	add	r0, sp, #16
    29ae:	f7fe f827 	bl	a00 <remove_chain>
    29b2:	e06a      	b.n	2a8a <f_mkdir+0x12a>
    29b4:	2801      	cmp	r0, #1
    29b6:	d103      	bne.n	29c0 <f_mkdir+0x60>
    29b8:	f7ff fffe 	bl	0 <get_fattime>
    29bc:	2402      	movs	r4, #2
    29be:	e7f3      	b.n	29a8 <f_mkdir+0x48>
    29c0:	1c43      	adds	r3, r0, #1
    29c2:	d066      	beq.n	2a92 <f_mkdir+0x132>
    29c4:	f7ff fffe 	bl	0 <get_fattime>
    29c8:	4631      	mov	r1, r6
    29ca:	4607      	mov	r7, r0
    29cc:	4628      	mov	r0, r5
    29ce:	f7fe f896 	bl	afe <dir_clear>
    29d2:	4604      	mov	r4, r0
    29d4:	2800      	cmp	r0, #0
    29d6:	d1e7      	bne.n	29a8 <f_mkdir+0x48>
    29d8:	782b      	ldrb	r3, [r5, #0]
    29da:	2b04      	cmp	r3, #4
    29dc:	d026      	beq.n	2a2c <f_mkdir+0xcc>
    29de:	2310      	movs	r3, #16
    29e0:	f04f 082e 	mov.w	r8, #46	; 0x2e
    29e4:	f105 043c 	add.w	r4, r5, #60	; 0x3c
    29e8:	4620      	mov	r0, r4
    29ea:	220b      	movs	r2, #11
    29ec:	2120      	movs	r1, #32
    29ee:	f7fd fb24 	bl	3a <mem_set>
    29f2:	f885 3047 	strb.w	r3, [r5, #71]	; 0x47
    29f6:	4639      	mov	r1, r7
    29f8:	f105 0052 	add.w	r0, r5, #82	; 0x52
    29fc:	f885 803c 	strb.w	r8, [r5, #60]	; 0x3c
    2a00:	f7fd fb04 	bl	c <st_dword>
    2a04:	4632      	mov	r2, r6
    2a06:	4621      	mov	r1, r4
    2a08:	4628      	mov	r0, r5
    2a0a:	f105 045c 	add.w	r4, r5, #92	; 0x5c
    2a0e:	f7fd fbea 	bl	1e6 <st_clust>
    2a12:	2220      	movs	r2, #32
    2a14:	4620      	mov	r0, r4
    2a16:	f7fd fbdd 	bl	1d4 <mem_cpy.part.0>
    2a1a:	4621      	mov	r1, r4
    2a1c:	4628      	mov	r0, r5
    2a1e:	9a12      	ldr	r2, [sp, #72]	; 0x48
    2a20:	f885 805d 	strb.w	r8, [r5, #93]	; 0x5d
    2a24:	f7fd fbdf 	bl	1e6 <st_clust>
    2a28:	2301      	movs	r3, #1
    2a2a:	70eb      	strb	r3, [r5, #3]
    2a2c:	a810      	add	r0, sp, #64	; 0x40
    2a2e:	f7fe fd5d 	bl	14ec <dir_register>
    2a32:	4604      	mov	r4, r0
    2a34:	2800      	cmp	r0, #0
    2a36:	d1b7      	bne.n	29a8 <f_mkdir+0x48>
    2a38:	782b      	ldrb	r3, [r5, #0]
    2a3a:	2b04      	cmp	r3, #4
    2a3c:	d12d      	bne.n	2a9a <f_mkdir+0x13a>
    2a3e:	2203      	movs	r2, #3
    2a40:	6928      	ldr	r0, [r5, #16]
    2a42:	4639      	mov	r1, r7
    2a44:	300c      	adds	r0, #12
    2a46:	f7fd fae1 	bl	c <st_dword>
    2a4a:	6928      	ldr	r0, [r5, #16]
    2a4c:	4631      	mov	r1, r6
    2a4e:	3034      	adds	r0, #52	; 0x34
    2a50:	f7fd fadc 	bl	c <st_dword>
    2a54:	8969      	ldrh	r1, [r5, #10]
    2a56:	6928      	ldr	r0, [r5, #16]
    2a58:	0249      	lsls	r1, r1, #9
    2a5a:	3038      	adds	r0, #56	; 0x38
    2a5c:	f7fd fad6 	bl	c <st_dword>
    2a60:	8969      	ldrh	r1, [r5, #10]
    2a62:	6928      	ldr	r0, [r5, #16]
    2a64:	0249      	lsls	r1, r1, #9
    2a66:	3028      	adds	r0, #40	; 0x28
    2a68:	f7fd fad0 	bl	c <st_dword>
    2a6c:	692b      	ldr	r3, [r5, #16]
    2a6e:	a810      	add	r0, sp, #64	; 0x40
    2a70:	f883 2021 	strb.w	r2, [r3, #33]	; 0x21
    2a74:	2210      	movs	r2, #16
    2a76:	692b      	ldr	r3, [r5, #16]
    2a78:	711a      	strb	r2, [r3, #4]
    2a7a:	f7fe fb75 	bl	1168 <store_xdir>
    2a7e:	4604      	mov	r4, r0
    2a80:	b918      	cbnz	r0, 2a8a <f_mkdir+0x12a>
    2a82:	4628      	mov	r0, r5
    2a84:	f7fe f864 	bl	b50 <sync_fs>
    2a88:	4604      	mov	r4, r0
    2a8a:	4620      	mov	r0, r4
    2a8c:	b024      	add	sp, #144	; 0x90
    2a8e:	e8bd 81f0 	ldmia.w	sp!, {r4, r5, r6, r7, r8, pc}
    2a92:	f7ff fffe 	bl	0 <get_fattime>
    2a96:	2401      	movs	r4, #1
    2a98:	e786      	b.n	29a8 <f_mkdir+0x48>
    2a9a:	9c1f      	ldr	r4, [sp, #124]	; 0x7c
    2a9c:	4639      	mov	r1, r7
    2a9e:	f104 0016 	add.w	r0, r4, #22
    2aa2:	f7fd fab3 	bl	c <st_dword>
    2aa6:	4632      	mov	r2, r6
    2aa8:	4621      	mov	r1, r4
    2aaa:	4628      	mov	r0, r5
    2aac:	f7fd fb9b 	bl	1e6 <st_clust>
    2ab0:	2310      	movs	r3, #16
    2ab2:	72e3      	strb	r3, [r4, #11]
    2ab4:	2301      	movs	r3, #1
    2ab6:	70eb      	strb	r3, [r5, #3]
    2ab8:	e7e3      	b.n	2a82 <f_mkdir+0x122>
    2aba:	2408      	movs	r4, #8
    2abc:	e7e5      	b.n	2a8a <f_mkdir+0x12a>

00002abe <f_rename>:
    2abe:	b5f0      	push	{r4, r5, r6, r7, lr}
    2ac0:	b0bd      	sub	sp, #244	; 0xf4
    2ac2:	e9cd 1000 	strd	r1, r0, [sp]
    2ac6:	4668      	mov	r0, sp
    2ac8:	f7fd fafa 	bl	c0 <get_ldnumber>
    2acc:	2202      	movs	r2, #2
    2ace:	a903      	add	r1, sp, #12
    2ad0:	a801      	add	r0, sp, #4
    2ad2:	f7fd fd09 	bl	4e8 <find_volume>
    2ad6:	bb30      	cbnz	r0, 2b26 <f_rename+0x68>
    2ad8:	9c03      	ldr	r4, [sp, #12]
    2ada:	9901      	ldr	r1, [sp, #4]
    2adc:	a814      	add	r0, sp, #80	; 0x50
    2ade:	9414      	str	r4, [sp, #80]	; 0x50
    2ae0:	f7fe fef7 	bl	18d2 <follow_path>
    2ae4:	b9f8      	cbnz	r0, 2b26 <f_rename+0x68>
    2ae6:	f89d 309b 	ldrb.w	r3, [sp, #155]	; 0x9b
    2aea:	f013 0fa0 	tst.w	r3, #160	; 0xa0
    2aee:	f040 80a6 	bne.w	2c3e <f_rename+0x180>
    2af2:	7823      	ldrb	r3, [r4, #0]
    2af4:	9d00      	ldr	r5, [sp, #0]
    2af6:	2b04      	cmp	r3, #4
    2af8:	d14c      	bne.n	2b94 <f_rename+0xd6>
    2afa:	2240      	movs	r2, #64	; 0x40
    2afc:	6921      	ldr	r1, [r4, #16]
    2afe:	a804      	add	r0, sp, #16
    2b00:	f7fd fb68 	bl	1d4 <mem_cpy.part.0>
    2b04:	2250      	movs	r2, #80	; 0x50
    2b06:	a828      	add	r0, sp, #160	; 0xa0
    2b08:	eb0d 0102 	add.w	r1, sp, r2
    2b0c:	f7fd fb62 	bl	1d4 <mem_cpy.part.0>
    2b10:	4629      	mov	r1, r5
    2b12:	a828      	add	r0, sp, #160	; 0xa0
    2b14:	f7fe fedd 	bl	18d2 <follow_path>
    2b18:	2800      	cmp	r0, #0
    2b1a:	d138      	bne.n	2b8e <f_rename+0xd0>
    2b1c:	9a2a      	ldr	r2, [sp, #168]	; 0xa8
    2b1e:	9b16      	ldr	r3, [sp, #88]	; 0x58
    2b20:	429a      	cmp	r2, r3
    2b22:	d002      	beq.n	2b2a <f_rename+0x6c>
    2b24:	2008      	movs	r0, #8
    2b26:	b03d      	add	sp, #244	; 0xf4
    2b28:	bdf0      	pop	{r4, r5, r6, r7, pc}
    2b2a:	9a34      	ldr	r2, [sp, #208]	; 0xd0
    2b2c:	9b20      	ldr	r3, [sp, #128]	; 0x80
    2b2e:	429a      	cmp	r2, r3
    2b30:	d1f8      	bne.n	2b24 <f_rename+0x66>
    2b32:	a828      	add	r0, sp, #160	; 0xa0
    2b34:	f7fe fcda 	bl	14ec <dir_register>
    2b38:	2800      	cmp	r0, #0
    2b3a:	d1f4      	bne.n	2b26 <f_rename+0x68>
    2b3c:	6920      	ldr	r0, [r4, #16]
    2b3e:	2240      	movs	r2, #64	; 0x40
    2b40:	a904      	add	r1, sp, #16
    2b42:	8c85      	ldrh	r5, [r0, #36]	; 0x24
    2b44:	7847      	ldrb	r7, [r0, #1]
    2b46:	f890 6023 	ldrb.w	r6, [r0, #35]	; 0x23
    2b4a:	f7fd fb43 	bl	1d4 <mem_cpy.part.0>
    2b4e:	6923      	ldr	r3, [r4, #16]
    2b50:	a828      	add	r0, sp, #160	; 0xa0
    2b52:	705f      	strb	r7, [r3, #1]
    2b54:	6923      	ldr	r3, [r4, #16]
    2b56:	f883 6023 	strb.w	r6, [r3, #35]	; 0x23
    2b5a:	6923      	ldr	r3, [r4, #16]
    2b5c:	f883 5024 	strb.w	r5, [r3, #36]	; 0x24
    2b60:	0a2d      	lsrs	r5, r5, #8
    2b62:	f883 5025 	strb.w	r5, [r3, #37]	; 0x25
    2b66:	6922      	ldr	r2, [r4, #16]
    2b68:	7913      	ldrb	r3, [r2, #4]
    2b6a:	06d9      	lsls	r1, r3, #27
    2b6c:	bf5c      	itt	pl
    2b6e:	f043 0320 	orrpl.w	r3, r3, #32
    2b72:	7113      	strbpl	r3, [r2, #4]
    2b74:	f7fe faf8 	bl	1168 <store_xdir>
    2b78:	2800      	cmp	r0, #0
    2b7a:	d1d4      	bne.n	2b26 <f_rename+0x68>
    2b7c:	a814      	add	r0, sp, #80	; 0x50
    2b7e:	f7fe fb26 	bl	11ce <dir_remove>
    2b82:	2800      	cmp	r0, #0
    2b84:	d1cf      	bne.n	2b26 <f_rename+0x68>
    2b86:	4620      	mov	r0, r4
    2b88:	f7fd ffe2 	bl	b50 <sync_fs>
    2b8c:	e7cb      	b.n	2b26 <f_rename+0x68>
    2b8e:	2804      	cmp	r0, #4
    2b90:	d1c9      	bne.n	2b26 <f_rename+0x68>
    2b92:	e7ce      	b.n	2b32 <f_rename+0x74>
    2b94:	2220      	movs	r2, #32
    2b96:	9923      	ldr	r1, [sp, #140]	; 0x8c
    2b98:	a804      	add	r0, sp, #16
    2b9a:	f7fd fb1b 	bl	1d4 <mem_cpy.part.0>
    2b9e:	2250      	movs	r2, #80	; 0x50
    2ba0:	a828      	add	r0, sp, #160	; 0xa0
    2ba2:	eb0d 0102 	add.w	r1, sp, r2
    2ba6:	f7fd fb15 	bl	1d4 <mem_cpy.part.0>
    2baa:	4629      	mov	r1, r5
    2bac:	a828      	add	r0, sp, #160	; 0xa0
    2bae:	f7fe fe90 	bl	18d2 <follow_path>
    2bb2:	2800      	cmp	r0, #0
    2bb4:	d13f      	bne.n	2c36 <f_rename+0x178>
    2bb6:	9a2a      	ldr	r2, [sp, #168]	; 0xa8
    2bb8:	9b16      	ldr	r3, [sp, #88]	; 0x58
    2bba:	429a      	cmp	r2, r3
    2bbc:	d1b2      	bne.n	2b24 <f_rename+0x66>
    2bbe:	9a34      	ldr	r2, [sp, #208]	; 0xd0
    2bc0:	9b20      	ldr	r3, [sp, #128]	; 0x80
    2bc2:	429a      	cmp	r2, r3
    2bc4:	d1ae      	bne.n	2b24 <f_rename+0x66>
    2bc6:	a828      	add	r0, sp, #160	; 0xa0
    2bc8:	f7fe fc90 	bl	14ec <dir_register>
    2bcc:	2800      	cmp	r0, #0
    2bce:	d1aa      	bne.n	2b26 <f_rename+0x68>
    2bd0:	2601      	movs	r6, #1
    2bd2:	9d37      	ldr	r5, [sp, #220]	; 0xdc
    2bd4:	2213      	movs	r2, #19
    2bd6:	f10d 011d 	add.w	r1, sp, #29
    2bda:	f105 000d 	add.w	r0, r5, #13
    2bde:	f7fd faf9 	bl	1d4 <mem_cpy.part.0>
    2be2:	f89d 301b 	ldrb.w	r3, [sp, #27]
    2be6:	06da      	lsls	r2, r3, #27
    2be8:	bf58      	it	pl
    2bea:	f043 0320 	orrpl.w	r3, r3, #32
    2bee:	72eb      	strb	r3, [r5, #11]
    2bf0:	70e6      	strb	r6, [r4, #3]
    2bf2:	7aeb      	ldrb	r3, [r5, #11]
    2bf4:	06db      	lsls	r3, r3, #27
    2bf6:	d5c1      	bpl.n	2b7c <f_rename+0xbe>
    2bf8:	9f2a      	ldr	r7, [sp, #168]	; 0xa8
    2bfa:	9b16      	ldr	r3, [sp, #88]	; 0x58
    2bfc:	42bb      	cmp	r3, r7
    2bfe:	d0bd      	beq.n	2b7c <f_rename+0xbe>
    2c00:	4629      	mov	r1, r5
    2c02:	7820      	ldrb	r0, [r4, #0]
    2c04:	f7fe fe5d 	bl	18c2 <ld_clust.isra.0>
    2c08:	4601      	mov	r1, r0
    2c0a:	4620      	mov	r0, r4
    2c0c:	f7fd fa29 	bl	62 <clst2sect>
    2c10:	4601      	mov	r1, r0
    2c12:	b1b0      	cbz	r0, 2c42 <f_rename+0x184>
    2c14:	4620      	mov	r0, r4
    2c16:	f7fd faf2 	bl	1fe <move_window>
    2c1a:	2800      	cmp	r0, #0
    2c1c:	d183      	bne.n	2b26 <f_rename+0x68>
    2c1e:	f894 305d 	ldrb.w	r3, [r4, #93]	; 0x5d
    2c22:	2b2e      	cmp	r3, #46	; 0x2e
    2c24:	d1aa      	bne.n	2b7c <f_rename+0xbe>
    2c26:	463a      	mov	r2, r7
    2c28:	4620      	mov	r0, r4
    2c2a:	f104 015c 	add.w	r1, r4, #92	; 0x5c
    2c2e:	f7fd fada 	bl	1e6 <st_clust>
    2c32:	70e6      	strb	r6, [r4, #3]
    2c34:	e7a2      	b.n	2b7c <f_rename+0xbe>
    2c36:	2804      	cmp	r0, #4
    2c38:	f47f af75 	bne.w	2b26 <f_rename+0x68>
    2c3c:	e7c3      	b.n	2bc6 <f_rename+0x108>
    2c3e:	2006      	movs	r0, #6
    2c40:	e771      	b.n	2b26 <f_rename+0x68>
    2c42:	2002      	movs	r0, #2
    2c44:	e76f      	b.n	2b26 <f_rename+0x68>

00002c46 <f_mkfs>:
    2c46:	e92d 4ff0 	stmdb	sp!, {r4, r5, r6, r7, r8, r9, sl, fp, lr}
    2c4a:	b097      	sub	sp, #92	; 0x5c
    2c4c:	900f      	str	r0, [sp, #60]	; 0x3c
    2c4e:	a80f      	add	r0, sp, #60	; 0x3c
    2c50:	460d      	mov	r5, r1
    2c52:	4616      	mov	r6, r2
    2c54:	461c      	mov	r4, r3
    2c56:	9f20      	ldr	r7, [sp, #128]	; 0x80
    2c58:	f7fd fa32 	bl	c0 <get_ldnumber>
    2c5c:	2800      	cmp	r0, #0
    2c5e:	f2c0 853f 	blt.w	36e0 <f_mkfs+0xa9a>
    2c62:	4bab      	ldr	r3, [pc, #684]	; (2f10 <f_mkfs+0x2ca>)
    2c64:	f853 3020 	ldr.w	r3, [r3, r0, lsl #2]
    2c68:	b10b      	cbz	r3, 2c6e <f_mkfs+0x28>
    2c6a:	2200      	movs	r2, #0
    2c6c:	701a      	strb	r2, [r3, #0]
    2c6e:	fa5f fb80 	uxtb.w	fp, r0
    2c72:	4658      	mov	r0, fp
    2c74:	f7ff fffe 	bl	0 <disk_initialize>
    2c78:	07c2      	lsls	r2, r0, #31
    2c7a:	f100 8534 	bmi.w	36e6 <f_mkfs+0xaa0>
    2c7e:	0743      	lsls	r3, r0, #29
    2c80:	f100 8534 	bmi.w	36ec <f_mkfs+0xaa6>
    2c84:	2103      	movs	r1, #3
    2c86:	4658      	mov	r0, fp
    2c88:	aa11      	add	r2, sp, #68	; 0x44
    2c8a:	f7ff fffe 	bl	0 <disk_ioctl>
    2c8e:	b930      	cbnz	r0, 2c9e <f_mkfs+0x58>
    2c90:	9a11      	ldr	r2, [sp, #68]	; 0x44
    2c92:	1e53      	subs	r3, r2, #1
    2c94:	f5b3 4f00 	cmp.w	r3, #32768	; 0x8000
    2c98:	d201      	bcs.n	2c9e <f_mkfs+0x58>
    2c9a:	421a      	tst	r2, r3
    2c9c:	d001      	beq.n	2ca2 <f_mkfs+0x5c>
    2c9e:	2301      	movs	r3, #1
    2ca0:	9311      	str	r3, [sp, #68]	; 0x44
    2ca2:	b15e      	cbz	r6, 2cbc <f_mkfs+0x76>
    2ca4:	4b9b      	ldr	r3, [pc, #620]	; (2f14 <f_mkfs+0x2ce>)
    2ca6:	f5a6 7200 	sub.w	r2, r6, #512	; 0x200
    2caa:	429a      	cmp	r2, r3
    2cac:	d903      	bls.n	2cb6 <f_mkfs+0x70>
    2cae:	2013      	movs	r0, #19
    2cb0:	b017      	add	sp, #92	; 0x5c
    2cb2:	e8bd 8ff0 	ldmia.w	sp!, {r4, r5, r6, r7, r8, r9, sl, fp, pc}
    2cb6:	1e73      	subs	r3, r6, #1
    2cb8:	4233      	tst	r3, r6
    2cba:	d1f8      	bne.n	2cae <f_mkfs+0x68>
    2cbc:	2c00      	cmp	r4, #0
    2cbe:	f000 8518 	beq.w	36f2 <f_mkfs+0xaac>
    2cc2:	f5b7 7f00 	cmp.w	r7, #512	; 0x200
    2cc6:	f0c0 8514 	bcc.w	36f2 <f_mkfs+0xaac>
    2cca:	2101      	movs	r1, #1
    2ccc:	4658      	mov	r0, fp
    2cce:	aa12      	add	r2, sp, #72	; 0x48
    2cd0:	f7ff fffe 	bl	0 <disk_ioctl>
    2cd4:	b108      	cbz	r0, 2cda <f_mkfs+0x94>
    2cd6:	2001      	movs	r0, #1
    2cd8:	e7ea      	b.n	2cb0 <f_mkfs+0x6a>
    2cda:	f015 0308 	ands.w	r3, r5, #8
    2cde:	9912      	ldr	r1, [sp, #72]	; 0x48
    2ce0:	9304      	str	r3, [sp, #16]
    2ce2:	d103      	bne.n	2cec <f_mkfs+0xa6>
    2ce4:	293e      	cmp	r1, #62	; 0x3e
    2ce6:	d85c      	bhi.n	2da2 <f_mkfs+0x15c>
    2ce8:	200e      	movs	r0, #14
    2cea:	e7e1      	b.n	2cb0 <f_mkfs+0x6a>
    2cec:	9001      	str	r0, [sp, #4]
    2cee:	9b01      	ldr	r3, [sp, #4]
    2cf0:	1acb      	subs	r3, r1, r3
    2cf2:	2b7f      	cmp	r3, #127	; 0x7f
    2cf4:	9312      	str	r3, [sp, #72]	; 0x48
    2cf6:	d9f7      	bls.n	2ce8 <f_mkfs+0xa2>
    2cf8:	0a7a      	lsrs	r2, r7, #9
    2cfa:	9205      	str	r2, [sp, #20]
    2cfc:	f427 72ff 	bic.w	r2, r7, #510	; 0x1fe
    2d00:	f022 0201 	bic.w	r2, r2, #1
    2d04:	0768      	lsls	r0, r5, #29
    2d06:	ea4f 2a56 	mov.w	sl, r6, lsr #9
    2d0a:	9202      	str	r2, [sp, #8]
    2d0c:	d54c      	bpl.n	2da8 <f_mkfs+0x162>
    2d0e:	f005 0207 	and.w	r2, r5, #7
    2d12:	2a04      	cmp	r2, #4
    2d14:	f000 809d 	beq.w	2e52 <f_mkfs+0x20c>
    2d18:	f1b3 6f80 	cmp.w	r3, #67108864	; 0x4000000
    2d1c:	f080 8093 	bcs.w	2e46 <f_mkfs+0x200>
    2d20:	f5b6 3f81 	cmp.w	r6, #66048	; 0x10200
    2d24:	d249      	bcs.n	2dba <f_mkfs+0x174>
    2d26:	f015 0c02 	ands.w	ip, r5, #2
    2d2a:	d041      	beq.n	2db0 <f_mkfs+0x16a>
    2d2c:	f005 0207 	and.w	r2, r5, #7
    2d30:	2a02      	cmp	r2, #2
    2d32:	f000 82d3 	beq.w	32dc <f_mkfs+0x696>
    2d36:	f005 0501 	and.w	r5, r5, #1
    2d3a:	f1c5 0503 	rsb	r5, r5, #3
    2d3e:	b2ed      	uxtb	r5, r5
    2d40:	9811      	ldr	r0, [sp, #68]	; 0x44
    2d42:	2d03      	cmp	r5, #3
    2d44:	f100 3eff 	add.w	lr, r0, #4294967295	; 0xffffffff
    2d48:	f1c0 0000 	rsb	r0, r0, #0
    2d4c:	f000 82c8 	beq.w	32e0 <f_mkfs+0x69a>
    2d50:	f1ba 0f00 	cmp.w	sl, #0
    2d54:	f040 831e 	bne.w	3394 <f_mkfs+0x74e>
    2d58:	2101      	movs	r1, #1
    2d5a:	4d6f      	ldr	r5, [pc, #444]	; (2f18 <f_mkfs+0x2d2>)
    2d5c:	0b1e      	lsrs	r6, r3, #12
    2d5e:	f835 2b02 	ldrh.w	r2, [r5], #2
    2d62:	b112      	cbz	r2, 2d6a <f_mkfs+0x124>
    2d64:	42b2      	cmp	r2, r6
    2d66:	f240 8313 	bls.w	3390 <f_mkfs+0x74a>
    2d6a:	fbb3 f5f1 	udiv	r5, r3, r1
    2d6e:	f640 72f5 	movw	r2, #4085	; 0xff5
    2d72:	4295      	cmp	r5, r2
    2d74:	4652      	mov	r2, sl
    2d76:	468a      	mov	sl, r1
    2d78:	f04f 0120 	mov.w	r1, #32
    2d7c:	bf9b      	ittet	ls
    2d7e:	eb05 0545 	addls.w	r5, r5, r5, lsl #1
    2d82:	3501      	addls	r5, #1
    2d84:	3502      	addhi	r5, #2
    2d86:	086d      	lsrls	r5, r5, #1
    2d88:	bf8c      	ite	hi
    2d8a:	006d      	lslhi	r5, r5, #1
    2d8c:	3503      	addls	r5, #3
    2d8e:	f205 15ff 	addw	r5, r5, #511	; 0x1ff
    2d92:	bf8c      	ite	hi
    2d94:	2602      	movhi	r6, #2
    2d96:	2601      	movls	r6, #1
    2d98:	f04f 0901 	mov.w	r9, #1
    2d9c:	0a6d      	lsrs	r5, r5, #9
    2d9e:	9103      	str	r1, [sp, #12]
    2da0:	e2be      	b.n	3320 <f_mkfs+0x6da>
    2da2:	233f      	movs	r3, #63	; 0x3f
    2da4:	9301      	str	r3, [sp, #4]
    2da6:	e7a2      	b.n	2cee <f_mkfs+0xa8>
    2da8:	f5b6 3f81 	cmp.w	r6, #66048	; 0x10200
    2dac:	d3bb      	bcc.n	2d26 <f_mkfs+0xe0>
    2dae:	e77e      	b.n	2cae <f_mkfs+0x68>
    2db0:	07ea      	lsls	r2, r5, #31
    2db2:	f57f af7c 	bpl.w	2cae <f_mkfs+0x68>
    2db6:	2502      	movs	r5, #2
    2db8:	e7c2      	b.n	2d40 <f_mkfs+0xfa>
    2dba:	f5b3 5f80 	cmp.w	r3, #4096	; 0x1000
    2dbe:	d393      	bcc.n	2ce8 <f_mkfs+0xa2>
    2dc0:	9a01      	ldr	r2, [sp, #4]
    2dc2:	9d11      	ldr	r5, [sp, #68]	; 0x44
    2dc4:	3220      	adds	r2, #32
    2dc6:	9206      	str	r2, [sp, #24]
    2dc8:	fbb3 f2fa 	udiv	r2, r3, sl
    2dcc:	0092      	lsls	r2, r2, #2
    2dce:	f202 2207 	addw	r2, r2, #519	; 0x207
    2dd2:	0a50      	lsrs	r0, r2, #9
    2dd4:	9e06      	ldr	r6, [sp, #24]
    2dd6:	900c      	str	r0, [sp, #48]	; 0x30
    2dd8:	1e68      	subs	r0, r5, #1
    2dda:	4430      	add	r0, r6
    2ddc:	eb00 2252 	add.w	r2, r0, r2, lsr #9
    2de0:	426d      	negs	r5, r5
    2de2:	402a      	ands	r2, r5
    2de4:	ebb2 0f53 	cmp.w	r2, r3, lsr #1
    2de8:	9203      	str	r2, [sp, #12]
    2dea:	f4bf af7d 	bcs.w	2ce8 <f_mkfs+0xa2>
    2dee:	1a89      	subs	r1, r1, r2
    2df0:	fbb1 f3fa 	udiv	r3, r1, sl
    2df4:	f1a3 0210 	sub.w	r2, r3, #16
    2df8:	930b      	str	r3, [sp, #44]	; 0x2c
    2dfa:	4b48      	ldr	r3, [pc, #288]	; (2f1c <f_mkfs+0x2d6>)
    2dfc:	429a      	cmp	r2, r3
    2dfe:	f63f af73 	bhi.w	2ce8 <f_mkfs+0xa2>
    2e02:	2600      	movs	r6, #0
    2e04:	9b0b      	ldr	r3, [sp, #44]	; 0x2c
    2e06:	ea4f 284a 	mov.w	r8, sl, lsl #9
    2e0a:	3307      	adds	r3, #7
    2e0c:	08da      	lsrs	r2, r3, #3
    2e0e:	920d      	str	r2, [sp, #52]	; 0x34
    2e10:	f108 32ff 	add.w	r2, r8, #4294967295	; 0xffffffff
    2e14:	eb02 03d3 	add.w	r3, r2, r3, lsr #3
    2e18:	fbb3 f3f8 	udiv	r3, r3, r8
    2e1c:	4637      	mov	r7, r6
    2e1e:	4635      	mov	r5, r6
    2e20:	46b1      	mov	r9, r6
    2e22:	9307      	str	r3, [sp, #28]
    2e24:	920e      	str	r2, [sp, #56]	; 0x38
    2e26:	9313      	str	r3, [sp, #76]	; 0x4c
    2e28:	9a07      	ldr	r2, [sp, #28]
    2e2a:	9b03      	ldr	r3, [sp, #12]
    2e2c:	960a      	str	r6, [sp, #40]	; 0x28
    2e2e:	fb0a 3302 	mla	r3, sl, r2, r3
    2e32:	9608      	str	r6, [sp, #32]
    2e34:	9309      	str	r3, [sp, #36]	; 0x24
    2e36:	b30e      	cbz	r6, 2e7c <f_mkfs+0x236>
    2e38:	2e01      	cmp	r6, #1
    2e3a:	d02e      	beq.n	2e9a <f_mkfs+0x254>
    2e3c:	b2b8      	uxth	r0, r7
    2e3e:	4405      	add	r5, r0
    2e40:	2600      	movs	r6, #0
    2e42:	b2ad      	uxth	r5, r5
    2e44:	e030      	b.n	2ea8 <f_mkfs+0x262>
    2e46:	f5b6 7f00 	cmp.w	r6, #512	; 0x200
    2e4a:	bf38      	it	cc
    2e4c:	f44f 7a80 	movcc.w	sl, #256	; 0x100
    2e50:	e7b6      	b.n	2dc0 <f_mkfs+0x17a>
    2e52:	f5b3 5f80 	cmp.w	r3, #4096	; 0x1000
    2e56:	f4ff af47 	bcc.w	2ce8 <f_mkfs+0xa2>
    2e5a:	f5b6 7f00 	cmp.w	r6, #512	; 0x200
    2e5e:	d2af      	bcs.n	2dc0 <f_mkfs+0x17a>
    2e60:	f5b3 2f00 	cmp.w	r3, #524288	; 0x80000
    2e64:	d307      	bcc.n	2e76 <f_mkfs+0x230>
    2e66:	f1b3 6f80 	cmp.w	r3, #67108864	; 0x4000000
    2e6a:	bf34      	ite	cc
    2e6c:	f04f 0a40 	movcc.w	sl, #64	; 0x40
    2e70:	f44f 7a80 	movcs.w	sl, #256	; 0x100
    2e74:	e7a4      	b.n	2dc0 <f_mkfs+0x17a>
    2e76:	f04f 0a08 	mov.w	sl, #8
    2e7a:	e7a1      	b.n	2dc0 <f_mkfs+0x17a>
    2e7c:	4628      	mov	r0, r5
    2e7e:	f7ff fffe 	bl	0 <ff_wtoupper>
    2e82:	b280      	uxth	r0, r0
    2e84:	1c6a      	adds	r2, r5, #1
    2e86:	4285      	cmp	r5, r0
    2e88:	b292      	uxth	r2, r2
    2e8a:	d13e      	bne.n	2f0a <f_mkfs+0x2c4>
    2e8c:	2701      	movs	r7, #1
    2e8e:	19ee      	adds	r6, r5, r7
    2e90:	b2b6      	uxth	r6, r6
    2e92:	2e00      	cmp	r6, #0
    2e94:	d132      	bne.n	2efc <f_mkfs+0x2b6>
    2e96:	2f7f      	cmp	r7, #127	; 0x7f
    2e98:	d842      	bhi.n	2f20 <f_mkfs+0x2da>
    2e9a:	3f01      	subs	r7, #1
    2e9c:	bf14      	ite	ne
    2e9e:	2601      	movne	r6, #1
    2ea0:	2600      	moveq	r6, #0
    2ea2:	1c6a      	adds	r2, r5, #1
    2ea4:	4628      	mov	r0, r5
    2ea6:	b295      	uxth	r5, r2
    2ea8:	9b0a      	ldr	r3, [sp, #40]	; 0x28
    2eaa:	b2c2      	uxtb	r2, r0
    2eac:	f804 2009 	strb.w	r2, [r4, r9]
    2eb0:	f3c0 200f 	ubfx	r0, r0, #8, #16
    2eb4:	eb02 0273 	add.w	r2, r2, r3, ror #1
    2eb8:	eb00 0372 	add.w	r3, r0, r2, ror #1
    2ebc:	930a      	str	r3, [sp, #40]	; 0x28
    2ebe:	9b08      	ldr	r3, [sp, #32]
    2ec0:	eb04 0109 	add.w	r1, r4, r9
    2ec4:	3302      	adds	r3, #2
    2ec6:	7048      	strb	r0, [r1, #1]
    2ec8:	9308      	str	r3, [sp, #32]
    2eca:	b125      	cbz	r5, 2ed6 <f_mkfs+0x290>
    2ecc:	9b02      	ldr	r3, [sp, #8]
    2ece:	f109 0002 	add.w	r0, r9, #2
    2ed2:	4283      	cmp	r3, r0
    2ed4:	d110      	bne.n	2ef8 <f_mkfs+0x2b2>
    2ed6:	f209 2301 	addw	r3, r9, #513	; 0x201
    2eda:	ea4f 2953 	mov.w	r9, r3, lsr #9
    2ede:	464b      	mov	r3, r9
    2ee0:	4621      	mov	r1, r4
    2ee2:	4658      	mov	r0, fp
    2ee4:	9a09      	ldr	r2, [sp, #36]	; 0x24
    2ee6:	f7ff fffe 	bl	0 <disk_write>
    2eea:	2800      	cmp	r0, #0
    2eec:	f47f aef3 	bne.w	2cd6 <f_mkfs+0x90>
    2ef0:	b1d5      	cbz	r5, 2f28 <f_mkfs+0x2e2>
    2ef2:	9b09      	ldr	r3, [sp, #36]	; 0x24
    2ef4:	444b      	add	r3, r9
    2ef6:	9309      	str	r3, [sp, #36]	; 0x24
    2ef8:	4681      	mov	r9, r0
    2efa:	e79c      	b.n	2e36 <f_mkfs+0x1f0>
    2efc:	4630      	mov	r0, r6
    2efe:	f7ff fffe 	bl	0 <ff_wtoupper>
    2f02:	4286      	cmp	r6, r0
    2f04:	d1c7      	bne.n	2e96 <f_mkfs+0x250>
    2f06:	3701      	adds	r7, #1
    2f08:	e7c1      	b.n	2e8e <f_mkfs+0x248>
    2f0a:	4615      	mov	r5, r2
    2f0c:	e7cc      	b.n	2ea8 <f_mkfs+0x262>
    2f0e:	bf00      	nop
    2f10:	00000000 	.word	0x00000000
    2f14:	00fffe00 	.word	0x00fffe00
    2f18:	0000001c 	.word	0x0000001c
    2f1c:	7fffffed 	.word	0x7fffffed
    2f20:	2602      	movs	r6, #2
    2f22:	f64f 70ff 	movw	r0, #65535	; 0xffff
    2f26:	e7bf      	b.n	2ea8 <f_mkfs+0x262>
    2f28:	9a08      	ldr	r2, [sp, #32]
    2f2a:	9b0e      	ldr	r3, [sp, #56]	; 0x38
    2f2c:	9f03      	ldr	r7, [sp, #12]
    2f2e:	4413      	add	r3, r2
    2f30:	2201      	movs	r2, #1
    2f32:	fbb3 f3f8 	udiv	r3, r3, r8
    2f36:	f04f 08ff 	mov.w	r8, #255	; 0xff
    2f3a:	9215      	str	r2, [sp, #84]	; 0x54
    2f3c:	9a0d      	ldr	r2, [sp, #52]	; 0x34
    2f3e:	9314      	str	r3, [sp, #80]	; 0x50
    2f40:	f202 15ff 	addw	r5, r2, #511	; 0x1ff
    2f44:	9a07      	ldr	r2, [sp, #28]
    2f46:	0a6d      	lsrs	r5, r5, #9
    2f48:	18d3      	adds	r3, r2, r3
    2f4a:	9309      	str	r3, [sp, #36]	; 0x24
    2f4c:	1c5e      	adds	r6, r3, #1
    2f4e:	2100      	movs	r1, #0
    2f50:	4620      	mov	r0, r4
    2f52:	9a02      	ldr	r2, [sp, #8]
    2f54:	f7fd f871 	bl	3a <mem_set>
    2f58:	2e07      	cmp	r6, #7
    2f5a:	d941      	bls.n	2fe0 <f_mkfs+0x39a>
    2f5c:	9b02      	ldr	r3, [sp, #8]
    2f5e:	428b      	cmp	r3, r1
    2f60:	d12d      	bne.n	2fbe <f_mkfs+0x378>
    2f62:	f8dd 9014 	ldr.w	r9, [sp, #20]
    2f66:	463a      	mov	r2, r7
    2f68:	45a9      	cmp	r9, r5
    2f6a:	bf28      	it	cs
    2f6c:	46a9      	movcs	r9, r5
    2f6e:	4621      	mov	r1, r4
    2f70:	464b      	mov	r3, r9
    2f72:	4658      	mov	r0, fp
    2f74:	f7ff fffe 	bl	0 <disk_write>
    2f78:	2800      	cmp	r0, #0
    2f7a:	f47f aeac 	bne.w	2cd6 <f_mkfs+0x90>
    2f7e:	ebb5 0509 	subs.w	r5, r5, r9
    2f82:	444f      	add	r7, r9
    2f84:	d1e3      	bne.n	2f4e <f_mkfs+0x308>
    2f86:	46a9      	mov	r9, r5
    2f88:	462f      	mov	r7, r5
    2f8a:	26ff      	movs	r6, #255	; 0xff
    2f8c:	f8dd 8030 	ldr.w	r8, [sp, #48]	; 0x30
    2f90:	2100      	movs	r1, #0
    2f92:	4620      	mov	r0, r4
    2f94:	9a02      	ldr	r2, [sp, #8]
    2f96:	f7fd f850 	bl	3a <mem_set>
    2f9a:	f1b9 0f00 	cmp.w	r9, #0
    2f9e:	d122      	bne.n	2fe6 <f_mkfs+0x3a0>
    2fa0:	f06f 0307 	mvn.w	r3, #7
    2fa4:	f04f 0902 	mov.w	r9, #2
    2fa8:	2208      	movs	r2, #8
    2faa:	7023      	strb	r3, [r4, #0]
    2fac:	7066      	strb	r6, [r4, #1]
    2fae:	70a6      	strb	r6, [r4, #2]
    2fb0:	70e6      	strb	r6, [r4, #3]
    2fb2:	7126      	strb	r6, [r4, #4]
    2fb4:	7166      	strb	r6, [r4, #5]
    2fb6:	71a6      	strb	r6, [r4, #6]
    2fb8:	71e6      	strb	r6, [r4, #7]
    2fba:	462b      	mov	r3, r5
    2fbc:	e031      	b.n	3022 <f_mkfs+0x3dc>
    2fbe:	f804 8001 	strb.w	r8, [r4, r1]
    2fc2:	3e08      	subs	r6, #8
    2fc4:	3101      	adds	r1, #1
    2fc6:	e7c7      	b.n	2f58 <f_mkfs+0x312>
    2fc8:	7802      	ldrb	r2, [r0, #0]
    2fca:	3e01      	subs	r6, #1
    2fcc:	431a      	orrs	r2, r3
    2fce:	005b      	lsls	r3, r3, #1
    2fd0:	7002      	strb	r2, [r0, #0]
    2fd2:	b2db      	uxtb	r3, r3
    2fd4:	2e00      	cmp	r6, #0
    2fd6:	d0c4      	beq.n	2f62 <f_mkfs+0x31c>
    2fd8:	9a02      	ldr	r2, [sp, #8]
    2fda:	428a      	cmp	r2, r1
    2fdc:	d8f4      	bhi.n	2fc8 <f_mkfs+0x382>
    2fde:	e7c0      	b.n	2f62 <f_mkfs+0x31c>
    2fe0:	2301      	movs	r3, #1
    2fe2:	1860      	adds	r0, r4, r1
    2fe4:	e7f6      	b.n	2fd4 <f_mkfs+0x38e>
    2fe6:	460a      	mov	r2, r1
    2fe8:	e7e7      	b.n	2fba <f_mkfs+0x374>
    2fea:	2d02      	cmp	r5, #2
    2fec:	d81e      	bhi.n	302c <f_mkfs+0x3e6>
    2fee:	a916      	add	r1, sp, #88	; 0x58
    2ff0:	eb01 0383 	add.w	r3, r1, r3, lsl #2
    2ff4:	f853 7c0c 	ldr.w	r7, [r3, #-12]
    2ff8:	3501      	adds	r5, #1
    2ffa:	b1bf      	cbz	r7, 302c <f_mkfs+0x3e6>
    2ffc:	9b02      	ldr	r3, [sp, #8]
    2ffe:	429a      	cmp	r2, r3
    3000:	d214      	bcs.n	302c <f_mkfs+0x3e6>
    3002:	462b      	mov	r3, r5
    3004:	2f01      	cmp	r7, #1
    3006:	f109 0901 	add.w	r9, r9, #1
    300a:	eb04 0002 	add.w	r0, r4, r2
    300e:	bf14      	ite	ne
    3010:	4649      	movne	r1, r9
    3012:	f04f 31ff 	moveq.w	r1, #4294967295	; 0xffffffff
    3016:	930e      	str	r3, [sp, #56]	; 0x38
    3018:	f7fc fff8 	bl	c <st_dword>
    301c:	9b0e      	ldr	r3, [sp, #56]	; 0x38
    301e:	3204      	adds	r2, #4
    3020:	3f01      	subs	r7, #1
    3022:	2f00      	cmp	r7, #0
    3024:	d0e1      	beq.n	2fea <f_mkfs+0x3a4>
    3026:	9902      	ldr	r1, [sp, #8]
    3028:	428a      	cmp	r2, r1
    302a:	d3eb      	bcc.n	3004 <f_mkfs+0x3be>
    302c:	9b05      	ldr	r3, [sp, #20]
    302e:	4621      	mov	r1, r4
    3030:	4543      	cmp	r3, r8
    3032:	bf28      	it	cs
    3034:	4643      	movcs	r3, r8
    3036:	4658      	mov	r0, fp
    3038:	9a06      	ldr	r2, [sp, #24]
    303a:	930e      	str	r3, [sp, #56]	; 0x38
    303c:	f7ff fffe 	bl	0 <disk_write>
    3040:	2800      	cmp	r0, #0
    3042:	f47f ae48 	bne.w	2cd6 <f_mkfs+0x90>
    3046:	9a06      	ldr	r2, [sp, #24]
    3048:	9b0e      	ldr	r3, [sp, #56]	; 0x38
    304a:	441a      	add	r2, r3
    304c:	ebb8 0803 	subs.w	r8, r8, r3
    3050:	9206      	str	r2, [sp, #24]
    3052:	d19d      	bne.n	2f90 <f_mkfs+0x34a>
    3054:	2383      	movs	r3, #131	; 0x83
    3056:	4641      	mov	r1, r8
    3058:	4620      	mov	r0, r4
    305a:	9a02      	ldr	r2, [sp, #8]
    305c:	f7fc ffed 	bl	3a <mem_set>
    3060:	7023      	strb	r3, [r4, #0]
    3062:	2381      	movs	r3, #129	; 0x81
    3064:	f884 3020 	strb.w	r3, [r4, #32]
    3068:	2302      	movs	r3, #2
    306a:	990d      	ldr	r1, [sp, #52]	; 0x34
    306c:	f884 3034 	strb.w	r3, [r4, #52]	; 0x34
    3070:	f104 0038 	add.w	r0, r4, #56	; 0x38
    3074:	f884 8035 	strb.w	r8, [r4, #53]	; 0x35
    3078:	f884 8036 	strb.w	r8, [r4, #54]	; 0x36
    307c:	f884 8037 	strb.w	r8, [r4, #55]	; 0x37
    3080:	f7fc ffc4 	bl	c <st_dword>
    3084:	2382      	movs	r3, #130	; 0x82
    3086:	4655      	mov	r5, sl
    3088:	990a      	ldr	r1, [sp, #40]	; 0x28
    308a:	f884 3040 	strb.w	r3, [r4, #64]	; 0x40
    308e:	f104 0044 	add.w	r0, r4, #68	; 0x44
    3092:	f7fc ffbb 	bl	c <st_dword>
    3096:	9907      	ldr	r1, [sp, #28]
    3098:	f104 0354 	add.w	r3, r4, #84	; 0x54
    309c:	4618      	mov	r0, r3
    309e:	3102      	adds	r1, #2
    30a0:	930a      	str	r3, [sp, #40]	; 0x28
    30a2:	f7fc ffb3 	bl	c <st_dword>
    30a6:	f104 0358 	add.w	r3, r4, #88	; 0x58
    30aa:	4618      	mov	r0, r3
    30ac:	9908      	ldr	r1, [sp, #32]
    30ae:	9307      	str	r3, [sp, #28]
    30b0:	f7fc ffac 	bl	c <st_dword>
    30b4:	9b03      	ldr	r3, [sp, #12]
    30b6:	9a09      	ldr	r2, [sp, #36]	; 0x24
    30b8:	fb0a 3602 	mla	r6, sl, r2, r3
    30bc:	9f05      	ldr	r7, [sp, #20]
    30be:	4621      	mov	r1, r4
    30c0:	42af      	cmp	r7, r5
    30c2:	bf28      	it	cs
    30c4:	462f      	movcs	r7, r5
    30c6:	4632      	mov	r2, r6
    30c8:	463b      	mov	r3, r7
    30ca:	4658      	mov	r0, fp
    30cc:	f7ff fffe 	bl	0 <disk_write>
    30d0:	4601      	mov	r1, r0
    30d2:	2800      	cmp	r0, #0
    30d4:	f47f adff 	bne.w	2cd6 <f_mkfs+0x90>
    30d8:	f44f 7200 	mov.w	r2, #512	; 0x200
    30dc:	4620      	mov	r0, r4
    30de:	f7fc ffac 	bl	3a <mem_set>
    30e2:	1bed      	subs	r5, r5, r7
    30e4:	443e      	add	r6, r7
    30e6:	d1e9      	bne.n	30bc <f_mkfs+0x476>
    30e8:	2302      	movs	r3, #2
    30ea:	9f01      	ldr	r7, [sp, #4]
    30ec:	9306      	str	r3, [sp, #24]
    30ee:	9502      	str	r5, [sp, #8]
    30f0:	f44f 7200 	mov.w	r2, #512	; 0x200
    30f4:	2100      	movs	r1, #0
    30f6:	4620      	mov	r0, r4
    30f8:	f7fc ff9f 	bl	3a <mem_set>
    30fc:	220b      	movs	r2, #11
    30fe:	4620      	mov	r0, r4
    3100:	49b9      	ldr	r1, [pc, #740]	; (33e8 <f_mkfs+0x7a2>)
    3102:	f7fd f867 	bl	1d4 <mem_cpy.part.0>
    3106:	9901      	ldr	r1, [sp, #4]
    3108:	f104 0040 	add.w	r0, r4, #64	; 0x40
    310c:	f7fc ff7e 	bl	c <st_dword>
    3110:	9912      	ldr	r1, [sp, #72]	; 0x48
    3112:	f104 0048 	add.w	r0, r4, #72	; 0x48
    3116:	f7fc ff79 	bl	c <st_dword>
    311a:	2320      	movs	r3, #32
    311c:	f884 3050 	strb.w	r3, [r4, #80]	; 0x50
    3120:	9b02      	ldr	r3, [sp, #8]
    3122:	990c      	ldr	r1, [sp, #48]	; 0x30
    3124:	980a      	ldr	r0, [sp, #40]	; 0x28
    3126:	f884 3051 	strb.w	r3, [r4, #81]	; 0x51
    312a:	f884 3052 	strb.w	r3, [r4, #82]	; 0x52
    312e:	f884 3053 	strb.w	r3, [r4, #83]	; 0x53
    3132:	f7fc ff6b 	bl	c <st_dword>
    3136:	9b03      	ldr	r3, [sp, #12]
    3138:	9a01      	ldr	r2, [sp, #4]
    313a:	9807      	ldr	r0, [sp, #28]
    313c:	1a99      	subs	r1, r3, r2
    313e:	f7fc ff65 	bl	c <st_dword>
    3142:	990b      	ldr	r1, [sp, #44]	; 0x2c
    3144:	f104 005c 	add.w	r0, r4, #92	; 0x5c
    3148:	f7fc ff60 	bl	c <st_dword>
    314c:	9b09      	ldr	r3, [sp, #36]	; 0x24
    314e:	f104 0060 	add.w	r0, r4, #96	; 0x60
    3152:	1c99      	adds	r1, r3, #2
    3154:	f7fc ff5a 	bl	c <st_dword>
    3158:	f7ff fffe 	bl	0 <get_fattime>
    315c:	4601      	mov	r1, r0
    315e:	f104 0064 	add.w	r0, r4, #100	; 0x64
    3162:	f7fc ff53 	bl	c <st_dword>
    3166:	9b02      	ldr	r3, [sp, #8]
    3168:	4655      	mov	r5, sl
    316a:	f884 3068 	strb.w	r3, [r4, #104]	; 0x68
    316e:	f04f 0301 	mov.w	r3, #1
    3172:	f884 3069 	strb.w	r3, [r4, #105]	; 0x69
    3176:	2309      	movs	r3, #9
    3178:	f884 306c 	strb.w	r3, [r4, #108]	; 0x6c
    317c:	2300      	movs	r3, #0
    317e:	086d      	lsrs	r5, r5, #1
    3180:	d120      	bne.n	31c4 <f_mkfs+0x57e>
    3182:	f884 306d 	strb.w	r3, [r4, #109]	; 0x6d
    3186:	f04f 0301 	mov.w	r3, #1
    318a:	f884 306e 	strb.w	r3, [r4, #110]	; 0x6e
    318e:	2380      	movs	r3, #128	; 0x80
    3190:	f884 306f 	strb.w	r3, [r4, #111]	; 0x6f
    3194:	23eb      	movs	r3, #235	; 0xeb
    3196:	f884 3078 	strb.w	r3, [r4, #120]	; 0x78
    319a:	23fe      	movs	r3, #254	; 0xfe
    319c:	f884 3079 	strb.w	r3, [r4, #121]	; 0x79
    31a0:	2355      	movs	r3, #85	; 0x55
    31a2:	f884 31fe 	strb.w	r3, [r4, #510]	; 0x1fe
    31a6:	23aa      	movs	r3, #170	; 0xaa
    31a8:	462e      	mov	r6, r5
    31aa:	46a8      	mov	r8, r5
    31ac:	f884 31ff 	strb.w	r3, [r4, #511]	; 0x1ff
    31b0:	f1a8 036a 	sub.w	r3, r8, #106	; 0x6a
    31b4:	2b01      	cmp	r3, #1
    31b6:	d808      	bhi.n	31ca <f_mkfs+0x584>
    31b8:	f108 0801 	add.w	r8, r8, #1
    31bc:	e7f8      	b.n	31b0 <f_mkfs+0x56a>
    31be:	2301      	movs	r3, #1
    31c0:	9306      	str	r3, [sp, #24]
    31c2:	e795      	b.n	30f0 <f_mkfs+0x4aa>
    31c4:	3301      	adds	r3, #1
    31c6:	b2db      	uxtb	r3, r3
    31c8:	e7d9      	b.n	317e <f_mkfs+0x538>
    31ca:	f1b8 0f70 	cmp.w	r8, #112	; 0x70
    31ce:	bf08      	it	eq
    31d0:	f04f 0871 	moveq.w	r8, #113	; 0x71
    31d4:	f814 3008 	ldrb.w	r3, [r4, r8]
    31d8:	f108 0801 	add.w	r8, r8, #1
    31dc:	f5b8 7f00 	cmp.w	r8, #512	; 0x200
    31e0:	eb03 0676 	add.w	r6, r3, r6, ror #1
    31e4:	d1e4      	bne.n	31b0 <f_mkfs+0x56a>
    31e6:	4621      	mov	r1, r4
    31e8:	2301      	movs	r3, #1
    31ea:	463a      	mov	r2, r7
    31ec:	4658      	mov	r0, fp
    31ee:	f7ff fffe 	bl	0 <disk_write>
    31f2:	f107 0901 	add.w	r9, r7, #1
    31f6:	4601      	mov	r1, r0
    31f8:	2800      	cmp	r0, #0
    31fa:	f47f ad6c 	bne.w	2cd6 <f_mkfs+0x90>
    31fe:	2355      	movs	r3, #85	; 0x55
    3200:	4642      	mov	r2, r8
    3202:	4620      	mov	r0, r4
    3204:	f7fc ff19 	bl	3a <mem_set>
    3208:	f884 31fe 	strb.w	r3, [r4, #510]	; 0x1fe
    320c:	23aa      	movs	r3, #170	; 0xaa
    320e:	f884 31ff 	strb.w	r3, [r4, #511]	; 0x1ff
    3212:	f107 0309 	add.w	r3, r7, #9
    3216:	9308      	str	r3, [sp, #32]
    3218:	f204 13ff 	addw	r3, r4, #511	; 0x1ff
    321c:	1e67      	subs	r7, r4, #1
    321e:	9305      	str	r3, [sp, #20]
    3220:	463b      	mov	r3, r7
    3222:	f813 2f01 	ldrb.w	r2, [r3, #1]!
    3226:	eb02 0676 	add.w	r6, r2, r6, ror #1
    322a:	9a05      	ldr	r2, [sp, #20]
    322c:	429a      	cmp	r2, r3
    322e:	d1f8      	bne.n	3222 <f_mkfs+0x5dc>
    3230:	4621      	mov	r1, r4
    3232:	2301      	movs	r3, #1
    3234:	464a      	mov	r2, r9
    3236:	4658      	mov	r0, fp
    3238:	f7ff fffe 	bl	0 <disk_write>
    323c:	f109 0801 	add.w	r8, r9, #1
    3240:	4601      	mov	r1, r0
    3242:	2800      	cmp	r0, #0
    3244:	f47f ad47 	bne.w	2cd6 <f_mkfs+0x90>
    3248:	9b08      	ldr	r3, [sp, #32]
    324a:	4598      	cmp	r8, r3
    324c:	d001      	beq.n	3252 <f_mkfs+0x60c>
    324e:	46c1      	mov	r9, r8
    3250:	e7e6      	b.n	3220 <f_mkfs+0x5da>
    3252:	f44f 7200 	mov.w	r2, #512	; 0x200
    3256:	4620      	mov	r0, r4
    3258:	f109 0303 	add.w	r3, r9, #3
    325c:	f7fc feed 	bl	3a <mem_set>
    3260:	9308      	str	r3, [sp, #32]
    3262:	463b      	mov	r3, r7
    3264:	f813 2f01 	ldrb.w	r2, [r3, #1]!
    3268:	eb02 0676 	add.w	r6, r2, r6, ror #1
    326c:	9a05      	ldr	r2, [sp, #20]
    326e:	429a      	cmp	r2, r3
    3270:	d1f8      	bne.n	3264 <f_mkfs+0x61e>
    3272:	2301      	movs	r3, #1
    3274:	4642      	mov	r2, r8
    3276:	4621      	mov	r1, r4
    3278:	4658      	mov	r0, fp
    327a:	f108 0901 	add.w	r9, r8, #1
    327e:	f7ff fffe 	bl	0 <disk_write>
    3282:	2800      	cmp	r0, #0
    3284:	f47f ad27 	bne.w	2cd6 <f_mkfs+0x90>
    3288:	9b08      	ldr	r3, [sp, #32]
    328a:	4599      	cmp	r9, r3
    328c:	d001      	beq.n	3292 <f_mkfs+0x64c>
    328e:	46c8      	mov	r8, r9
    3290:	e7e7      	b.n	3262 <f_mkfs+0x61c>
    3292:	1960      	adds	r0, r4, r5
    3294:	4631      	mov	r1, r6
    3296:	3504      	adds	r5, #4
    3298:	f7fc feb8 	bl	c <st_dword>
    329c:	f5b5 7f00 	cmp.w	r5, #512	; 0x200
    32a0:	d1f7      	bne.n	3292 <f_mkfs+0x64c>
    32a2:	2301      	movs	r3, #1
    32a4:	464a      	mov	r2, r9
    32a6:	4621      	mov	r1, r4
    32a8:	4658      	mov	r0, fp
    32aa:	f108 0702 	add.w	r7, r8, #2
    32ae:	f7ff fffe 	bl	0 <disk_write>
    32b2:	2800      	cmp	r0, #0
    32b4:	f47f ad0f 	bne.w	2cd6 <f_mkfs+0x90>
    32b8:	9b06      	ldr	r3, [sp, #24]
    32ba:	2b01      	cmp	r3, #1
    32bc:	f47f af7f 	bne.w	31be <f_mkfs+0x578>
    32c0:	2507      	movs	r5, #7
    32c2:	9b04      	ldr	r3, [sp, #16]
    32c4:	2b00      	cmp	r3, #0
    32c6:	f000 81cd 	beq.w	3664 <f_mkfs+0xa1e>
    32ca:	2200      	movs	r2, #0
    32cc:	4658      	mov	r0, fp
    32ce:	4611      	mov	r1, r2
    32d0:	f7ff fffe 	bl	0 <disk_ioctl>
    32d4:	3800      	subs	r0, #0
    32d6:	bf18      	it	ne
    32d8:	2001      	movne	r0, #1
    32da:	e4e9      	b.n	2cb0 <f_mkfs+0x6a>
    32dc:	2503      	movs	r5, #3
    32de:	e52f      	b.n	2d40 <f_mkfs+0xfa>
    32e0:	f1ba 0f00 	cmp.w	sl, #0
    32e4:	d14d      	bne.n	3382 <f_mkfs+0x73c>
    32e6:	f04f 0a01 	mov.w	sl, #1
    32ea:	4940      	ldr	r1, [pc, #256]	; (33ec <f_mkfs+0x7a6>)
    32ec:	0c5d      	lsrs	r5, r3, #17
    32ee:	f831 2b02 	ldrh.w	r2, [r1], #2
    32f2:	b112      	cbz	r2, 32fa <f_mkfs+0x6b4>
    32f4:	42aa      	cmp	r2, r5
    32f6:	d946      	bls.n	3386 <f_mkfs+0x740>
    32f8:	2200      	movs	r2, #0
    32fa:	fbb3 f1fa 	udiv	r1, r3, sl
    32fe:	4e3c      	ldr	r6, [pc, #240]	; (33f0 <f_mkfs+0x7aa>)
    3300:	008d      	lsls	r5, r1, #2
    3302:	f5a1 417f 	sub.w	r1, r1, #65280	; 0xff00
    3306:	39f6      	subs	r1, #246	; 0xf6
    3308:	f205 2507 	addw	r5, r5, #519	; 0x207
    330c:	42b1      	cmp	r1, r6
    330e:	ea4f 2555 	mov.w	r5, r5, lsr #9
    3312:	f63f ace9 	bhi.w	2ce8 <f_mkfs+0xa2>
    3316:	2100      	movs	r1, #0
    3318:	f04f 0920 	mov.w	r9, #32
    331c:	2603      	movs	r6, #3
    331e:	9103      	str	r1, [sp, #12]
    3320:	9901      	ldr	r1, [sp, #4]
    3322:	2e03      	cmp	r6, #3
    3324:	eb09 0801 	add.w	r8, r9, r1
    3328:	9903      	ldr	r1, [sp, #12]
    332a:	eb05 0701 	add.w	r7, r5, r1
    332e:	4447      	add	r7, r8
    3330:	eb07 010e 	add.w	r1, r7, lr
    3334:	ea01 0100 	and.w	r1, r1, r0
    3338:	eba1 0107 	sub.w	r1, r1, r7
    333c:	bf06      	itte	eq
    333e:	4489      	addeq	r9, r1
    3340:	4488      	addeq	r8, r1
    3342:	186d      	addne	r5, r5, r1
    3344:	9901      	ldr	r1, [sp, #4]
    3346:	ebc1 110a 	rsb	r1, r1, sl, lsl #4
    334a:	4439      	add	r1, r7
    334c:	428b      	cmp	r3, r1
    334e:	f4ff accb 	bcc.w	2ce8 <f_mkfs+0xa2>
    3352:	9903      	ldr	r1, [sp, #12]
    3354:	2e03      	cmp	r6, #3
    3356:	eba3 0701 	sub.w	r7, r3, r1
    335a:	eba7 0709 	sub.w	r7, r7, r9
    335e:	eba7 0705 	sub.w	r7, r7, r5
    3362:	fbb7 f7fa 	udiv	r7, r7, sl
    3366:	d117      	bne.n	3398 <f_mkfs+0x752>
    3368:	f64f 71f5 	movw	r1, #65525	; 0xfff5
    336c:	428f      	cmp	r7, r1
    336e:	d847      	bhi.n	3400 <f_mkfs+0x7ba>
    3370:	2a00      	cmp	r2, #0
    3372:	f47f acb9 	bne.w	2ce8 <f_mkfs+0xa2>
    3376:	f1ba 0f01 	cmp.w	sl, #1
    337a:	f67f acb5 	bls.w	2ce8 <f_mkfs+0xa2>
    337e:	ea4f 0a5a 	mov.w	sl, sl, lsr #1
    3382:	4652      	mov	r2, sl
    3384:	e7b9      	b.n	32fa <f_mkfs+0x6b4>
    3386:	ea4f 0a4a 	mov.w	sl, sl, lsl #1
    338a:	e7b0      	b.n	32ee <f_mkfs+0x6a8>
    338c:	468a      	mov	sl, r1
    338e:	e4df      	b.n	2d50 <f_mkfs+0x10a>
    3390:	0049      	lsls	r1, r1, #1
    3392:	e4e4      	b.n	2d5e <f_mkfs+0x118>
    3394:	4651      	mov	r1, sl
    3396:	e4e8      	b.n	2d6a <f_mkfs+0x124>
    3398:	2e02      	cmp	r6, #2
    339a:	d12b      	bne.n	33f4 <f_mkfs+0x7ae>
    339c:	f64f 71f5 	movw	r1, #65525	; 0xfff5
    33a0:	428f      	cmp	r7, r1
    33a2:	d912      	bls.n	33ca <f_mkfs+0x784>
    33a4:	b95a      	cbnz	r2, 33be <f_mkfs+0x778>
    33a6:	ea4f 014a 	mov.w	r1, sl, lsl #1
    33aa:	2940      	cmp	r1, #64	; 0x40
    33ac:	d9ee      	bls.n	338c <f_mkfs+0x746>
    33ae:	f1bc 0f00 	cmp.w	ip, #0
    33b2:	d198      	bne.n	32e6 <f_mkfs+0x6a0>
    33b4:	2980      	cmp	r1, #128	; 0x80
    33b6:	f63f ac97 	bhi.w	2ce8 <f_mkfs+0xa2>
    33ba:	468a      	mov	sl, r1
    33bc:	e4d5      	b.n	2d6a <f_mkfs+0x124>
    33be:	f1bc 0f00 	cmp.w	ip, #0
    33c2:	f43f ac91 	beq.w	2ce8 <f_mkfs+0xa2>
    33c6:	4692      	mov	sl, r2
    33c8:	e797      	b.n	32fa <f_mkfs+0x6b4>
    33ca:	f640 71f5 	movw	r1, #4085	; 0xff5
    33ce:	428f      	cmp	r7, r1
    33d0:	d816      	bhi.n	3400 <f_mkfs+0x7ba>
    33d2:	2a00      	cmp	r2, #0
    33d4:	f47f ac88 	bne.w	2ce8 <f_mkfs+0xa2>
    33d8:	ea4f 0a4a 	mov.w	sl, sl, lsl #1
    33dc:	f1ba 0f80 	cmp.w	sl, #128	; 0x80
    33e0:	f67f acb6 	bls.w	2d50 <f_mkfs+0x10a>
    33e4:	e480      	b.n	2ce8 <f_mkfs+0xa2>
    33e6:	bf00      	nop
    33e8:	00000000 	.word	0x00000000
    33ec:	0000000e 	.word	0x0000000e
    33f0:	0ffeffff 	.word	0x0ffeffff
    33f4:	f640 73f5 	movw	r3, #4085	; 0xff5
    33f8:	429f      	cmp	r7, r3
    33fa:	f63f ac75 	bhi.w	2ce8 <f_mkfs+0xa2>
    33fe:	2601      	movs	r6, #1
    3400:	f44f 7200 	mov.w	r2, #512	; 0x200
    3404:	2100      	movs	r1, #0
    3406:	4620      	mov	r0, r4
    3408:	f7fc fe17 	bl	3a <mem_set>
    340c:	220b      	movs	r2, #11
    340e:	49ba      	ldr	r1, [pc, #744]	; (36f8 <f_mkfs+0xab2>)
    3410:	4620      	mov	r0, r4
    3412:	f7fc fedf 	bl	1d4 <mem_cpy.part.0>
    3416:	2300      	movs	r3, #0
    3418:	2202      	movs	r2, #2
    341a:	72e3      	strb	r3, [r4, #11]
    341c:	7463      	strb	r3, [r4, #17]
    341e:	1ef3      	subs	r3, r6, #3
    3420:	bf18      	it	ne
    3422:	2301      	movne	r3, #1
    3424:	7322      	strb	r2, [r4, #12]
    3426:	2201      	movs	r2, #1
    3428:	9912      	ldr	r1, [sp, #72]	; 0x48
    342a:	f884 900e 	strb.w	r9, [r4, #14]
    342e:	4093      	lsls	r3, r2
    3430:	f3c9 2907 	ubfx	r9, r9, #8, #8
    3434:	f5b1 3f80 	cmp.w	r1, #65536	; 0x10000
    3438:	f884 a00d 	strb.w	sl, [r4, #13]
    343c:	f884 900f 	strb.w	r9, [r4, #15]
    3440:	7422      	strb	r2, [r4, #16]
    3442:	74a3      	strb	r3, [r4, #18]
    3444:	f080 8092 	bcs.w	356c <f_mkfs+0x926>
    3448:	74e1      	strb	r1, [r4, #19]
    344a:	f3c1 2107 	ubfx	r1, r1, #8, #8
    344e:	7521      	strb	r1, [r4, #20]
    3450:	23f8      	movs	r3, #248	; 0xf8
    3452:	7563      	strb	r3, [r4, #21]
    3454:	233f      	movs	r3, #63	; 0x3f
    3456:	f04f 0900 	mov.w	r9, #0
    345a:	7623      	strb	r3, [r4, #24]
    345c:	23ff      	movs	r3, #255	; 0xff
    345e:	9901      	ldr	r1, [sp, #4]
    3460:	f884 9019 	strb.w	r9, [r4, #25]
    3464:	76a3      	strb	r3, [r4, #26]
    3466:	f884 901b 	strb.w	r9, [r4, #27]
    346a:	f104 001c 	add.w	r0, r4, #28
    346e:	f7fc fdcd 	bl	c <st_dword>
    3472:	2e03      	cmp	r6, #3
    3474:	d17f      	bne.n	3576 <f_mkfs+0x930>
    3476:	f7ff fffe 	bl	0 <get_fattime>
    347a:	4601      	mov	r1, r0
    347c:	f104 0043 	add.w	r0, r4, #67	; 0x43
    3480:	f7fc fdc4 	bl	c <st_dword>
    3484:	4629      	mov	r1, r5
    3486:	f104 0024 	add.w	r0, r4, #36	; 0x24
    348a:	f7fc fdbf 	bl	c <st_dword>
    348e:	2302      	movs	r3, #2
    3490:	f884 302c 	strb.w	r3, [r4, #44]	; 0x2c
    3494:	2301      	movs	r3, #1
    3496:	f884 3030 	strb.w	r3, [r4, #48]	; 0x30
    349a:	2306      	movs	r3, #6
    349c:	f884 3032 	strb.w	r3, [r4, #50]	; 0x32
    34a0:	2380      	movs	r3, #128	; 0x80
    34a2:	f884 3040 	strb.w	r3, [r4, #64]	; 0x40
    34a6:	2329      	movs	r3, #41	; 0x29
    34a8:	2213      	movs	r2, #19
    34aa:	4994      	ldr	r1, [pc, #592]	; (36fc <f_mkfs+0xab6>)
    34ac:	f884 902d 	strb.w	r9, [r4, #45]	; 0x2d
    34b0:	f884 902e 	strb.w	r9, [r4, #46]	; 0x2e
    34b4:	f884 902f 	strb.w	r9, [r4, #47]	; 0x2f
    34b8:	f884 9031 	strb.w	r9, [r4, #49]	; 0x31
    34bc:	f884 9033 	strb.w	r9, [r4, #51]	; 0x33
    34c0:	f884 3042 	strb.w	r3, [r4, #66]	; 0x42
    34c4:	f104 0047 	add.w	r0, r4, #71	; 0x47
    34c8:	f7fc fe84 	bl	1d4 <mem_cpy.part.0>
    34cc:	f04f 0355 	mov.w	r3, #85	; 0x55
    34d0:	f884 31fe 	strb.w	r3, [r4, #510]	; 0x1fe
    34d4:	f06f 0355 	mvn.w	r3, #85	; 0x55
    34d8:	4621      	mov	r1, r4
    34da:	f884 31ff 	strb.w	r3, [r4, #511]	; 0x1ff
    34de:	4658      	mov	r0, fp
    34e0:	2301      	movs	r3, #1
    34e2:	9a01      	ldr	r2, [sp, #4]
    34e4:	f7ff fffe 	bl	0 <disk_write>
    34e8:	4681      	mov	r9, r0
    34ea:	2800      	cmp	r0, #0
    34ec:	f47f abf3 	bne.w	2cd6 <f_mkfs+0x90>
    34f0:	2e03      	cmp	r6, #3
    34f2:	d056      	beq.n	35a2 <f_mkfs+0x95c>
    34f4:	4601      	mov	r1, r0
    34f6:	9a02      	ldr	r2, [sp, #8]
    34f8:	4620      	mov	r0, r4
    34fa:	f7fc fd9e 	bl	3a <mem_set>
    34fe:	2e01      	cmp	r6, #1
    3500:	497f      	ldr	r1, [pc, #508]	; (3700 <f_mkfs+0xaba>)
    3502:	4620      	mov	r0, r4
    3504:	bf18      	it	ne
    3506:	f06f 0107 	mvnne.w	r1, #7
    350a:	f7fc fd7f 	bl	c <st_dword>
    350e:	9f05      	ldr	r7, [sp, #20]
    3510:	4621      	mov	r1, r4
    3512:	42af      	cmp	r7, r5
    3514:	bf28      	it	cs
    3516:	462f      	movcs	r7, r5
    3518:	4642      	mov	r2, r8
    351a:	463b      	mov	r3, r7
    351c:	4658      	mov	r0, fp
    351e:	f7ff fffe 	bl	0 <disk_write>
    3522:	4601      	mov	r1, r0
    3524:	2800      	cmp	r0, #0
    3526:	f47f abd6 	bne.w	2cd6 <f_mkfs+0x90>
    352a:	f44f 7200 	mov.w	r2, #512	; 0x200
    352e:	4620      	mov	r0, r4
    3530:	f7fc fd83 	bl	3a <mem_set>
    3534:	1bed      	subs	r5, r5, r7
    3536:	44b8      	add	r8, r7
    3538:	d1e9      	bne.n	350e <f_mkfs+0x8c8>
    353a:	9b03      	ldr	r3, [sp, #12]
    353c:	2e03      	cmp	r6, #3
    353e:	bf18      	it	ne
    3540:	469a      	movne	sl, r3
    3542:	9d05      	ldr	r5, [sp, #20]
    3544:	4642      	mov	r2, r8
    3546:	4555      	cmp	r5, sl
    3548:	bf28      	it	cs
    354a:	4655      	movcs	r5, sl
    354c:	4621      	mov	r1, r4
    354e:	462b      	mov	r3, r5
    3550:	4658      	mov	r0, fp
    3552:	f7ff fffe 	bl	0 <disk_write>
    3556:	2800      	cmp	r0, #0
    3558:	f47f abbd 	bne.w	2cd6 <f_mkfs+0x90>
    355c:	ebba 0a05 	subs.w	sl, sl, r5
    3560:	44a8      	add	r8, r5
    3562:	d1ee      	bne.n	3542 <f_mkfs+0x8fc>
    3564:	2e03      	cmp	r6, #3
    3566:	d172      	bne.n	364e <f_mkfs+0xa08>
    3568:	250c      	movs	r5, #12
    356a:	e6aa      	b.n	32c2 <f_mkfs+0x67c>
    356c:	f104 0020 	add.w	r0, r4, #32
    3570:	f7fc fd4c 	bl	c <st_dword>
    3574:	e76c      	b.n	3450 <f_mkfs+0x80a>
    3576:	f7ff fffe 	bl	0 <get_fattime>
    357a:	4601      	mov	r1, r0
    357c:	f104 0027 	add.w	r0, r4, #39	; 0x27
    3580:	f7fc fd44 	bl	c <st_dword>
    3584:	f3c5 2307 	ubfx	r3, r5, #8, #8
    3588:	75e3      	strb	r3, [r4, #23]
    358a:	2380      	movs	r3, #128	; 0x80
    358c:	f884 3024 	strb.w	r3, [r4, #36]	; 0x24
    3590:	2329      	movs	r3, #41	; 0x29
    3592:	2213      	movs	r2, #19
    3594:	495b      	ldr	r1, [pc, #364]	; (3704 <f_mkfs+0xabe>)
    3596:	75a5      	strb	r5, [r4, #22]
    3598:	f884 3026 	strb.w	r3, [r4, #38]	; 0x26
    359c:	f104 002b 	add.w	r0, r4, #43	; 0x2b
    35a0:	e792      	b.n	34c8 <f_mkfs+0x882>
    35a2:	9a01      	ldr	r2, [sp, #4]
    35a4:	2301      	movs	r3, #1
    35a6:	4621      	mov	r1, r4
    35a8:	3206      	adds	r2, #6
    35aa:	4658      	mov	r0, fp
    35ac:	f7ff fffe 	bl	0 <disk_write>
    35b0:	2352      	movs	r3, #82	; 0x52
    35b2:	f44f 7200 	mov.w	r2, #512	; 0x200
    35b6:	4649      	mov	r1, r9
    35b8:	4620      	mov	r0, r4
    35ba:	f7fc fd3e 	bl	3a <mem_set>
    35be:	2241      	movs	r2, #65	; 0x41
    35c0:	2172      	movs	r1, #114	; 0x72
    35c2:	7023      	strb	r3, [r4, #0]
    35c4:	7063      	strb	r3, [r4, #1]
    35c6:	2361      	movs	r3, #97	; 0x61
    35c8:	70e2      	strb	r2, [r4, #3]
    35ca:	70a3      	strb	r3, [r4, #2]
    35cc:	f884 11e4 	strb.w	r1, [r4, #484]	; 0x1e4
    35d0:	f884 11e5 	strb.w	r1, [r4, #485]	; 0x1e5
    35d4:	f884 21e6 	strb.w	r2, [r4, #486]	; 0x1e6
    35d8:	f884 31e7 	strb.w	r3, [r4, #487]	; 0x1e7
    35dc:	1e79      	subs	r1, r7, #1
    35de:	f504 70f4 	add.w	r0, r4, #488	; 0x1e8
    35e2:	f7fc fd13 	bl	c <st_dword>
    35e6:	2302      	movs	r3, #2
    35e8:	f884 31ec 	strb.w	r3, [r4, #492]	; 0x1ec
    35ec:	f04f 0355 	mov.w	r3, #85	; 0x55
    35f0:	f884 31fe 	strb.w	r3, [r4, #510]	; 0x1fe
    35f4:	f06f 0355 	mvn.w	r3, #85	; 0x55
    35f8:	9a01      	ldr	r2, [sp, #4]
    35fa:	4621      	mov	r1, r4
    35fc:	f884 31ff 	strb.w	r3, [r4, #511]	; 0x1ff
    3600:	3207      	adds	r2, #7
    3602:	2301      	movs	r3, #1
    3604:	4658      	mov	r0, fp
    3606:	f884 91ed 	strb.w	r9, [r4, #493]	; 0x1ed
    360a:	f884 91ee 	strb.w	r9, [r4, #494]	; 0x1ee
    360e:	f884 91ef 	strb.w	r9, [r4, #495]	; 0x1ef
    3612:	f7ff fffe 	bl	0 <disk_write>
    3616:	2301      	movs	r3, #1
    3618:	9a01      	ldr	r2, [sp, #4]
    361a:	4621      	mov	r1, r4
    361c:	441a      	add	r2, r3
    361e:	4658      	mov	r0, fp
    3620:	f7ff fffe 	bl	0 <disk_write>
    3624:	23f8      	movs	r3, #248	; 0xf8
    3626:	4649      	mov	r1, r9
    3628:	4620      	mov	r0, r4
    362a:	9a02      	ldr	r2, [sp, #8]
    362c:	f7fc fd05 	bl	3a <mem_set>
    3630:	7023      	strb	r3, [r4, #0]
    3632:	23ff      	movs	r3, #255	; 0xff
    3634:	7063      	strb	r3, [r4, #1]
    3636:	70a3      	strb	r3, [r4, #2]
    3638:	70e3      	strb	r3, [r4, #3]
    363a:	7123      	strb	r3, [r4, #4]
    363c:	7163      	strb	r3, [r4, #5]
    363e:	71a3      	strb	r3, [r4, #6]
    3640:	71e3      	strb	r3, [r4, #7]
    3642:	7223      	strb	r3, [r4, #8]
    3644:	7263      	strb	r3, [r4, #9]
    3646:	72a3      	strb	r3, [r4, #10]
    3648:	230f      	movs	r3, #15
    364a:	72e3      	strb	r3, [r4, #11]
    364c:	e75f      	b.n	350e <f_mkfs+0x8c8>
    364e:	9b12      	ldr	r3, [sp, #72]	; 0x48
    3650:	f5b3 3f80 	cmp.w	r3, #65536	; 0x10000
    3654:	d204      	bcs.n	3660 <f_mkfs+0xa1a>
    3656:	2e02      	cmp	r6, #2
    3658:	bf14      	ite	ne
    365a:	2501      	movne	r5, #1
    365c:	2504      	moveq	r5, #4
    365e:	e630      	b.n	32c2 <f_mkfs+0x67c>
    3660:	2506      	movs	r5, #6
    3662:	e62e      	b.n	32c2 <f_mkfs+0x67c>
    3664:	2355      	movs	r3, #85	; 0x55
    3666:	f44f 7200 	mov.w	r2, #512	; 0x200
    366a:	4620      	mov	r0, r4
    366c:	9904      	ldr	r1, [sp, #16]
    366e:	f7fc fce4 	bl	3a <mem_set>
    3672:	f884 31fe 	strb.w	r3, [r4, #510]	; 0x1fe
    3676:	23aa      	movs	r3, #170	; 0xaa
    3678:	f884 31ff 	strb.w	r3, [r4, #511]	; 0x1ff
    367c:	9b04      	ldr	r3, [sp, #16]
    367e:	f884 51c2 	strb.w	r5, [r4, #450]	; 0x1c2
    3682:	f884 31be 	strb.w	r3, [r4, #446]	; 0x1be
    3686:	9d12      	ldr	r5, [sp, #72]	; 0x48
    3688:	f884 31c1 	strb.w	r3, [r4, #449]	; 0x1c1
    368c:	9b01      	ldr	r3, [sp, #4]
    368e:	2601      	movs	r6, #1
    3690:	18ea      	adds	r2, r5, r3
    3692:	f643 63c1 	movw	r3, #16065	; 0x3ec1
    3696:	fbb2 f2f3 	udiv	r2, r2, r3
    369a:	23fe      	movs	r3, #254	; 0xfe
    369c:	f884 31c3 	strb.w	r3, [r4, #451]	; 0x1c3
    36a0:	0893      	lsrs	r3, r2, #2
    36a2:	f043 033f 	orr.w	r3, r3, #63	; 0x3f
    36a6:	f884 31c4 	strb.w	r3, [r4, #452]	; 0x1c4
    36aa:	9901      	ldr	r1, [sp, #4]
    36ac:	f884 21c5 	strb.w	r2, [r4, #453]	; 0x1c5
    36b0:	f504 70e3 	add.w	r0, r4, #454	; 0x1c6
    36b4:	f884 61bf 	strb.w	r6, [r4, #447]	; 0x1bf
    36b8:	f884 61c0 	strb.w	r6, [r4, #448]	; 0x1c0
    36bc:	f7fc fca6 	bl	c <st_dword>
    36c0:	4629      	mov	r1, r5
    36c2:	f504 70e5 	add.w	r0, r4, #458	; 0x1ca
    36c6:	f7fc fca1 	bl	c <st_dword>
    36ca:	4633      	mov	r3, r6
    36cc:	4621      	mov	r1, r4
    36ce:	4658      	mov	r0, fp
    36d0:	9a04      	ldr	r2, [sp, #16]
    36d2:	f7ff fffe 	bl	0 <disk_write>
    36d6:	2800      	cmp	r0, #0
    36d8:	f43f adf7 	beq.w	32ca <f_mkfs+0x684>
    36dc:	f7ff bafb 	b.w	2cd6 <f_mkfs+0x90>
    36e0:	200b      	movs	r0, #11
    36e2:	f7ff bae5 	b.w	2cb0 <f_mkfs+0x6a>
    36e6:	2003      	movs	r0, #3
    36e8:	f7ff bae2 	b.w	2cb0 <f_mkfs+0x6a>
    36ec:	200a      	movs	r0, #10
    36ee:	f7ff badf 	b.w	2cb0 <f_mkfs+0x6a>
    36f2:	2011      	movs	r0, #17
    36f4:	f7ff badc 	b.w	2cb0 <f_mkfs+0x6a>
    36f8:	00000026 	.word	0x00000026
    36fc:	00000032 	.word	0x00000032
    3700:	00fffff8 	.word	0x00fffff8
    3704:	00000046 	.word	0x00000046

ff_gen_drv.o:     file format elf32-littlearm


Disassembly of section .text:

00000000 <FATFS_LinkDriverEx>:
   0:	b530      	push	{r4, r5, lr}
   2:	4b0f      	ldr	r3, [pc, #60]	; (40 <FATFS_LinkDriverEx+0x40>)
   4:	7b9c      	ldrb	r4, [r3, #14]
   6:	2c01      	cmp	r4, #1
   8:	d817      	bhi.n	3a <FATFS_LinkDriverEx+0x3a>
   a:	2400      	movs	r4, #0
   c:	7b9d      	ldrb	r5, [r3, #14]
   e:	b2ed      	uxtb	r5, r5
  10:	555c      	strb	r4, [r3, r5]
  12:	7b9d      	ldrb	r5, [r3, #14]
  14:	eb03 0585 	add.w	r5, r3, r5, lsl #2
  18:	6068      	str	r0, [r5, #4]
  1a:	7b98      	ldrb	r0, [r3, #14]
  1c:	4418      	add	r0, r3
  1e:	7302      	strb	r2, [r0, #12]
  20:	7b9a      	ldrb	r2, [r3, #14]
  22:	1c50      	adds	r0, r2, #1
  24:	b2c0      	uxtb	r0, r0
  26:	7398      	strb	r0, [r3, #14]
  28:	233a      	movs	r3, #58	; 0x3a
  2a:	704b      	strb	r3, [r1, #1]
  2c:	232f      	movs	r3, #47	; 0x2f
  2e:	4620      	mov	r0, r4
  30:	3230      	adds	r2, #48	; 0x30
  32:	700a      	strb	r2, [r1, #0]
  34:	708b      	strb	r3, [r1, #2]
  36:	70cc      	strb	r4, [r1, #3]
  38:	bd30      	pop	{r4, r5, pc}
  3a:	2001      	movs	r0, #1
  3c:	e7fc      	b.n	38 <FATFS_LinkDriverEx+0x38>
  3e:	bf00      	nop
  40:	00000000 	.word	0x00000000

00000044 <FATFS_LinkDriver>:
  44:	2200      	movs	r2, #0
  46:	f7ff bffe 	b.w	0 <FATFS_LinkDriverEx>

0000004a <FATFS_UnLinkDriverEx>:
  4a:	4a0a      	ldr	r2, [pc, #40]	; (74 <FATFS_UnLinkDriverEx+0x2a>)
  4c:	7b93      	ldrb	r3, [r2, #14]
  4e:	b17b      	cbz	r3, 70 <FATFS_UnLinkDriverEx+0x26>
  50:	7803      	ldrb	r3, [r0, #0]
  52:	3b30      	subs	r3, #48	; 0x30
  54:	b2db      	uxtb	r3, r3
  56:	eb02 0183 	add.w	r1, r2, r3, lsl #2
  5a:	6848      	ldr	r0, [r1, #4]
  5c:	b140      	cbz	r0, 70 <FATFS_UnLinkDriverEx+0x26>
  5e:	2000      	movs	r0, #0
  60:	4413      	add	r3, r2
  62:	7318      	strb	r0, [r3, #12]
  64:	7b93      	ldrb	r3, [r2, #14]
  66:	6048      	str	r0, [r1, #4]
  68:	3b01      	subs	r3, #1
  6a:	b2db      	uxtb	r3, r3
  6c:	7393      	strb	r3, [r2, #14]
  6e:	4770      	bx	lr
  70:	2001      	movs	r0, #1
  72:	4770      	bx	lr
  74:	00000000 	.word	0x00000000

00000078 <FATFS_UnLinkDriver>:
  78:	2100      	movs	r1, #0
  7a:	f7ff bffe 	b.w	4a <FATFS_UnLinkDriverEx>

0000007e <FATFS_GetAttachedDriversNbr>:
  7e:	4b01      	ldr	r3, [pc, #4]	; (84 <FATFS_GetAttachedDriversNbr+0x6>)
  80:	7b98      	ldrb	r0, [r3, #14]
  82:	4770      	bx	lr
  84:	00000000 	.word	0x00000000

ffsystem.o:     file format elf32-littlearm


ffunicode.o:     file format elf32-littlearm


Disassembly of section .text:

00000000 <ff_uni2oem>:
   0:	287f      	cmp	r0, #127	; 0x7f
   2:	b570      	push	{r4, r5, r6, lr}
   4:	d801      	bhi.n	a <ff_uni2oem+0xa>
   6:	b280      	uxth	r0, r0
   8:	bd70      	pop	{r4, r5, r6, pc}
   a:	f5b0 3f80 	cmp.w	r0, #65536	; 0x10000
   e:	d219      	bcs.n	44 <ff_uni2oem+0x44>
  10:	f5b1 7f69 	cmp.w	r1, #932	; 0x3a4
  14:	d116      	bne.n	44 <ff_uni2oem+0x44>
  16:	b283      	uxth	r3, r0
  18:	f641 44dd 	movw	r4, #7389	; 0x1cdd
  1c:	2100      	movs	r1, #0
  1e:	2010      	movs	r0, #16
  20:	4d09      	ldr	r5, [pc, #36]	; (48 <ff_uni2oem+0x48>)
  22:	1a62      	subs	r2, r4, r1
  24:	eb01 0252 	add.w	r2, r1, r2, lsr #1
  28:	f835 6022 	ldrh.w	r6, [r5, r2, lsl #2]
  2c:	429e      	cmp	r6, r3
  2e:	d005      	beq.n	3c <ff_uni2oem+0x3c>
  30:	bf34      	ite	cc
  32:	4611      	movcc	r1, r2
  34:	4614      	movcs	r4, r2
  36:	3801      	subs	r0, #1
  38:	d1f3      	bne.n	22 <ff_uni2oem+0x22>
  3a:	e7e5      	b.n	8 <ff_uni2oem+0x8>
  3c:	4b03      	ldr	r3, [pc, #12]	; (4c <ff_uni2oem+0x4c>)
  3e:	f833 0022 	ldrh.w	r0, [r3, r2, lsl #2]
  42:	e7e1      	b.n	8 <ff_uni2oem+0x8>
  44:	2000      	movs	r0, #0
  46:	e7df      	b.n	8 <ff_uni2oem+0x8>
  48:	00007626 	.word	0x00007626
  4c:	00007628 	.word	0x00007628

00000050 <ff_oem2uni>:
  50:	287f      	cmp	r0, #127	; 0x7f
  52:	b570      	push	{r4, r5, r6, lr}
  54:	d918      	bls.n	88 <ff_oem2uni+0x38>
  56:	f5b1 7f69 	cmp.w	r1, #932	; 0x3a4
  5a:	d110      	bne.n	7e <ff_oem2uni+0x2e>
  5c:	f641 44dd 	movw	r4, #7389	; 0x1cdd
  60:	2100      	movs	r1, #0
  62:	2210      	movs	r2, #16
  64:	4d09      	ldr	r5, [pc, #36]	; (8c <ff_oem2uni+0x3c>)
  66:	1a63      	subs	r3, r4, r1
  68:	eb01 0353 	add.w	r3, r1, r3, lsr #1
  6c:	f835 6023 	ldrh.w	r6, [r5, r3, lsl #2]
  70:	4286      	cmp	r6, r0
  72:	d006      	beq.n	82 <ff_oem2uni+0x32>
  74:	bf34      	ite	cc
  76:	4619      	movcc	r1, r3
  78:	461c      	movcs	r4, r3
  7a:	3a01      	subs	r2, #1
  7c:	d1f3      	bne.n	66 <ff_oem2uni+0x16>
  7e:	2000      	movs	r0, #0
  80:	e002      	b.n	88 <ff_oem2uni+0x38>
  82:	4a03      	ldr	r2, [pc, #12]	; (90 <ff_oem2uni+0x40>)
  84:	f832 0023 	ldrh.w	r0, [r2, r3, lsl #2]
  88:	bd70      	pop	{r4, r5, r6, pc}
  8a:	bf00      	nop
  8c:	000002ae 	.word	0x000002ae
  90:	000002b0 	.word	0x000002b0

00000094 <ff_wtoupper>:
  94:	f5b0 3f80 	cmp.w	r0, #65536	; 0x10000
  98:	b5f0      	push	{r4, r5, r6, r7, lr}
  9a:	d222      	bcs.n	e2 <ff_wtoupper+0x4e>
  9c:	491f      	ldr	r1, [pc, #124]	; (11c <ff_wtoupper+0x88>)
  9e:	b283      	uxth	r3, r0
  a0:	f1a1 02bc 	sub.w	r2, r1, #188	; 0xbc
  a4:	f5b0 5f80 	cmp.w	r0, #4096	; 0x1000
  a8:	bf38      	it	cc
  aa:	460a      	movcc	r2, r1
  ac:	1d14      	adds	r4, r2, #4
  ae:	f834 2c04 	ldrh.w	r2, [r4, #-4]
  b2:	4621      	mov	r1, r4
  b4:	b1a2      	cbz	r2, e0 <ff_wtoupper+0x4c>
  b6:	4293      	cmp	r3, r2
  b8:	d312      	bcc.n	e0 <ff_wtoupper+0x4c>
  ba:	f834 5c02 	ldrh.w	r5, [r4, #-2]
  be:	0a2e      	lsrs	r6, r5, #8
  c0:	b2ed      	uxtb	r5, r5
  c2:	18af      	adds	r7, r5, r2
  c4:	42b8      	cmp	r0, r7
  c6:	da23      	bge.n	110 <ff_wtoupper+0x7c>
  c8:	2e08      	cmp	r6, #8
  ca:	d809      	bhi.n	e0 <ff_wtoupper+0x4c>
  cc:	e8df f006 	tbb	[pc, r6]
  d0:	13100a05 	.word	0x13100a05
  d4:	1b191715 	.word	0x1b191715
  d8:	1d          	.byte	0x1d
  d9:	00          	.byte	0x00
  da:	1a80      	subs	r0, r0, r2
  dc:	f834 3010 	ldrh.w	r3, [r4, r0, lsl #1]
  e0:	4618      	mov	r0, r3
  e2:	bdf0      	pop	{r4, r5, r6, r7, pc}
  e4:	1a9a      	subs	r2, r3, r2
  e6:	f002 0201 	and.w	r2, r2, #1
  ea:	1a9a      	subs	r2, r3, r2
  ec:	b293      	uxth	r3, r2
  ee:	e7f7      	b.n	e0 <ff_wtoupper+0x4c>
  f0:	3b10      	subs	r3, #16
  f2:	b29b      	uxth	r3, r3
  f4:	e7f4      	b.n	e0 <ff_wtoupper+0x4c>
  f6:	3b20      	subs	r3, #32
  f8:	e7fb      	b.n	f2 <ff_wtoupper+0x5e>
  fa:	3b30      	subs	r3, #48	; 0x30
  fc:	e7f9      	b.n	f2 <ff_wtoupper+0x5e>
  fe:	3b1a      	subs	r3, #26
 100:	e7f7      	b.n	f2 <ff_wtoupper+0x5e>
 102:	3308      	adds	r3, #8
 104:	e7f5      	b.n	f2 <ff_wtoupper+0x5e>
 106:	3b50      	subs	r3, #80	; 0x50
 108:	e7f3      	b.n	f2 <ff_wtoupper+0x5e>
 10a:	f5a3 53e3 	sub.w	r3, r3, #7264	; 0x1c60
 10e:	e7f0      	b.n	f2 <ff_wtoupper+0x5e>
 110:	3404      	adds	r4, #4
 112:	2e00      	cmp	r6, #0
 114:	d1cb      	bne.n	ae <ff_wtoupper+0x1a>
 116:	eb01 0245 	add.w	r2, r1, r5, lsl #1
 11a:	e7c7      	b.n	ac <ff_wtoupper+0x18>
 11c:	000000bc 	.word	0x000000bc
