Archive member included to satisfy reference by file (symbol)

../lib-GD32F207C_EVAL/lib_gd32/libGD32F207C_EVAL.a(gd32f207c_eval.o)
                              build_gd32/Raw_webserver/src/main.o (gd_eval_led_init)
../lib-gd32f2xx/lib_gd32/libgd32f2xx.a(system_gd32f20x.o)
                              build_gd32/startup_gd32f20x_cl.o (SystemInit)
../lib-gd32f2xx/lib_gd32/libgd32f2xx.a(gd32f20x_adc.o)
                              build_gd32/Raw_webserver/src/main.o (adc_mode_config)
../lib-gd32f2xx/lib_gd32/libgd32f2xx.a(gd32f20x_enet.o)
                              build_gd32/Raw_webserver/src/gd32f20x_enet_eval.o (enet_software_reset)
../lib-gd32f2xx/lib_gd32/libgd32f2xx.a(gd32f20x_exti.o)
                              ../lib-GD32F207C_EVAL/lib_gd32/libGD32F207C_EVAL.a(gd32f207c_eval.o) (exti_init)
../lib-gd32f2xx/lib_gd32/libgd32f2xx.a(gd32f20x_gpio.o)
                              build_gd32/Raw_webserver/src/gd32f20x_enet_eval.o (gpio_init)
../lib-gd32f2xx/lib_gd32/libgd32f2xx.a(gd32f20x_misc.o)
                              ../lib-GD32F207C_EVAL/lib_gd32/libGD32F207C_EVAL.a(gd32f207c_eval.o) (nvic_irq_enable)
../lib-gd32f2xx/lib_gd32/libgd32f2xx.a(gd32f20x_rcu.o)
                              build_gd32/Raw_webserver/src/gd32f20x_enet_eval.o (rcu_periph_clock_enable)
../lib-gd32f2xx/lib_gd32/libgd32f2xx.a(gd32f20x_usart.o)
                              ../lib-GD32F207C_EVAL/lib_gd32/libGD32F207C_EVAL.a(gd32f207c_eval.o) (usart_deinit)
../lib-c/lib_gd32/libc.a(printf.o)
                              build_gd32/Raw_webserver/src/netconf.o (printf)
/usr/lib/gcc/arm-none-eabi/12.2.1/thumb/v7-m/nofp/libgcc.a(_arm_mulsf3.o)
                              ../lib-c/lib_gd32/libc.a(printf.o) (__aeabi_fmul)
/usr/lib/gcc/arm-none-eabi/12.2.1/thumb/v7-m/nofp/libgcc.a(_arm_truncdfsf2.o)
                              ../lib-c/lib_gd32/libc.a(printf.o) (__aeabi_d2f)
/usr/lib/gcc/arm-none-eabi/12.2.1/thumb/v7-m/nofp/libgcc.a(_arm_addsubsf3.o)
                              ../lib-c/lib_gd32/libc.a(printf.o) (__aeabi_fsub)
/usr/lib/gcc/arm-none-eabi/12.2.1/thumb/v7-m/nofp/libgcc.a(_arm_cmpsf2.o)
                              ../lib-c/lib_gd32/libc.a(printf.o) (__aeabi_fcmplt)
/usr/lib/gcc/arm-none-eabi/12.2.1/thumb/v7-m/nofp/libgcc.a(_arm_fixsfsi.o)
                              ../lib-c/lib_gd32/libc.a(printf.o) (__aeabi_f2iz)
/usr/lib/gcc/arm-none-eabi/12.2.1/thumb/v7-m/nofp/libgcc.a(_aeabi_ldivmod.o)
                              ../lib-gd32f2xx/lib_gd32/libgd32f2xx.a(gd32f20x_enet.o) (__aeabi_ldivmod)
/usr/lib/gcc/arm-none-eabi/12.2.1/thumb/v7-m/nofp/libgcc.a(_aeabi_uldivmod.o)
                              ../lib-gd32f2xx/lib_gd32/libgd32f2xx.a(gd32f20x_enet.o) (__aeabi_uldivmod)
/usr/lib/gcc/arm-none-eabi/12.2.1/thumb/v7-m/nofp/libgcc.a(_udivmoddi4.o)
                              /usr/lib/gcc/arm-none-eabi/12.2.1/thumb/v7-m/nofp/libgcc.a(_aeabi_ldivmod.o) (__udivmoddi4)
/usr/lib/gcc/arm-none-eabi/12.2.1/thumb/v7-m/nofp/libgcc.a(_dvmd_tls.o)
                              /usr/lib/gcc/arm-none-eabi/12.2.1/thumb/v7-m/nofp/libgcc.a(_aeabi_ldivmod.o) (__aeabi_ldiv0)

Discarded input sections

 .comment       0x0000000000000000       0x27 build_gd32/Raw_webserver/src/fs.o
 .comment       0x0000000000000000       0x27 build_gd32/Raw_webserver/src/gd32f20x_enet_eval.o
 .comment       0x0000000000000000       0x27 build_gd32/Raw_webserver/src/gd32f20x_it.o
 .comment       0x0000000000000000       0x27 build_gd32/Raw_webserver/src/http_adc_led.o
 .comment       0x0000000000000000       0x27 build_gd32/Raw_webserver/src/httpd.o
 .comment       0x0000000000000000       0x27 build_gd32/Raw_webserver/src/main.o
 .comment       0x0000000000000000       0x27 build_gd32/Raw_webserver/src/netconf.o
 .comment       0x0000000000000000       0x27 build_gd32/Third_party/lwip-2.0.2/src/api/api_lib.o
 .comment       0x0000000000000000       0x27 build_gd32/Third_party/lwip-2.0.2/src/api/api_msg.o
 .comment       0x0000000000000000       0x27 build_gd32/Third_party/lwip-2.0.2/src/api/err.o
 .comment       0x0000000000000000       0x27 build_gd32/Third_party/lwip-2.0.2/src/api/netbuf.o
 .comment       0x0000000000000000       0x27 build_gd32/Third_party/lwip-2.0.2/src/api/netdb.o
 .comment       0x0000000000000000       0x27 build_gd32/Third_party/lwip-2.0.2/src/api/netifapi.o
 .comment       0x0000000000000000       0x27 build_gd32/Third_party/lwip-2.0.2/src/api/sockets.o
 .comment       0x0000000000000000       0x27 build_gd32/Third_party/lwip-2.0.2/src/api/tcpip.o
 .comment       0x0000000000000000       0x27 build_gd32/Third_party/lwip-2.0.2/src/core/def.o
 .comment       0x0000000000000000       0x27 build_gd32/Third_party/lwip-2.0.2/src/core/dns.o
 .comment       0x0000000000000000       0x27 build_gd32/Third_party/lwip-2.0.2/src/core/inet_chksum.o
 .comment       0x0000000000000000       0x27 build_gd32/Third_party/lwip-2.0.2/src/core/init.o
 .comment       0x0000000000000000       0x27 build_gd32/Third_party/lwip-2.0.2/src/core/ip.o
 .comment       0x0000000000000000       0x27 build_gd32/Third_party/lwip-2.0.2/src/core/mem.o
 .comment       0x0000000000000000       0x27 build_gd32/Third_party/lwip-2.0.2/src/core/memp.o
 .comment       0x0000000000000000       0x27 build_gd32/Third_party/lwip-2.0.2/src/core/netif.o
 .comment       0x0000000000000000       0x27 build_gd32/Third_party/lwip-2.0.2/src/core/pbuf.o
 .comment       0x0000000000000000       0x27 build_gd32/Third_party/lwip-2.0.2/src/core/raw.o
 .comment       0x0000000000000000       0x27 build_gd32/Third_party/lwip-2.0.2/src/core/stats.o
 .comment       0x0000000000000000       0x27 build_gd32/Third_party/lwip-2.0.2/src/core/sys.o
 .comment       0x0000000000000000       0x27 build_gd32/Third_party/lwip-2.0.2/src/core/tcp.o
 .comment       0x0000000000000000       0x27 build_gd32/Third_party/lwip-2.0.2/src/core/tcp_in.o
 .comment       0x0000000000000000       0x27 build_gd32/Third_party/lwip-2.0.2/src/core/tcp_out.o
 .comment       0x0000000000000000       0x27 build_gd32/Third_party/lwip-2.0.2/src/core/timeouts.o
 .comment       0x0000000000000000       0x27 build_gd32/Third_party/lwip-2.0.2/src/core/udp.o
 .comment       0x0000000000000000       0x27 build_gd32/Third_party/lwip-2.0.2/src/core/ipv4/autoip.o
 .comment       0x0000000000000000       0x27 build_gd32/Third_party/lwip-2.0.2/src/core/ipv4/dhcp.o
 .comment       0x0000000000000000       0x27 build_gd32/Third_party/lwip-2.0.2/src/core/ipv4/etharp.o
 .comment       0x0000000000000000       0x27 build_gd32/Third_party/lwip-2.0.2/src/core/ipv4/icmp.o
 .comment       0x0000000000000000       0x27 build_gd32/Third_party/lwip-2.0.2/src/core/ipv4/igmp.o
 .comment       0x0000000000000000       0x27 build_gd32/Third_party/lwip-2.0.2/src/core/ipv4/ip4_addr.o
 .comment       0x0000000000000000       0x27 build_gd32/Third_party/lwip-2.0.2/src/core/ipv4/ip4.o
 .comment       0x0000000000000000       0x27 build_gd32/Third_party/lwip-2.0.2/src/core/ipv4/ip4_frag.o
 .comment       0x0000000000000000       0x27 build_gd32/Third_party/lwip-2.0.2/src/netif/ethernet.o
 .comment       0x0000000000000000       0x27 build_gd32/Third_party/lwip-2.0.2/src/netif/ethernetif.o
 .comment       0x0000000000000000       0x27 build_gd32/Third_party/lwip-2.0.2/src/netif/lowpan6.o
 .comment       0x0000000000000000       0x27 build_gd32/Third_party/lwip-2.0.2/port/GD32F20x/Basic/ethernetif.o
 .comment       0x0000000000000000       0x27 ../lib-GD32F207C_EVAL/lib_gd32/libGD32F207C_EVAL.a(gd32f207c_eval.o)
 .comment       0x0000000000000000       0x27 ../lib-gd32f2xx/lib_gd32/libgd32f2xx.a(system_gd32f20x.o)
 .comment       0x0000000000000000       0x27 ../lib-gd32f2xx/lib_gd32/libgd32f2xx.a(gd32f20x_adc.o)
 .comment       0x0000000000000000       0x27 ../lib-gd32f2xx/lib_gd32/libgd32f2xx.a(gd32f20x_enet.o)
 .comment       0x0000000000000000       0x27 ../lib-gd32f2xx/lib_gd32/libgd32f2xx.a(gd32f20x_exti.o)
 .comment       0x0000000000000000       0x27 ../lib-gd32f2xx/lib_gd32/libgd32f2xx.a(gd32f20x_gpio.o)
 .comment       0x0000000000000000       0x27 ../lib-gd32f2xx/lib_gd32/libgd32f2xx.a(gd32f20x_misc.o)
 .comment       0x0000000000000000       0x27 ../lib-gd32f2xx/lib_gd32/libgd32f2xx.a(gd32f20x_rcu.o)
 .comment       0x0000000000000000       0x27 ../lib-gd32f2xx/lib_gd32/libgd32f2xx.a(gd32f20x_usart.o)
 .comment       0x0000000000000000       0x27 ../lib-c/lib_gd32/libc.a(printf.o)
 .debug_line    0x0000000000000000       0xbd /usr/lib/gcc/arm-none-eabi/12.2.1/thumb/v7-m/nofp/libgcc.a(_arm_mulsf3.o)
 .debug_line_str
                0x0000000000000000       0x98 /usr/lib/gcc/arm-none-eabi/12.2.1/thumb/v7-m/nofp/libgcc.a(_arm_mulsf3.o)
 .debug_info    0x0000000000000000       0x3c /usr/lib/gcc/arm-none-eabi/12.2.1/thumb/v7-m/nofp/libgcc.a(_arm_mulsf3.o)
 .debug_abbrev  0x0000000000000000       0x1f /usr/lib/gcc/arm-none-eabi/12.2.1/thumb/v7-m/nofp/libgcc.a(_arm_mulsf3.o)
 .debug_aranges
                0x0000000000000000       0x20 /usr/lib/gcc/arm-none-eabi/12.2.1/thumb/v7-m/nofp/libgcc.a(_arm_mulsf3.o)
 .debug_str     0x0000000000000000       0xba /usr/lib/gcc/arm-none-eabi/12.2.1/thumb/v7-m/nofp/libgcc.a(_arm_mulsf3.o)
 .debug_frame   0x0000000000000000       0x24 /usr/lib/gcc/arm-none-eabi/12.2.1/thumb/v7-m/nofp/libgcc.a(_arm_mulsf3.o)
 .debug_line    0x0000000000000000       0x76 /usr/lib/gcc/arm-none-eabi/12.2.1/thumb/v7-m/nofp/libgcc.a(_arm_truncdfsf2.o)
 .debug_line_str
                0x0000000000000000       0x98 /usr/lib/gcc/arm-none-eabi/12.2.1/thumb/v7-m/nofp/libgcc.a(_arm_truncdfsf2.o)
 .debug_info    0x0000000000000000       0x3c /usr/lib/gcc/arm-none-eabi/12.2.1/thumb/v7-m/nofp/libgcc.a(_arm_truncdfsf2.o)
 .debug_abbrev  0x0000000000000000       0x21 /usr/lib/gcc/arm-none-eabi/12.2.1/thumb/v7-m/nofp/libgcc.a(_arm_truncdfsf2.o)
 .debug_aranges
                0x0000000000000000       0x20 /usr/lib/gcc/arm-none-eabi/12.2.1/thumb/v7-m/nofp/libgcc.a(_arm_truncdfsf2.o)
 .debug_str     0x0000000000000000       0xbd /usr/lib/gcc/arm-none-eabi/12.2.1/thumb/v7-m/nofp/libgcc.a(_arm_truncdfsf2.o)
 .debug_frame   0x0000000000000000       0x24 /usr/lib/gcc/arm-none-eabi/12.2.1/thumb/v7-m/nofp/libgcc.a(_arm_truncdfsf2.o)
 .debug_line    0x0000000000000000      0x103 /usr/lib/gcc/arm-none-eabi/12.2.1/thumb/v7-m/nofp/libgcc.a(_arm_addsubsf3.o)
 .debug_line_str
                0x0000000000000000       0x98 /usr/lib/gcc/arm-none-eabi/12.2.1/thumb/v7-m/nofp/libgcc.a(_arm_addsubsf3.o)
 .debug_info    0x0000000000000000       0xaf /usr/lib/gcc/arm-none-eabi/12.2.1/thumb/v7-m/nofp/libgcc.a(_arm_addsubsf3.o)
 .debug_abbrev  0x0000000000000000       0x21 /usr/lib/gcc/arm-none-eabi/12.2.1/thumb/v7-m/nofp/libgcc.a(_arm_addsubsf3.o)
 .debug_aranges
                0x0000000000000000       0x20 /usr/lib/gcc/arm-none-eabi/12.2.1/thumb/v7-m/nofp/libgcc.a(_arm_addsubsf3.o)
 .debug_str     0x0000000000000000      0x144 /usr/lib/gcc/arm-none-eabi/12.2.1/thumb/v7-m/nofp/libgcc.a(_arm_addsubsf3.o)
 .debug_frame   0x0000000000000000       0x4c /usr/lib/gcc/arm-none-eabi/12.2.1/thumb/v7-m/nofp/libgcc.a(_arm_addsubsf3.o)
 .debug_line    0x0000000000000000       0x9a /usr/lib/gcc/arm-none-eabi/12.2.1/thumb/v7-m/nofp/libgcc.a(_arm_cmpsf2.o)
 .debug_line_str
                0x0000000000000000       0x98 /usr/lib/gcc/arm-none-eabi/12.2.1/thumb/v7-m/nofp/libgcc.a(_arm_cmpsf2.o)
 .debug_info    0x0000000000000000       0xbc /usr/lib/gcc/arm-none-eabi/12.2.1/thumb/v7-m/nofp/libgcc.a(_arm_cmpsf2.o)
 .debug_abbrev  0x0000000000000000       0x21 /usr/lib/gcc/arm-none-eabi/12.2.1/thumb/v7-m/nofp/libgcc.a(_arm_cmpsf2.o)
 .debug_aranges
                0x0000000000000000       0x20 /usr/lib/gcc/arm-none-eabi/12.2.1/thumb/v7-m/nofp/libgcc.a(_arm_cmpsf2.o)
 .debug_str     0x0000000000000000      0x159 /usr/lib/gcc/arm-none-eabi/12.2.1/thumb/v7-m/nofp/libgcc.a(_arm_cmpsf2.o)
 .debug_frame   0x0000000000000000       0xc8 /usr/lib/gcc/arm-none-eabi/12.2.1/thumb/v7-m/nofp/libgcc.a(_arm_cmpsf2.o)
 .debug_line    0x0000000000000000       0x62 /usr/lib/gcc/arm-none-eabi/12.2.1/thumb/v7-m/nofp/libgcc.a(_arm_fixsfsi.o)
 .debug_line_str
                0x0000000000000000       0x98 /usr/lib/gcc/arm-none-eabi/12.2.1/thumb/v7-m/nofp/libgcc.a(_arm_fixsfsi.o)
 .debug_info    0x0000000000000000       0x39 /usr/lib/gcc/arm-none-eabi/12.2.1/thumb/v7-m/nofp/libgcc.a(_arm_fixsfsi.o)
 .debug_abbrev  0x0000000000000000       0x21 /usr/lib/gcc/arm-none-eabi/12.2.1/thumb/v7-m/nofp/libgcc.a(_arm_fixsfsi.o)
 .debug_aranges
                0x0000000000000000       0x20 /usr/lib/gcc/arm-none-eabi/12.2.1/thumb/v7-m/nofp/libgcc.a(_arm_fixsfsi.o)
 .debug_str     0x0000000000000000       0xbb /usr/lib/gcc/arm-none-eabi/12.2.1/thumb/v7-m/nofp/libgcc.a(_arm_fixsfsi.o)
 .debug_frame   0x0000000000000000       0x24 /usr/lib/gcc/arm-none-eabi/12.2.1/thumb/v7-m/nofp/libgcc.a(_arm_fixsfsi.o)
 .debug_line    0x0000000000000000       0x6c /usr/lib/gcc/arm-none-eabi/12.2.1/thumb/v7-m/nofp/libgcc.a(_aeabi_ldivmod.o)
 .debug_line_str
                0x0000000000000000       0x93 /usr/lib/gcc/arm-none-eabi/12.2.1/thumb/v7-m/nofp/libgcc.a(_aeabi_ldivmod.o)
 .debug_info    0x0000000000000000       0x25 /usr/lib/gcc/arm-none-eabi/12.2.1/thumb/v7-m/nofp/libgcc.a(_aeabi_ldivmod.o)
 .debug_abbrev  0x0000000000000000       0x14 /usr/lib/gcc/arm-none-eabi/12.2.1/thumb/v7-m/nofp/libgcc.a(_aeabi_ldivmod.o)
 .debug_aranges
                0x0000000000000000       0x20 /usr/lib/gcc/arm-none-eabi/12.2.1/thumb/v7-m/nofp/libgcc.a(_aeabi_ldivmod.o)
 .debug_str     0x0000000000000000       0x9f /usr/lib/gcc/arm-none-eabi/12.2.1/thumb/v7-m/nofp/libgcc.a(_aeabi_ldivmod.o)
 .debug_frame   0x0000000000000000       0x44 /usr/lib/gcc/arm-none-eabi/12.2.1/thumb/v7-m/nofp/libgcc.a(_aeabi_ldivmod.o)
 .debug_line    0x0000000000000000       0x4e /usr/lib/gcc/arm-none-eabi/12.2.1/thumb/v7-m/nofp/libgcc.a(_aeabi_uldivmod.o)
 .debug_line_str
                0x0000000000000000       0x93 /usr/lib/gcc/arm-none-eabi/12.2.1/thumb/v7-m/nofp/libgcc.a(_aeabi_uldivmod.o)
 .debug_info    0x0000000000000000       0x24 /usr/lib/gcc/arm-none-eabi/12.2.1/thumb/v7-m/nofp/libgcc.a(_aeabi_uldivmod.o)
 .debug_abbrev  0x0000000000000000       0x14 /usr/lib/gcc/arm-none-eabi/12.2.1/thumb/v7-m/nofp/libgcc.a(_aeabi_uldivmod.o)
 .debug_aranges
                0x0000000000000000       0x20 /usr/lib/gcc/arm-none-eabi/12.2.1/thumb/v7-m/nofp/libgcc.a(_aeabi_uldivmod.o)
 .debug_str     0x0000000000000000       0x9f /usr/lib/gcc/arm-none-eabi/12.2.1/thumb/v7-m/nofp/libgcc.a(_aeabi_uldivmod.o)
 .debug_frame   0x0000000000000000       0x2c /usr/lib/gcc/arm-none-eabi/12.2.1/thumb/v7-m/nofp/libgcc.a(_aeabi_uldivmod.o)
 .debug_info    0x0000000000000000      0x6ef /usr/lib/gcc/arm-none-eabi/12.2.1/thumb/v7-m/nofp/libgcc.a(_udivmoddi4.o)
 .debug_abbrev  0x0000000000000000      0x16a /usr/lib/gcc/arm-none-eabi/12.2.1/thumb/v7-m/nofp/libgcc.a(_udivmoddi4.o)
 .debug_loclists
                0x0000000000000000      0x993 /usr/lib/gcc/arm-none-eabi/12.2.1/thumb/v7-m/nofp/libgcc.a(_udivmoddi4.o)
 .debug_aranges
                0x0000000000000000       0x20 /usr/lib/gcc/arm-none-eabi/12.2.1/thumb/v7-m/nofp/libgcc.a(_udivmoddi4.o)
 .debug_rnglists
                0x0000000000000000       0x9d /usr/lib/gcc/arm-none-eabi/12.2.1/thumb/v7-m/nofp/libgcc.a(_udivmoddi4.o)
 .debug_line    0x0000000000000000      0x575 /usr/lib/gcc/arm-none-eabi/12.2.1/thumb/v7-m/nofp/libgcc.a(_udivmoddi4.o)
 .debug_str     0x0000000000000000      0x66e /usr/lib/gcc/arm-none-eabi/12.2.1/thumb/v7-m/nofp/libgcc.a(_udivmoddi4.o)
 .comment       0x0000000000000000       0x27 /usr/lib/gcc/arm-none-eabi/12.2.1/thumb/v7-m/nofp/libgcc.a(_udivmoddi4.o)
 .debug_frame   0x0000000000000000       0x34 /usr/lib/gcc/arm-none-eabi/12.2.1/thumb/v7-m/nofp/libgcc.a(_udivmoddi4.o)
 .debug_line    0x0000000000000000       0x4a /usr/lib/gcc/arm-none-eabi/12.2.1/thumb/v7-m/nofp/libgcc.a(_dvmd_tls.o)
 .debug_line_str
                0x0000000000000000       0x97 /usr/lib/gcc/arm-none-eabi/12.2.1/thumb/v7-m/nofp/libgcc.a(_dvmd_tls.o)
 .debug_info    0x0000000000000000       0x39 /usr/lib/gcc/arm-none-eabi/12.2.1/thumb/v7-m/nofp/libgcc.a(_dvmd_tls.o)
 .debug_abbrev  0x0000000000000000       0x1f /usr/lib/gcc/arm-none-eabi/12.2.1/thumb/v7-m/nofp/libgcc.a(_dvmd_tls.o)
 .debug_aranges
                0x0000000000000000       0x20 /usr/lib/gcc/arm-none-eabi/12.2.1/thumb/v7-m/nofp/libgcc.a(_dvmd_tls.o)
 .debug_str     0x0000000000000000       0xbf /usr/lib/gcc/arm-none-eabi/12.2.1/thumb/v7-m/nofp/libgcc.a(_dvmd_tls.o)

Memory Configuration

Name             Origin             Length             Attributes
FLASH            0x0000000008000000 0x0000000000080000 xr
RAM              0x0000000020000000 0x0000000000020000 xrw
*default*        0x0000000000000000 0xffffffffffffffff

Linker script and memory map

LOAD build_gd32/startup_gd32f20x_cl.o
LOAD build_gd32/Raw_webserver/src/fs.o
LOAD build_gd32/Raw_webserver/src/gd32f20x_enet_eval.o
LOAD build_gd32/Raw_webserver/src/gd32f20x_it.o
LOAD build_gd32/Raw_webserver/src/http_adc_led.o
LOAD build_gd32/Raw_webserver/src/httpd.o
LOAD build_gd32/Raw_webserver/src/main.o
LOAD build_gd32/Raw_webserver/src/netconf.o
LOAD build_gd32/Third_party/lwip-2.0.2/src/api/api_lib.o
LOAD build_gd32/Third_party/lwip-2.0.2/src/api/api_msg.o
LOAD build_gd32/Third_party/lwip-2.0.2/src/api/err.o
LOAD build_gd32/Third_party/lwip-2.0.2/src/api/netbuf.o
LOAD build_gd32/Third_party/lwip-2.0.2/src/api/netdb.o
LOAD build_gd32/Third_party/lwip-2.0.2/src/api/netifapi.o
LOAD build_gd32/Third_party/lwip-2.0.2/src/api/sockets.o
LOAD build_gd32/Third_party/lwip-2.0.2/src/api/tcpip.o
LOAD build_gd32/Third_party/lwip-2.0.2/src/core/def.o
LOAD build_gd32/Third_party/lwip-2.0.2/src/core/dns.o
LOAD build_gd32/Third_party/lwip-2.0.2/src/core/inet_chksum.o
LOAD build_gd32/Third_party/lwip-2.0.2/src/core/init.o
LOAD build_gd32/Third_party/lwip-2.0.2/src/core/ip.o
LOAD build_gd32/Third_party/lwip-2.0.2/src/core/mem.o
LOAD build_gd32/Third_party/lwip-2.0.2/src/core/memp.o
LOAD build_gd32/Third_party/lwip-2.0.2/src/core/netif.o
LOAD build_gd32/Third_party/lwip-2.0.2/src/core/pbuf.o
LOAD build_gd32/Third_party/lwip-2.0.2/src/core/raw.o
LOAD build_gd32/Third_party/lwip-2.0.2/src/core/stats.o
LOAD build_gd32/Third_party/lwip-2.0.2/src/core/sys.o
LOAD build_gd32/Third_party/lwip-2.0.2/src/core/tcp.o
LOAD build_gd32/Third_party/lwip-2.0.2/src/core/tcp_in.o
LOAD build_gd32/Third_party/lwip-2.0.2/src/core/tcp_out.o
LOAD build_gd32/Third_party/lwip-2.0.2/src/core/timeouts.o
LOAD build_gd32/Third_party/lwip-2.0.2/src/core/udp.o
LOAD build_gd32/Third_party/lwip-2.0.2/src/core/ipv4/autoip.o
LOAD build_gd32/Third_party/lwip-2.0.2/src/core/ipv4/dhcp.o
LOAD build_gd32/Third_party/lwip-2.0.2/src/core/ipv4/etharp.o
LOAD build_gd32/Third_party/lwip-2.0.2/src/core/ipv4/icmp.o
LOAD build_gd32/Third_party/lwip-2.0.2/src/core/ipv4/igmp.o
LOAD build_gd32/Third_party/lwip-2.0.2/src/core/ipv4/ip4_addr.o
LOAD build_gd32/Third_party/lwip-2.0.2/src/core/ipv4/ip4.o
LOAD build_gd32/Third_party/lwip-2.0.2/src/core/ipv4/ip4_frag.o
LOAD build_gd32/Third_party/lwip-2.0.2/src/netif/ethernet.o
LOAD build_gd32/Third_party/lwip-2.0.2/src/netif/ethernetif.o
LOAD build_gd32/Third_party/lwip-2.0.2/src/netif/lowpan6.o
LOAD build_gd32/Third_party/lwip-2.0.2/port/GD32F20x/Basic/ethernetif.o
                0x0000000020020000                _estack = 0x20020000
                0x0000000000000000                _Min_Heap_Size = 0x0
                0x0000000000000200                _Min_Stack_Size = 0x200

.isr_vector     0x0000000008000000      0x1a8
                0x0000000008000000                . = ALIGN (0x4)
 *(.isr_vector)
 .isr_vector    0x0000000008000000      0x1a8 build_gd32/startup_gd32f20x_cl.o
                0x0000000008000000                g_pfnVectors
                0x00000000080001a8                . = ALIGN (0x4)

.text           0x00000000080001a8    0x16168
                0x00000000080001a8                . = ALIGN (0x4)
 *(.text)
 .text          0x00000000080001a8       0x14 build_gd32/startup_gd32f20x_cl.o
 .text          0x00000000080001bc       0x54 build_gd32/Raw_webserver/src/fs.o
                0x00000000080001bc                fs_open
                0x0000000008000204                fs_close
                0x0000000008000206                fs_bytes_left
 .text          0x0000000008000210      0x148 build_gd32/Raw_webserver/src/gd32f20x_enet_eval.o
                0x0000000008000210                enet_system_setup
 .text          0x0000000008000358       0x14 build_gd32/Raw_webserver/src/gd32f20x_it.o
                0x0000000008000358                NMI_Handler
                0x000000000800035a                HardFault_Handler
                0x000000000800035c                MemManage_Handler
                0x000000000800035e                BusFault_Handler
                0x0000000008000360                UsageFault_Handler
                0x0000000008000362                SVC_Handler
                0x0000000008000364                DebugMon_Handler
                0x0000000008000366                PendSV_Handler
                0x0000000008000368                SysTick_Handler
 .text          0x000000000800036c      0x154 build_gd32/Raw_webserver/src/http_adc_led.o
                0x0000000008000386                http_adc_monitor
                0x0000000008000408                http_led_control
                0x0000000008000490                httpd_ssi_init
                0x00000000080004a4                httpd_cgi_init
 .text          0x00000000080004c0      0xa60 build_gd32/Raw_webserver/src/httpd.o
                0x0000000008000ebc                httpd_init
                0x0000000008000f00                http_set_ssi_handler
                0x0000000008000f10                http_set_cgi_handlers
 .text          0x0000000008000f20       0xd0 build_gd32/Raw_webserver/src/main.o
                0x0000000008000f20                delay_10ms
                0x0000000008000f34                time_update
                0x0000000008000f44                adc_config
                0x0000000008000fcc                fputc
 .text          0x0000000008000ff0      0x164 build_gd32/Raw_webserver/src/netconf.o
                0x0000000008000ff0                lwip_stack_init
                0x0000000008001038                lwip_pkt_handle
                0x0000000008001044                lwip_dhcp_process_handle
                0x00000000080010d4                lwip_periodic_handle
                0x0000000008001148                sys_now
 .text          0x0000000008001154        0x0 build_gd32/Third_party/lwip-2.0.2/src/api/api_lib.o
 .text          0x0000000008001154        0x0 build_gd32/Third_party/lwip-2.0.2/src/api/api_msg.o
 .text          0x0000000008001154        0x0 build_gd32/Third_party/lwip-2.0.2/src/api/err.o
 .text          0x0000000008001154        0x0 build_gd32/Third_party/lwip-2.0.2/src/api/netbuf.o
 .text          0x0000000008001154        0x0 build_gd32/Third_party/lwip-2.0.2/src/api/netdb.o
 .text          0x0000000008001154        0x0 build_gd32/Third_party/lwip-2.0.2/src/api/netifapi.o
 .text          0x0000000008001154        0x0 build_gd32/Third_party/lwip-2.0.2/src/api/sockets.o
 .text          0x0000000008001154        0x0 build_gd32/Third_party/lwip-2.0.2/src/api/tcpip.o
 .text          0x0000000008001154      0x110 build_gd32/Third_party/lwip-2.0.2/src/core/def.o
                0x0000000008001154                lwip_htons
                0x000000000800115a                lwip_htonl
                0x000000000800115e                lwip_strnstr
                0x00000000080011a8                lwip_stricmp
                0x00000000080011d6                lwip_strnicmp
                0x000000000800120e                lwip_itoa
 .text          0x0000000008001264        0x0 build_gd32/Third_party/lwip-2.0.2/src/core/dns.o
 .text          0x0000000008001264      0x1f6 build_gd32/Third_party/lwip-2.0.2/src/core/inet_chksum.o
                0x0000000008001264                lwip_standard_chksum
                0x00000000080012b8                inet_chksum_pseudo
                0x000000000800134e                ip_chksum_pseudo
                0x0000000008001352                inet_chksum_pseudo_partial
                0x0000000008001404                ip_chksum_pseudo_partial
                0x0000000008001408                inet_chksum
                0x0000000008001414                inet_chksum_pbuf
 .text          0x000000000800145a       0x1e build_gd32/Third_party/lwip-2.0.2/src/core/init.o
                0x000000000800145a                lwip_init
 .text          0x0000000008001478        0x0 build_gd32/Third_party/lwip-2.0.2/src/core/ip.o
 .text          0x0000000008001478      0x228 build_gd32/Third_party/lwip-2.0.2/src/core/mem.o
                0x0000000008001478                mem_init
                0x00000000080014a8                mem_free
                0x0000000008001520                mem_trim
                0x00000000080015dc                mem_malloc
                0x0000000008001680                mem_calloc
 .text          0x00000000080016a0       0x98 build_gd32/Third_party/lwip-2.0.2/src/core/memp.o
                0x00000000080016a0                memp_init_pool
                0x00000000080016c6                memp_init
                0x00000000080016e4                memp_malloc_pool
                0x00000000080016f2                memp_malloc
                0x0000000008001710                memp_free_pool
                0x000000000800171e                memp_free
 .text          0x0000000008001738      0x218 build_gd32/Third_party/lwip-2.0.2/src/core/netif.o
                0x000000000800174e                netif_init
                0x0000000008001750                netif_input
                0x0000000008001762                netif_find
                0x000000000800179c                netif_set_ipaddr
                0x00000000080017e0                netif_set_addr
                0x0000000008001818                netif_add
                0x0000000008001868                netif_set_gw
                0x0000000008001870                netif_set_netmask
                0x0000000008001878                netif_set_default
                0x0000000008001884                netif_set_up
                0x000000000800189e                netif_set_down
                0x00000000080018b8                netif_remove
                0x0000000008001910                netif_set_link_up
                0x000000000800193c                netif_set_link_down
 .text          0x0000000008001950      0x5e8 build_gd32/Third_party/lwip-2.0.2/src/core/pbuf.o
                0x00000000080019d6                pbuf_alloced_custom
                0x0000000008001a18                pbuf_header
                0x0000000008001a1c                pbuf_header_force
                0x0000000008001a20                pbuf_free
                0x0000000008001a70                pbuf_alloc
                0x0000000008001b64                pbuf_realloc
                0x0000000008001bb6                pbuf_clen
                0x0000000008001bc6                pbuf_ref
                0x0000000008001bd0                pbuf_cat
                0x0000000008001bee                pbuf_chain
                0x0000000008001bfe                pbuf_dechain
                0x0000000008001c24                pbuf_copy
                0x0000000008001ce6                pbuf_copy_partial
                0x0000000008001d46                pbuf_skip
                0x0000000008001d48                pbuf_take
                0x0000000008001d92                pbuf_take_at
                0x0000000008001df2                pbuf_coalesce
                0x0000000008001e1e                pbuf_try_get_at
                0x0000000008001e44                pbuf_get_at
                0x0000000008001e52                pbuf_put_at
                0x0000000008001e72                pbuf_memcmp
                0x0000000008001ec0                pbuf_memfind
                0x0000000008001efc                pbuf_strstr
 .text          0x0000000008001f38        0x0 build_gd32/Third_party/lwip-2.0.2/src/core/raw.o
 .text          0x0000000008001f38        0x0 build_gd32/Third_party/lwip-2.0.2/src/core/stats.o
 .text          0x0000000008001f38        0x0 build_gd32/Third_party/lwip-2.0.2/src/core/sys.o
 .text          0x0000000008001f38      0xbd0 build_gd32/Third_party/lwip-2.0.2/src/core/tcp.o
                0x0000000008001fce                tcp_init
                0x0000000008001fd0                tcp_bind
                0x000000000800204c                tcp_listen_with_backlog_and_err
                0x00000000080020e0                tcp_listen_with_backlog
                0x00000000080020e6                tcp_update_rcv_ann_wnd
                0x000000000800211c                tcp_recved
                0x0000000008002168                tcp_txnow
                0x0000000008002188                tcp_seg_free
                0x00000000080021a4                tcp_segs_free
                0x00000000080021b4                tcp_setprio
                0x00000000080021b8                tcp_arg
                0x00000000080021be                tcp_recv
                0x00000000080021c4                tcp_sent
                0x00000000080021ca                tcp_err
                0x00000000080021d2                tcp_accept
                0x00000000080021de                tcp_poll
                0x00000000080021e6                tcp_pcb_purge
                0x000000000800221e                tcp_slowtmr
                0x0000000008002494                tcp_pcb_remove
                0x0000000008002600                tcp_close
                0x0000000008002612                tcp_recv_null
                0x0000000008002636                tcp_process_refused_data
                0x0000000008002698                tcp_fasttmr
                0x0000000008002700                tcp_tmr
                0x0000000008002724                tcp_shutdown
                0x000000000800276e                tcp_abandon
                0x0000000008002844                tcp_abort
                0x00000000080028ac                tcp_alloc
                0x0000000008002998                tcp_new
                0x000000000800299e                tcp_new_ip_type
                0x00000000080029a4                tcp_next_iss
                0x00000000080029bc                tcp_eff_send_mss_impl
                0x00000000080029da                tcp_connect
                0x0000000008002ab8                tcp_netif_ip_addr_changed
                0x0000000008002af8                tcp_debug_state_str
 .text          0x0000000008002b08      0xca0 build_gd32/Third_party/lwip-2.0.2/src/core/tcp_in.o
                0x0000000008002fc8                tcp_input
                0x0000000008003794                tcp_trigger_input_pcb_close
 .text          0x00000000080037a8      0xb38 build_gd32/Third_party/lwip-2.0.2/src/core/tcp_out.o
                0x00000000080038fe                tcp_write
                0x0000000008003c7c                tcp_enqueue_flags
                0x0000000008003d04                tcp_send_fin
                0x0000000008003d48                tcp_send_empty_ack
                0x0000000008003db8                tcp_output
                0x0000000008004070                tcp_rst
                0x0000000008004100                tcp_rexmit_rto
                0x0000000008004134                tcp_rexmit
                0x0000000008004186                tcp_rexmit_fast
                0x00000000080041ce                tcp_keepalive
                0x0000000008004222                tcp_zero_window_probe
 .text          0x00000000080042e0      0x200 build_gd32/Third_party/lwip-2.0.2/src/core/timeouts.o
                0x00000000080042e0                sys_timeout
                0x0000000008004364                tcp_timer_needed
                0x00000000080043d0                sys_timeouts_init
                0x000000000800441c                sys_untimeout
                0x0000000008004464                sys_check_timeouts
                0x00000000080044a4                sys_restart_timeouts
                0x00000000080044b4                sys_timeouts_sleeptime
 .text          0x00000000080044e0      0x3f8 build_gd32/Third_party/lwip-2.0.2/src/core/udp.o
                0x00000000080044e0                udp_init
                0x00000000080044e2                udp_input
                0x0000000008004618                udp_bind
                0x00000000080046d0                udp_sendto_if_src
                0x0000000008004778                udp_sendto_if
                0x00000000080047b0                udp_sendto
                0x00000000080047e4                udp_send
                0x00000000080047f6                udp_connect
                0x0000000008004844                udp_disconnect
                0x0000000008004854                udp_recv
                0x000000000800485a                udp_remove
                0x0000000008004888                udp_new
                0x00000000080048a8                udp_new_ip_type
                0x00000000080048ac                udp_netif_ip_addr_changed
 .text          0x00000000080048d8        0x0 build_gd32/Third_party/lwip-2.0.2/src/core/ipv4/autoip.o
 .text          0x00000000080048d8      0xe80 build_gd32/Third_party/lwip-2.0.2/src/core/ipv4/dhcp.o
                0x000000000800523c                dhcp_set_struct
                0x0000000008005252                dhcp_cleanup
                0x0000000008005264                dhcp_inform
                0x00000000080052e4                dhcp_network_changed
                0x0000000008005308                dhcp_arp_reply
                0x0000000008005398                dhcp_renew
                0x0000000008005444                dhcp_stop
                0x0000000008005462                dhcp_start
                0x00000000080054d0                dhcp_supplied_address
                0x00000000080054ea                dhcp_release
                0x0000000008005588                dhcp_coarse_tmr
                0x00000000080056c4                dhcp_fine_tmr
 .text          0x0000000008005758      0x644 build_gd32/Third_party/lwip-2.0.2/src/core/ipv4/etharp.o
                0x00000000080058f0                etharp_cleanup_netif
                0x0000000008005918                etharp_find_addr
                0x0000000008005954                etharp_get_entry
                0x0000000008005984                etharp_input
                0x0000000008005ac4                etharp_request
                0x0000000008005af0                etharp_tmr
                0x0000000008005bc0                etharp_query
                0x0000000008005cb8                etharp_output
 .text          0x0000000008005d9c      0x1b8 build_gd32/Third_party/lwip-2.0.2/src/core/ipv4/icmp.o
                0x0000000008005e18                icmp_input
                0x0000000008005f48                icmp_dest_unreach
                0x0000000008005f4e                icmp_time_exceeded
 .text          0x0000000008005f54        0x0 build_gd32/Third_party/lwip-2.0.2/src/core/ipv4/igmp.o
 .text          0x0000000008005f54      0x23c build_gd32/Third_party/lwip-2.0.2/src/core/ipv4/ip4_addr.o
                0x0000000008005f54                ip4_addr_isbroadcast_u32
                0x0000000008005f8a                ip4_addr_netmask_valid
                0x0000000008005fc0                ip4addr_aton
                0x00000000080060dc                ipaddr_addr
                0x00000000080060f4                ip4addr_ntoa_r
                0x0000000008006184                ip4addr_ntoa
 .text          0x0000000008006190      0x320 build_gd32/Third_party/lwip-2.0.2/src/core/ipv4/ip4.o
                0x0000000008006190                ip4_route
                0x00000000080061e8                ip4_input
                0x00000000080063a4                ip4_output_if_src
                0x0000000008006454                ip4_output_if
                0x0000000008006476                ip4_output
 .text          0x00000000080064b0      0x52c build_gd32/Third_party/lwip-2.0.2/src/core/ipv4/ip4_frag.o
                0x00000000080065d4                ip_reass_tmr
                0x0000000008006600                ip4_reass
                0x0000000008006864                ip4_frag
 .text          0x00000000080069dc      0x100 build_gd32/Third_party/lwip-2.0.2/src/netif/ethernet.o
                0x00000000080069dc                ethernet_input
                0x0000000008006a80                ethernet_output
 .text          0x0000000008006adc        0x0 build_gd32/Third_party/lwip-2.0.2/src/netif/ethernetif.o
 .text          0x0000000008006adc        0x0 build_gd32/Third_party/lwip-2.0.2/src/netif/lowpan6.o
 .text          0x0000000008006adc      0x148 build_gd32/Third_party/lwip-2.0.2/port/GD32F20x/Basic/ethernetif.o
                0x0000000008006b1c                ethernetif_input
                0x0000000008006b94                ethernetif_init
 .text          0x0000000008006c24      0x188 ../lib-GD32F207C_EVAL/lib_gd32/libGD32F207C_EVAL.a(gd32f207c_eval.o)
                0x0000000008006c24                gd_eval_led_init
                0x0000000008006c50                gd_eval_led_on
                0x0000000008006c64                gd_eval_led_off
                0x0000000008006c78                gd_eval_led_toggle
                0x0000000008006ca4                gd_eval_key_init
                0x0000000008006d10                gd_eval_key_state_get
                0x0000000008006d24                gd_eval_com_init
 .text          0x0000000008006dac      0x198 ../lib-gd32f2xx/lib_gd32/libgd32f2xx.a(system_gd32f20x.o)
                0x0000000008006dac                SystemInit
                0x0000000008006ea8                SystemCoreClockUpdate
 .text          0x0000000008006f44      0x4e4 ../lib-gd32f2xx/lib_gd32/libgd32f2xx.a(gd32f20x_adc.o)
                0x0000000008006f44                adc_deinit
                0x0000000008006f94                adc_mode_config
                0x0000000008006fb4                adc_special_function_config
                0x0000000008007004                adc_data_alignment_config
                0x0000000008007016                adc_enable
                0x0000000008007026                adc_disable
                0x0000000008007030                adc_calibration_enable
                0x0000000008007052                adc_tempsensor_vrefint_enable
                0x0000000008007068                adc_tempsensor_vrefint_disable
                0x000000000800707c                adc_dma_mode_enable
                0x0000000008007086                adc_dma_mode_disable
                0x0000000008007090                adc_discontinuous_mode_config
                0x00000000080070c8                adc_channel_length_config
                0x0000000008007102                adc_regular_channel_config
                0x0000000008007192                adc_inserted_channel_config
                0x00000000080071ee                adc_inserted_channel_offset_config
                0x0000000008007208                adc_external_trigger_source_config
                0x000000000800722a                adc_external_trigger_config
                0x0000000008007260                adc_software_trigger_enable
                0x000000000800727a                adc_regular_data_read
                0x0000000008007280                adc_inserted_data_read
                0x00000000080072a2                adc_sync_mode_convert_value_read
                0x00000000080072b0                adc_watchdog_single_channel_enable
                0x00000000080072d0                adc_watchdog_group_channel_enable
                0x0000000008007302                adc_watchdog_disable
                0x0000000008007310                adc_watchdog_threshold_config
                0x000000000800731e                adc_flag_get
                0x000000000800732a                adc_flag_clear
                0x0000000008007334                adc_interrupt_flag_get
                0x0000000008007374                adc_interrupt_flag_clear
                0x0000000008007378                adc_interrupt_enable
                0x000000000800739e                adc_interrupt_disable
                0x00000000080073c4                adc_resolution_config
                0x00000000080073dc                adc_oversample_mode_config
                0x000000000800740c                adc_oversample_mode_enable
                0x000000000800741a                adc_oversample_mode_disable
 .text          0x0000000008007428     0x1298 ../lib-gd32f2xx/lib_gd32/libgd32f2xx.a(gd32f20x_enet.o)
                0x0000000008007440                enet_initpara_config
                0x0000000008007564                enet_software_reset
                0x000000000800758c                enet_descriptors_chain_init
                0x00000000080075fc                enet_descriptors_ring_init
                0x000000000800767c                enet_frame_receive
                0x0000000008007704                enet_frame_transmit
                0x0000000008007790                enet_transmit_checksum_config
                0x000000000800779c                enet_mac_address_set
                0x00000000080077b0                enet_mac_address_get
                0x00000000080077e0                enet_flag_get
                0x00000000080077fa                enet_flag_clear
                0x0000000008007810                enet_interrupt_enable
                0x0000000008007848                enet_interrupt_disable
                0x0000000008007880                enet_interrupt_flag_get
                0x0000000008007884                enet_interrupt_flag_clear
                0x0000000008007888                enet_rx_enable
                0x00000000080078a4                enet_rx_disable
                0x00000000080078c0                enet_registers_get
                0x00000000080078ec                enet_address_filter_enable
                0x00000000080078fc                enet_address_filter_disable
                0x000000000800790c                enet_address_filter_config
                0x0000000008007924                enet_phy_write_read
                0x0000000008007980                enet_phy_config
                0x0000000008007a34                enet_init
                0x0000000008007d14                enet_phyloopback_enable
                0x0000000008007d44                enet_phyloopback_disable
                0x0000000008007d74                enet_forward_feature_enable
                0x0000000008007d9c                enet_forward_feature_disable
                0x0000000008007dc8                enet_fliter_feature_enable
                0x0000000008007dd8                enet_fliter_feature_disable
                0x0000000008007de8                enet_pauseframe_generate
                0x0000000008007e04                enet_pauseframe_detect_config
                0x0000000008007e1c                enet_pauseframe_config
                0x0000000008007e3c                enet_flowcontrol_threshold_config
                0x0000000008007e4c                enet_flowcontrol_feature_enable
                0x0000000008007e70                enet_flowcontrol_feature_disable
                0x0000000008007e94                enet_dmaprocess_state_get
                0x0000000008007ea0                enet_dmaprocess_resume
                0x0000000008007eb4                enet_rxprocess_check_recovery
                0x0000000008007ed8                enet_txfifo_flush
                0x0000000008007f00                enet_tx_enable
                0x0000000008007f24                enet_enable
                0x0000000008007f32                enet_tx_disable
                0x0000000008007f58                enet_disable
                0x0000000008007f66                enet_current_desc_address_get
                0x0000000008007f72                enet_desc_information_get
                0x0000000008007fae                enet_missed_frame_counter_get
                0x0000000008007fc4                enet_desc_flag_get
                0x0000000008007fd0                enet_desc_flag_set
                0x0000000008007fd8                enet_desc_flag_clear
                0x0000000008007fe2                enet_desc_receive_complete_bit_enable
                0x0000000008007fec                enet_desc_receive_complete_bit_disable
                0x0000000008007ff6                enet_rxframe_drop
                0x0000000008008060                enet_rxframe_size_get
                0x0000000008008098                enet_dma_feature_enable
                0x00000000080080a8                enet_dma_feature_disable
                0x00000000080080b8                enet_ptp_normal_descriptors_chain_init
                0x0000000008008140                enet_ptp_normal_descriptors_ring_init
                0x00000000080081d8                enet_ptpframe_receive_normal_mode
                0x000000000800828c                enet_ptpframe_transmit_normal_mode
                0x0000000008008350                enet_wum_filter_register_pointer_reset
                0x0000000008008360                enet_wum_filter_config
                0x0000000008008378                enet_wum_feature_enable
                0x0000000008008388                enet_wum_feature_disable
                0x0000000008008398                enet_msc_counters_reset
                0x00000000080083ac                enet_msc_feature_enable
                0x00000000080083c0                enet_msc_feature_disable
                0x00000000080083d4                enet_msc_counters_get
                0x00000000080083e0                enet_ptp_subsecond_2_nanosecond
                0x00000000080083f4                enet_ptp_nanosecond_2_subsecond
                0x0000000008008410                enet_ptp_feature_enable
                0x0000000008008424                enet_ptp_feature_disable
                0x0000000008008438                enet_ptp_timestamp_function_config
                0x00000000080084e0                enet_ptp_subsecond_increment_config
                0x00000000080084f0                enet_ptp_timestamp_addend_config
                0x00000000080084fc                enet_ptp_timestamp_update_config
                0x0000000008008514                enet_ptp_expected_time_config
                0x0000000008008524                enet_ptp_system_time_get
                0x0000000008008550                enet_ptp_finecorrection_adjfreq
                0x0000000008008560                enet_ptp_flag_get
                0x0000000008008574                enet_ptp_start
                0x00000000080085dc                enet_ptp_coarsecorrection_systime_update
                0x0000000008008634                enet_ptp_finecorrection_settime
                0x000000000800867c                enet_initpara_reset
                0x00000000080086a4                enet_deinit
 .text          0x00000000080086c0      0x180 ../lib-gd32f2xx/lib_gd32/libgd32f2xx.a(gd32f20x_exti.o)
                0x00000000080086c0                exti_deinit
                0x00000000080086e0                exti_init
                0x000000000800877c                exti_interrupt_enable
                0x0000000008008790                exti_event_enable
                0x00000000080087a4                exti_interrupt_disable
                0x00000000080087b8                exti_event_disable
                0x00000000080087cc                exti_flag_get
                0x00000000080087e0                exti_flag_clear
                0x00000000080087ec                exti_interrupt_flag_get
                0x000000000800880c                exti_interrupt_flag_clear
                0x0000000008008818                exti_software_interrupt_enable
                0x000000000800882c                exti_software_interrupt_disable
 .text          0x0000000008008840      0x34c ../lib-gd32f2xx/lib_gd32/libgd32f2xx.a(gd32f20x_gpio.o)
                0x0000000008008840                gpio_deinit
                0x0000000008008920                gpio_afio_deinit
                0x0000000008008936                gpio_init
                0x00000000080089c6                gpio_bit_set
                0x00000000080089ca                gpio_bit_reset
                0x00000000080089ce                gpio_bit_write
                0x00000000080089d8                gpio_port_write
                0x00000000080089dc                gpio_input_bit_get
                0x00000000080089e8                gpio_input_port_get
                0x00000000080089ee                gpio_output_bit_get
                0x00000000080089fa                gpio_output_port_get
                0x0000000008008a00                gpio_pin_remap_config
                0x0000000008008a60                gpio_pin_remap1_config
                0x0000000008008ad0                gpio_exti_source_select
                0x0000000008008b2c                gpio_event_output_config
                0x0000000008008b44                gpio_event_output_enable
                0x0000000008008b54                gpio_event_output_disable
                0x0000000008008b64                gpio_pin_lock
                0x0000000008008b74                gpio_ethernet_phy_select
 .text          0x0000000008008b8c       0xfc ../lib-gd32f2xx/lib_gd32/libgd32f2xx.a(gd32f20x_misc.o)
                0x0000000008008b8c                nvic_priority_group_set
                0x0000000008008ba0                nvic_irq_enable
                0x0000000008008c24                nvic_irq_disable
                0x0000000008008c3c                nvic_vector_table_set
                0x0000000008008c50                system_lowpower_set
                0x0000000008008c60                system_lowpower_reset
                0x0000000008008c70                systick_clksource_set
 .text          0x0000000008008c88      0x5ec ../lib-gd32f2xx/lib_gd32/libgd32f2xx.a(gd32f20x_rcu.o)
                0x0000000008008c88                rcu_periph_clock_enable
                0x0000000008008ca2                rcu_periph_clock_disable
                0x0000000008008cbe                rcu_periph_clock_sleep_enable
                0x0000000008008cc2                rcu_periph_clock_sleep_disable
                0x0000000008008cc6                rcu_periph_reset_enable
                0x0000000008008cca                rcu_periph_reset_disable
                0x0000000008008cce                rcu_bkp_reset_enable
                0x0000000008008ce0                rcu_bkp_reset_disable
                0x0000000008008cf0                rcu_system_clock_source_config
                0x0000000008008d04                rcu_system_clock_source_get
                0x0000000008008d14                rcu_ahb_clock_config
                0x0000000008008d28                rcu_apb1_clock_config
                0x0000000008008d3c                rcu_apb2_clock_config
                0x0000000008008d50                rcu_ckout0_config
                0x0000000008008d70                rcu_ckout1_config
                0x0000000008008d8c                rcu_pll_config
                0x0000000008008da4                rcu_predv0_config
                0x0000000008008dbc                rcu_predv1_config
                0x0000000008008dd0                rcu_pll1_config
                0x0000000008008de8                rcu_pll2_config
                0x0000000008008e00                rcu_adc_clock_config
                0x0000000008008e3c                rcu_usbfs_trng_clock_config
                0x0000000008008e50                rcu_rtc_clock_config
                0x0000000008008e64                rcu_i2s1_clock_config
                0x0000000008008e78                rcu_i2s2_clock_config
                0x0000000008008e8c                rcu_flag_get
                0x0000000008008ea6                rcu_all_reset_flag_clear
                0x0000000008008eb8                rcu_interrupt_flag_get
                0x0000000008008ebc                rcu_interrupt_flag_clear
                0x0000000008008ec0                rcu_interrupt_enable
                0x0000000008008ec4                rcu_interrupt_disable
                0x0000000008008ec8                rcu_lxtal_drive_capability_config
                0x0000000008008edc                rcu_osci_stab_wait
                0x0000000008008fbc                rcu_deinit
                0x0000000008009034                rcu_osci_on
                0x0000000008009038                rcu_osci_off
                0x000000000800903c                rcu_osci_bypass_mode_enable
                0x0000000008009074                rcu_osci_bypass_mode_disable
                0x00000000080090ac                rcu_hxtal_clock_monitor_enable
                0x00000000080090bc                rcu_hxtal_clock_monitor_disable
                0x00000000080090cc                rcu_irc8m_adjust_value_set
                0x00000000080090e4                rcu_deepsleep_voltage_set
                0x00000000080090f4                rcu_clock_freq_get
                0x0000000008009204                rcu_pllt_config
                0x000000000800921c                rcu_pllt_vco_config
                0x000000000800925c                rcu_tli_clock_config
 .text          0x0000000008009274      0x454 ../lib-gd32f2xx/lib_gd32/libgd32f2xx.a(gd32f20x_usart.o)
                0x0000000008009274                usart_deinit
                0x0000000008009338                usart_baudrate_set
                0x00000000080093a0                usart_parity_config
                0x00000000080093b0                usart_word_length_set
                0x00000000080093c0                usart_stop_bit_set
                0x00000000080093d0                usart_enable
                0x00000000080093da                usart_disable
                0x00000000080093e4                usart_transmit_config
                0x00000000080093f0                usart_receive_config
                0x00000000080093fc                usart_data_first_config
                0x0000000008009414                usart_invert_config
                0x0000000008009462                usart_receiver_timeout_enable
                0x0000000008009470                usart_receiver_timeout_disable
                0x000000000800947e                usart_receiver_timeout_threshold_config
                0x0000000008009496                usart_data_transmit
                0x000000000800949e                usart_data_receive
                0x00000000080094a6                usart_address_config
                0x00000000080094ba                usart_mute_mode_enable
                0x00000000080094c4                usart_mute_mode_disable
                0x00000000080094ce                usart_mute_mode_wakeup_config
                0x00000000080094de                usart_lin_mode_enable
                0x00000000080094e8                usart_lin_mode_disable
                0x00000000080094f2                usart_lin_break_detection_length_config
                0x0000000008009506                usart_send_break
                0x0000000008009510                usart_halfduplex_enable
                0x000000000800951a                usart_halfduplex_disable
                0x0000000008009524                usart_synchronous_clock_enable
                0x000000000800952e                usart_synchronous_clock_disable
                0x0000000008009538                usart_synchronous_clock_config
                0x0000000008009556                usart_guard_time_config
                0x000000000800956a                usart_smartcard_mode_enable
                0x0000000008009574                usart_smartcard_mode_disable
                0x000000000800957e                usart_smartcard_mode_nack_enable
                0x0000000008009588                usart_smartcard_mode_nack_disable
                0x0000000008009592                usart_smartcard_autoretry_config
                0x00000000080095b0                usart_block_length_config
                0x00000000080095ca                usart_irda_mode_enable
                0x00000000080095d4                usart_irda_mode_disable
                0x00000000080095de                usart_prescaler_config
                0x00000000080095ee                usart_irda_lowpower_config
                0x0000000008009602                usart_hardware_flow_rts_config
                0x000000000800960e                usart_hardware_flow_cts_config
                0x000000000800961a                usart_dma_receive_config
                0x0000000008009626                usart_dma_transmit_config
                0x0000000008009632                usart_flag_get
                0x0000000008009642                usart_flag_clear
                0x0000000008009658                usart_interrupt_enable
                0x000000000800966e                usart_interrupt_disable
                0x0000000008009686                usart_interrupt_flag_get
                0x00000000080096b0                usart_interrupt_flag_clear
 .text          0x00000000080096c8      0x688 ../lib-c/lib_gd32/libc.a(printf.o)
                0x0000000008009c8e                printf
                0x0000000008009cac                vprintf
                0x0000000008009cb6                sprintf
                0x0000000008009ce4                vsprintf
                0x0000000008009d00                snprintf
                0x0000000008009d30                vsnprintf
 .text          0x0000000008009d50      0x168 /usr/lib/gcc/arm-none-eabi/12.2.1/thumb/v7-m/nofp/libgcc.a(_arm_mulsf3.o)
                0x0000000008009d50                __mulsf3
                0x0000000008009d50                __aeabi_fmul
 .text          0x0000000008009eb8       0xa0 /usr/lib/gcc/arm-none-eabi/12.2.1/thumb/v7-m/nofp/libgcc.a(_arm_truncdfsf2.o)
                0x0000000008009eb8                __aeabi_d2f
                0x0000000008009eb8                __truncdfsf2
 .text          0x0000000008009f58      0x21c /usr/lib/gcc/arm-none-eabi/12.2.1/thumb/v7-m/nofp/libgcc.a(_arm_addsubsf3.o)
                0x0000000008009f58                __aeabi_frsub
                0x0000000008009f60                __subsf3
                0x0000000008009f60                __aeabi_fsub
                0x0000000008009f64                __aeabi_fadd
                0x0000000008009f64                __addsf3
                0x000000000800a0c4                __aeabi_ui2f
                0x000000000800a0c4                __floatunsisf
                0x000000000800a0cc                __aeabi_i2f
                0x000000000800a0cc                __floatsisf
                0x000000000800a0e8                __floatundisf
                0x000000000800a0e8                __aeabi_ul2f
                0x000000000800a0f8                __floatdisf
                0x000000000800a0f8                __aeabi_l2f
 .text          0x000000000800a174       0xec /usr/lib/gcc/arm-none-eabi/12.2.1/thumb/v7-m/nofp/libgcc.a(_arm_cmpsf2.o)
                0x000000000800a174                __gtsf2
                0x000000000800a174                __gesf2
                0x000000000800a17c                __lesf2
                0x000000000800a17c                __ltsf2
                0x000000000800a184                __nesf2
                0x000000000800a184                __eqsf2
                0x000000000800a184                __cmpsf2
                0x000000000800a1e4                __aeabi_cfrcmple
                0x000000000800a1ec                __aeabi_cfcmple
                0x000000000800a1ec                __aeabi_cfcmpeq
                0x000000000800a1fc                __aeabi_fcmpeq
                0x000000000800a210                __aeabi_fcmplt
                0x000000000800a224                __aeabi_fcmple
                0x000000000800a238                __aeabi_fcmpge
                0x000000000800a24c                __aeabi_fcmpgt
 .text          0x000000000800a260       0x4c /usr/lib/gcc/arm-none-eabi/12.2.1/thumb/v7-m/nofp/libgcc.a(_arm_fixsfsi.o)
                0x000000000800a260                __fixsfsi
                0x000000000800a260                __aeabi_f2iz
 .text          0x000000000800a2ac       0xa0 /usr/lib/gcc/arm-none-eabi/12.2.1/thumb/v7-m/nofp/libgcc.a(_aeabi_ldivmod.o)
                0x000000000800a2ac                __aeabi_ldivmod
 .text          0x000000000800a34c       0x30 /usr/lib/gcc/arm-none-eabi/12.2.1/thumb/v7-m/nofp/libgcc.a(_aeabi_uldivmod.o)
                0x000000000800a34c                __aeabi_uldivmod
 .text          0x000000000800a37c      0x2c0 /usr/lib/gcc/arm-none-eabi/12.2.1/thumb/v7-m/nofp/libgcc.a(_udivmoddi4.o)
                0x000000000800a37c                __udivmoddi4
 .text          0x000000000800a63c        0x4 /usr/lib/gcc/arm-none-eabi/12.2.1/thumb/v7-m/nofp/libgcc.a(_dvmd_tls.o)
                0x000000000800a63c                __aeabi_ldiv0
                0x000000000800a63c                __aeabi_idiv0
 *(.text*)
 .text.Reset_Handler
                0x000000000800a640       0x44 build_gd32/startup_gd32f20x_cl.o
                0x000000000800a640                Reset_Handler
 .text.Default_Handler
                0x000000000800a684        0x2 build_gd32/startup_gd32f20x_cl.o
                0x000000000800a684                EXTI2_IRQHandler
                0x000000000800a684                TIMER2_IRQHandler
                0x000000000800a684                TIMER5_IRQHandler
                0x000000000800a684                LVD_IRQHandler
                0x000000000800a684                CAN1_EWMC_IRQHandler
                0x000000000800a684                TIMER7_UP_TIMER12_IRQHandler
                0x000000000800a684                ADC0_1_IRQHandler
                0x000000000800a684                SDIO_IRQHandler
                0x000000000800a684                EXTI3_IRQHandler
                0x000000000800a684                DCI_IRQHandler
                0x000000000800a684                USBFS_WKUP_IRQHandler
                0x000000000800a684                TIMER0_TRG_CMT_TIMER10_IRQHandler
                0x000000000800a684                USBFS_IRQHandler
                0x000000000800a684                TIMER3_IRQHandler
                0x000000000800a684                DMA0_Channel6_IRQHandler
                0x000000000800a684                I2C0_EV_IRQHandler
                0x000000000800a684                EXTI0_IRQHandler
                0x000000000800a684                I2C2_EV_IRQHandler
                0x000000000800a684                CAU_IRQHandler
                0x000000000800a684                CAN1_RX0_IRQHandler
                0x000000000800a684                TIMER7_TRG_CMT_TIMER13_IRQHandler
                0x000000000800a684                TIMER4_IRQHandler
                0x000000000800a684                SPI1_IRQHandler
                0x000000000800a684                DMA0_Channel0_IRQHandler
                0x000000000800a684                USART5_IRQHandler
                0x000000000800a684                TAMPER_IRQHandler
                0x000000000800a684                TIMER0_BRK_TIMER8_IRQHandler
                0x000000000800a684                DMA1_Channel0_IRQHandler
                0x000000000800a684                TIMER7_BRK_TIMER11_IRQHandler
                0x000000000800a684                TIMER6_IRQHandler
                0x000000000800a684                DMA1_Channel4_IRQHandler
                0x000000000800a684                DMA0_Channel3_IRQHandler
                0x000000000800a684                I2C0_ER_IRQHandler
                0x000000000800a684                TLI_IRQHandler
                0x000000000800a684                TIMER0_UP_TIMER9_IRQHandler
                0x000000000800a684                RTC_IRQHandler
                0x000000000800a684                CAN1_RX1_IRQHandler
                0x000000000800a684                DMA0_Channel2_IRQHandler
                0x000000000800a684                USART0_IRQHandler
                0x000000000800a684                TIMER1_IRQHandler
                0x000000000800a684                I2C1_EV_IRQHandler
                0x000000000800a684                DMA1_Channel6_IRQHandler
                0x000000000800a684                UART4_IRQHandler
                0x000000000800a684                EXTI10_15_IRQHandler
                0x000000000800a684                DMA1_Channel1_IRQHandler
                0x000000000800a684                Default_Handler
                0x000000000800a684                TIMER7_Channel_IRQHandler
                0x000000000800a684                CAN0_TX_IRQHandler
                0x000000000800a684                WWDGT_IRQHandler
                0x000000000800a684                EXMC_IRQHandler
                0x000000000800a684                ADC2_IRQHandler
                0x000000000800a684                SPI2_IRQHandler
                0x000000000800a684                CAN1_TX_IRQHandler
                0x000000000800a684                HAU_TRNG_IRQHandler
                0x000000000800a684                DMA1_Channel5_IRQHandler
                0x000000000800a684                EXTI4_IRQHandler
                0x000000000800a684                CAN0_RX1_IRQHandler
                0x000000000800a684                DMA0_Channel5_IRQHandler
                0x000000000800a684                DMA1_Channel3_IRQHandler
                0x000000000800a684                EXTI5_9_IRQHandler
                0x000000000800a684                RCU_IRQHandler
                0x000000000800a684                DMA0_Channel1_IRQHandler
                0x000000000800a684                TIMER0_Channel_IRQHandler
                0x000000000800a684                EXTI1_IRQHandler
                0x000000000800a684                ENET_WKUP_IRQHandler
                0x000000000800a684                RTCAlarm_IRQHandler
                0x000000000800a684                UART7_IRQHandler
                0x000000000800a684                USART2_IRQHandler
                0x000000000800a684                UART6_IRQHandler
                0x000000000800a684                CAN0_EWMC_IRQHandler
                0x000000000800a684                CAN0_RX0_IRQHandler
                0x000000000800a684                I2C2_ER_IRQHandler
                0x000000000800a684                DMA1_Channel2_IRQHandler
                0x000000000800a684                TLI_ER_IRQHandler
                0x000000000800a684                USART1_IRQHandler
                0x000000000800a684                UART3_IRQHandler
                0x000000000800a684                I2C1_ER_IRQHandler
                0x000000000800a684                FMC_IRQHandler
                0x000000000800a684                DMA0_Channel4_IRQHandler
                0x000000000800a684                ENET_IRQHandler
 *fill*         0x000000000800a686        0x2 
 .text.startup  0x000000000800a688       0x58 build_gd32/Raw_webserver/src/main.o
                0x000000000800a688                main
 *(.rodata)
 .rodata        0x000000000800a6e0     0xb868 build_gd32/Raw_webserver/src/fs.o
                0x000000000800a6e0                file__LED_html
                0x000000000800a6f4                file__home_html
                0x000000000800a708                file__ADC_shtml
                0x000000000800a71c                file__image_gigadevice_logo_JPG
                0x000000000800a730                file__image_gd_bz_gif
 .rodata        0x0000000008015f48        0x8 build_gd32/Raw_webserver/src/http_adc_led.o
                0x0000000008015f48                leds_cgi
 .rodata        0x0000000008015f50       0x40 build_gd32/Raw_webserver/src/httpd.o
                0x0000000008015f50                g_psDefaultFilenames
                0x0000000008015f88                g_pcTagLeadOut
                0x0000000008015f8c                g_pcTagLeadIn
 .rodata        0x0000000008015f90       0x90 build_gd32/Third_party/lwip-2.0.2/src/core/memp.o
                0x0000000008015f90                memp_pools
                0x0000000008015fb4                memp_PBUF_POOL
                0x0000000008015fc0                memp_PBUF
                0x0000000008015fcc                memp_SYS_TIMEOUT
                0x0000000008015fd8                memp_FRAG_PBUF
                0x0000000008015fe4                memp_REASSDATA
                0x0000000008015ff0                memp_TCP_SEG
                0x0000000008015ffc                memp_TCP_PCB_LISTEN
                0x0000000008016008                memp_TCP_PCB
                0x0000000008016014                memp_UDP_PCB
 .rodata        0x0000000008016020        0x5 build_gd32/Third_party/lwip-2.0.2/src/core/pbuf.o
 *fill*         0x0000000008016025        0x3 
 .rodata        0x0000000008016028       0x50 build_gd32/Third_party/lwip-2.0.2/src/core/tcp.o
                0x0000000008016028                tcp_pcb_lists
 .rodata        0x0000000008016078       0x28 build_gd32/Third_party/lwip-2.0.2/src/core/timeouts.o
                0x0000000008016078                lwip_cyclic_timers
 .rodata        0x00000000080160a0        0x8 build_gd32/Third_party/lwip-2.0.2/src/core/ipv4/ip4_addr.o
                0x00000000080160a0                ip_addr_broadcast
                0x00000000080160a4                ip_addr_any
 .rodata        0x00000000080160a8        0xc build_gd32/Third_party/lwip-2.0.2/src/netif/ethernet.o
                0x00000000080160a8                ethbroadcast
                0x00000000080160ae                ethzero
 .rodata        0x00000000080160b4       0x51 ../lib-GD32F207C_EVAL/lib_gd32/libGD32F207C_EVAL.a(gd32f207c_eval.o)
 *fill*         0x0000000008016105        0x1 
 .rodata        0x0000000008016106       0x6c ../lib-gd32f2xx/lib_gd32/libgd32f2xx.a(gd32f20x_enet.o)
 .rodata        0x0000000008016172       0x18 ../lib-gd32f2xx/lib_gd32/libgd32f2xx.a(gd32f20x_rcu.o)
 *(.rodata*)
 .rodata.str1.1
                0x000000000801618a       0x1c build_gd32/Raw_webserver/src/http_adc_led.o
                                         0x20 (size before relaxing)
 .rodata.str1.1
                0x00000000080161a6       0x88 build_gd32/Raw_webserver/src/httpd.o
                                         0x9f (size before relaxing)
 .rodata.str1.1
                0x000000000801622e       0x30 build_gd32/Raw_webserver/src/netconf.o
 .rodata.str1.1
                0x000000000801625e       0x48 build_gd32/Third_party/lwip-2.0.2/src/core/def.o
 .rodata.str1.1
                0x00000000080162a6       0x68 build_gd32/Third_party/lwip-2.0.2/src/core/tcp.o
 *(.glue_7)
 .glue_7        0x000000000801630e        0x0 linker stubs
 *(.glue_7t)
 .glue_7t       0x000000000801630e        0x0 linker stubs
 *(.init)
 *(.fini)
                0x0000000008016310                . = ALIGN (0x4)
 *fill*         0x000000000801630e        0x2 
                0x0000000008016310                _etext = .

.vfp11_veneer   0x0000000008016310        0x0
 .vfp11_veneer  0x0000000008016310        0x0 linker stubs

.v4_bx          0x0000000008016310        0x0
 .v4_bx         0x0000000008016310        0x0 linker stubs

.iplt           0x0000000008016310        0x0
 .iplt          0x0000000008016310        0x0 build_gd32/startup_gd32f20x_cl.o

.ARM.extab      0x0000000008016310        0x0
 *(.ARM.extab* .gnu.linkonce.armextab.*)
 .ARM.extab     0x0000000008016310        0x0 /usr/lib/gcc/arm-none-eabi/12.2.1/thumb/v7-m/nofp/libgcc.a(_udivmoddi4.o)

.ARM            0x0000000008016310        0x8
                0x0000000008016310                __exidx_start = .
 *(.ARM.exidx*)
 .ARM.exidx     0x0000000008016310        0x8 /usr/lib/gcc/arm-none-eabi/12.2.1/thumb/v7-m/nofp/libgcc.a(_udivmoddi4.o)
                0x0000000008016318                __exidx_end = .

.rel.dyn        0x0000000008016318        0x0
 .rel.iplt      0x0000000008016318        0x0 build_gd32/startup_gd32f20x_cl.o

.ARM.attributes
                0x0000000008016318       0x2f
 *(.ARM.attributes)
 .ARM.attributes
                0x0000000008016318       0x21 build_gd32/startup_gd32f20x_cl.o
 .ARM.attributes
                0x0000000008016339       0x2d build_gd32/Raw_webserver/src/fs.o
 .ARM.attributes
                0x0000000008016366       0x2d build_gd32/Raw_webserver/src/gd32f20x_enet_eval.o
 .ARM.attributes
                0x0000000008016393       0x2d build_gd32/Raw_webserver/src/gd32f20x_it.o
 .ARM.attributes
                0x00000000080163c0       0x2d build_gd32/Raw_webserver/src/http_adc_led.o
 .ARM.attributes
                0x00000000080163ed       0x2d build_gd32/Raw_webserver/src/httpd.o
 .ARM.attributes
                0x000000000801641a       0x2d build_gd32/Raw_webserver/src/main.o
 .ARM.attributes
                0x0000000008016447       0x2d build_gd32/Raw_webserver/src/netconf.o
 .ARM.attributes
                0x0000000008016474       0x2d build_gd32/Third_party/lwip-2.0.2/src/api/api_lib.o
 .ARM.attributes
                0x00000000080164a1       0x2d build_gd32/Third_party/lwip-2.0.2/src/api/api_msg.o
 .ARM.attributes
                0x00000000080164ce       0x2d build_gd32/Third_party/lwip-2.0.2/src/api/err.o
 .ARM.attributes
                0x00000000080164fb       0x2d build_gd32/Third_party/lwip-2.0.2/src/api/netbuf.o
 .ARM.attributes
                0x0000000008016528       0x2d build_gd32/Third_party/lwip-2.0.2/src/api/netdb.o
 .ARM.attributes
                0x0000000008016555       0x2d build_gd32/Third_party/lwip-2.0.2/src/api/netifapi.o
 .ARM.attributes
                0x0000000008016582       0x2d build_gd32/Third_party/lwip-2.0.2/src/api/sockets.o
 .ARM.attributes
                0x00000000080165af       0x2d build_gd32/Third_party/lwip-2.0.2/src/api/tcpip.o
 .ARM.attributes
                0x00000000080165dc       0x2d build_gd32/Third_party/lwip-2.0.2/src/core/def.o
 .ARM.attributes
                0x0000000008016609       0x2d build_gd32/Third_party/lwip-2.0.2/src/core/dns.o
 .ARM.attributes
                0x0000000008016636       0x2d build_gd32/Third_party/lwip-2.0.2/src/core/inet_chksum.o
 .ARM.attributes
                0x0000000008016663       0x2d build_gd32/Third_party/lwip-2.0.2/src/core/init.o
 .ARM.attributes
                0x0000000008016690       0x2d build_gd32/Third_party/lwip-2.0.2/src/core/ip.o
 .ARM.attributes
                0x00000000080166bd       0x2d build_gd32/Third_party/lwip-2.0.2/src/core/mem.o
 .ARM.attributes
                0x00000000080166ea       0x2d build_gd32/Third_party/lwip-2.0.2/src/core/memp.o
 .ARM.attributes
                0x0000000008016717       0x2d build_gd32/Third_party/lwip-2.0.2/src/core/netif.o
 .ARM.attributes
                0x0000000008016744       0x2d build_gd32/Third_party/lwip-2.0.2/src/core/pbuf.o
 .ARM.attributes
                0x0000000008016771       0x2d build_gd32/Third_party/lwip-2.0.2/src/core/raw.o
 .ARM.attributes
                0x000000000801679e       0x2d build_gd32/Third_party/lwip-2.0.2/src/core/stats.o
 .ARM.attributes
                0x00000000080167cb       0x2d build_gd32/Third_party/lwip-2.0.2/src/core/sys.o
 .ARM.attributes
                0x00000000080167f8       0x2d build_gd32/Third_party/lwip-2.0.2/src/core/tcp.o
 .ARM.attributes
                0x0000000008016825       0x2d build_gd32/Third_party/lwip-2.0.2/src/core/tcp_in.o
 .ARM.attributes
                0x0000000008016852       0x2d build_gd32/Third_party/lwip-2.0.2/src/core/tcp_out.o
 .ARM.attributes
                0x000000000801687f       0x2d build_gd32/Third_party/lwip-2.0.2/src/core/timeouts.o
 .ARM.attributes
                0x00000000080168ac       0x2d build_gd32/Third_party/lwip-2.0.2/src/core/udp.o
 .ARM.attributes
                0x00000000080168d9       0x2d build_gd32/Third_party/lwip-2.0.2/src/core/ipv4/autoip.o
 .ARM.attributes
                0x0000000008016906       0x2d build_gd32/Third_party/lwip-2.0.2/src/core/ipv4/dhcp.o
 .ARM.attributes
                0x0000000008016933       0x2d build_gd32/Third_party/lwip-2.0.2/src/core/ipv4/etharp.o
 .ARM.attributes
                0x0000000008016960       0x2d build_gd32/Third_party/lwip-2.0.2/src/core/ipv4/icmp.o
 .ARM.attributes
                0x000000000801698d       0x2d build_gd32/Third_party/lwip-2.0.2/src/core/ipv4/igmp.o
 .ARM.attributes
                0x00000000080169ba       0x2d build_gd32/Third_party/lwip-2.0.2/src/core/ipv4/ip4_addr.o
 .ARM.attributes
                0x00000000080169e7       0x2d build_gd32/Third_party/lwip-2.0.2/src/core/ipv4/ip4.o
 .ARM.attributes
                0x0000000008016a14       0x2d build_gd32/Third_party/lwip-2.0.2/src/core/ipv4/ip4_frag.o
 .ARM.attributes
                0x0000000008016a41       0x2d build_gd32/Third_party/lwip-2.0.2/src/netif/ethernet.o
 .ARM.attributes
                0x0000000008016a6e       0x2d build_gd32/Third_party/lwip-2.0.2/src/netif/ethernetif.o
 .ARM.attributes
                0x0000000008016a9b       0x2d build_gd32/Third_party/lwip-2.0.2/src/netif/lowpan6.o
 .ARM.attributes
                0x0000000008016ac8       0x2d build_gd32/Third_party/lwip-2.0.2/port/GD32F20x/Basic/ethernetif.o
 .ARM.attributes
                0x0000000008016af5       0x2d ../lib-GD32F207C_EVAL/lib_gd32/libGD32F207C_EVAL.a(gd32f207c_eval.o)
 .ARM.attributes
                0x0000000008016b22       0x2d ../lib-gd32f2xx/lib_gd32/libgd32f2xx.a(system_gd32f20x.o)
 .ARM.attributes
                0x0000000008016b4f       0x2d ../lib-gd32f2xx/lib_gd32/libgd32f2xx.a(gd32f20x_adc.o)
 .ARM.attributes
                0x0000000008016b7c       0x2d ../lib-gd32f2xx/lib_gd32/libgd32f2xx.a(gd32f20x_enet.o)
 .ARM.attributes
                0x0000000008016ba9       0x2d ../lib-gd32f2xx/lib_gd32/libgd32f2xx.a(gd32f20x_exti.o)
 .ARM.attributes
                0x0000000008016bd6       0x2d ../lib-gd32f2xx/lib_gd32/libgd32f2xx.a(gd32f20x_gpio.o)
 .ARM.attributes
                0x0000000008016c03       0x2d ../lib-gd32f2xx/lib_gd32/libgd32f2xx.a(gd32f20x_misc.o)
 .ARM.attributes
                0x0000000008016c30       0x2d ../lib-gd32f2xx/lib_gd32/libgd32f2xx.a(gd32f20x_rcu.o)
 .ARM.attributes
                0x0000000008016c5d       0x2d ../lib-gd32f2xx/lib_gd32/libgd32f2xx.a(gd32f20x_usart.o)
 .ARM.attributes
                0x0000000008016c8a       0x2d ../lib-c/lib_gd32/libc.a(printf.o)
 .ARM.attributes
                0x0000000008016cb7       0x1d /usr/lib/gcc/arm-none-eabi/12.2.1/thumb/v7-m/nofp/libgcc.a(_arm_mulsf3.o)
 .ARM.attributes
                0x0000000008016cd4       0x1d /usr/lib/gcc/arm-none-eabi/12.2.1/thumb/v7-m/nofp/libgcc.a(_arm_truncdfsf2.o)
 .ARM.attributes
                0x0000000008016cf1       0x1d /usr/lib/gcc/arm-none-eabi/12.2.1/thumb/v7-m/nofp/libgcc.a(_arm_addsubsf3.o)
 .ARM.attributes
                0x0000000008016d0e       0x1d /usr/lib/gcc/arm-none-eabi/12.2.1/thumb/v7-m/nofp/libgcc.a(_arm_cmpsf2.o)
 .ARM.attributes
                0x0000000008016d2b       0x1d /usr/lib/gcc/arm-none-eabi/12.2.1/thumb/v7-m/nofp/libgcc.a(_arm_fixsfsi.o)
 .ARM.attributes
                0x0000000008016d48       0x1d /usr/lib/gcc/arm-none-eabi/12.2.1/thumb/v7-m/nofp/libgcc.a(_aeabi_ldivmod.o)
 .ARM.attributes
                0x0000000008016d65       0x1d /usr/lib/gcc/arm-none-eabi/12.2.1/thumb/v7-m/nofp/libgcc.a(_aeabi_uldivmod.o)
 .ARM.attributes
                0x0000000008016d82       0x2d /usr/lib/gcc/arm-none-eabi/12.2.1/thumb/v7-m/nofp/libgcc.a(_udivmoddi4.o)
 .ARM.attributes
                0x0000000008016daf       0x1d /usr/lib/gcc/arm-none-eabi/12.2.1/thumb/v7-m/nofp/libgcc.a(_dvmd_tls.o)

.preinit_array  0x0000000008016318        0x0
                [!provide]                        PROVIDE (__preinit_array_start = .)
 *(.preinit_array*)
                [!provide]                        PROVIDE (__preinit_array_end = .)

.init_array     0x0000000008016318        0x0
                [!provide]                        PROVIDE (__init_array_start = .)
 *(SORT_BY_NAME(.init_array.*))
 *(.init_array*)
                [!provide]                        PROVIDE (__init_array_end = .)

.fini_array     0x0000000008016318        0x0
                [!provide]                        PROVIDE (__fini_array_start = .)
 *(.fini_array*)
 *(SORT_BY_NAME(.fini_array.*))
                [!provide]                        PROVIDE (__fini_array_end = .)
                0x0000000008016dcc                _sidata = .

.data           0x0000000020000000       0x1c load address 0x0000000008016dcc
                0x0000000020000000                . = ALIGN (0x4)
                0x0000000020000000                _sdata = .
 *(.data)
 .data          0x0000000020000000        0x0 build_gd32/startup_gd32f20x_cl.o
 .data          0x0000000020000000        0x0 build_gd32/Raw_webserver/src/fs.o
 .data          0x0000000020000000        0x0 build_gd32/Raw_webserver/src/gd32f20x_enet_eval.o
 .data          0x0000000020000000        0x0 build_gd32/Raw_webserver/src/gd32f20x_it.o
 .data          0x0000000020000000        0x8 build_gd32/Raw_webserver/src/http_adc_led.o
                0x0000000020000000                ssi_tag
                0x0000000020000004                http_adc_tag
 .data          0x0000000020000008        0x0 build_gd32/Raw_webserver/src/httpd.o
 .data          0x0000000020000008        0x0 build_gd32/Raw_webserver/src/main.o
 .data          0x0000000020000008        0x0 build_gd32/Raw_webserver/src/netconf.o
 .data          0x0000000020000008        0x0 build_gd32/Third_party/lwip-2.0.2/src/api/api_lib.o
 .data          0x0000000020000008        0x0 build_gd32/Third_party/lwip-2.0.2/src/api/api_msg.o
 .data          0x0000000020000008        0x0 build_gd32/Third_party/lwip-2.0.2/src/api/err.o
 .data          0x0000000020000008        0x0 build_gd32/Third_party/lwip-2.0.2/src/api/netbuf.o
 .data          0x0000000020000008        0x0 build_gd32/Third_party/lwip-2.0.2/src/api/netdb.o
 .data          0x0000000020000008        0x0 build_gd32/Third_party/lwip-2.0.2/src/api/netifapi.o
 .data          0x0000000020000008        0x0 build_gd32/Third_party/lwip-2.0.2/src/api/sockets.o
 .data          0x0000000020000008        0x0 build_gd32/Third_party/lwip-2.0.2/src/api/tcpip.o
 .data          0x0000000020000008        0x0 build_gd32/Third_party/lwip-2.0.2/src/core/def.o
 .data          0x0000000020000008        0x0 build_gd32/Third_party/lwip-2.0.2/src/core/dns.o
 .data          0x0000000020000008        0x0 build_gd32/Third_party/lwip-2.0.2/src/core/inet_chksum.o
 .data          0x0000000020000008        0x0 build_gd32/Third_party/lwip-2.0.2/src/core/init.o
 .data          0x0000000020000008        0x0 build_gd32/Third_party/lwip-2.0.2/src/core/ip.o
 .data          0x0000000020000008        0x0 build_gd32/Third_party/lwip-2.0.2/src/core/mem.o
 .data          0x0000000020000008        0x0 build_gd32/Third_party/lwip-2.0.2/src/core/memp.o
 .data          0x0000000020000008        0x0 build_gd32/Third_party/lwip-2.0.2/src/core/netif.o
 .data          0x0000000020000008        0x0 build_gd32/Third_party/lwip-2.0.2/src/core/pbuf.o
 .data          0x0000000020000008        0x0 build_gd32/Third_party/lwip-2.0.2/src/core/raw.o
 .data          0x0000000020000008        0x0 build_gd32/Third_party/lwip-2.0.2/src/core/stats.o
 .data          0x0000000020000008        0x0 build_gd32/Third_party/lwip-2.0.2/src/core/sys.o
 .data          0x0000000020000008        0x8 build_gd32/Third_party/lwip-2.0.2/src/core/tcp.o
 .data          0x0000000020000010        0x0 build_gd32/Third_party/lwip-2.0.2/src/core/tcp_in.o
 .data          0x0000000020000010        0x0 build_gd32/Third_party/lwip-2.0.2/src/core/tcp_out.o
 .data          0x0000000020000010        0x0 build_gd32/Third_party/lwip-2.0.2/src/core/timeouts.o
 .data          0x0000000020000010        0x2 build_gd32/Third_party/lwip-2.0.2/src/core/udp.o
 .data          0x0000000020000012        0x0 build_gd32/Third_party/lwip-2.0.2/src/core/ipv4/autoip.o
 *fill*         0x0000000020000012        0x2 
 .data          0x0000000020000014        0x4 build_gd32/Third_party/lwip-2.0.2/src/core/ipv4/dhcp.o
 .data          0x0000000020000018        0x0 build_gd32/Third_party/lwip-2.0.2/src/core/ipv4/etharp.o
 .data          0x0000000020000018        0x0 build_gd32/Third_party/lwip-2.0.2/src/core/ipv4/icmp.o
 .data          0x0000000020000018        0x0 build_gd32/Third_party/lwip-2.0.2/src/core/ipv4/igmp.o
 .data          0x0000000020000018        0x0 build_gd32/Third_party/lwip-2.0.2/src/core/ipv4/ip4_addr.o
 .data          0x0000000020000018        0x0 build_gd32/Third_party/lwip-2.0.2/src/core/ipv4/ip4.o
 .data          0x0000000020000018        0x0 build_gd32/Third_party/lwip-2.0.2/src/core/ipv4/ip4_frag.o
 .data          0x0000000020000018        0x0 build_gd32/Third_party/lwip-2.0.2/src/netif/ethernet.o
 .data          0x0000000020000018        0x0 build_gd32/Third_party/lwip-2.0.2/src/netif/ethernetif.o
 .data          0x0000000020000018        0x0 build_gd32/Third_party/lwip-2.0.2/src/netif/lowpan6.o
 .data          0x0000000020000018        0x0 build_gd32/Third_party/lwip-2.0.2/port/GD32F20x/Basic/ethernetif.o
 .data          0x0000000020000018        0x0 ../lib-GD32F207C_EVAL/lib_gd32/libGD32F207C_EVAL.a(gd32f207c_eval.o)
 .data          0x0000000020000018        0x4 ../lib-gd32f2xx/lib_gd32/libgd32f2xx.a(system_gd32f20x.o)
                0x0000000020000018                SystemCoreClock
 .data          0x000000002000001c        0x0 ../lib-gd32f2xx/lib_gd32/libgd32f2xx.a(gd32f20x_adc.o)
 .data          0x000000002000001c        0x0 ../lib-gd32f2xx/lib_gd32/libgd32f2xx.a(gd32f20x_enet.o)
 .data          0x000000002000001c        0x0 ../lib-gd32f2xx/lib_gd32/libgd32f2xx.a(gd32f20x_exti.o)
 .data          0x000000002000001c        0x0 ../lib-gd32f2xx/lib_gd32/libgd32f2xx.a(gd32f20x_gpio.o)
 .data          0x000000002000001c        0x0 ../lib-gd32f2xx/lib_gd32/libgd32f2xx.a(gd32f20x_misc.o)
 .data          0x000000002000001c        0x0 ../lib-gd32f2xx/lib_gd32/libgd32f2xx.a(gd32f20x_rcu.o)
 .data          0x000000002000001c        0x0 ../lib-gd32f2xx/lib_gd32/libgd32f2xx.a(gd32f20x_usart.o)
 .data          0x000000002000001c        0x0 ../lib-c/lib_gd32/libc.a(printf.o)
 .data          0x000000002000001c        0x0 /usr/lib/gcc/arm-none-eabi/12.2.1/thumb/v7-m/nofp/libgcc.a(_arm_mulsf3.o)
 .data          0x000000002000001c        0x0 /usr/lib/gcc/arm-none-eabi/12.2.1/thumb/v7-m/nofp/libgcc.a(_arm_truncdfsf2.o)
 .data          0x000000002000001c        0x0 /usr/lib/gcc/arm-none-eabi/12.2.1/thumb/v7-m/nofp/libgcc.a(_arm_addsubsf3.o)
 .data          0x000000002000001c        0x0 /usr/lib/gcc/arm-none-eabi/12.2.1/thumb/v7-m/nofp/libgcc.a(_arm_cmpsf2.o)
 .data          0x000000002000001c        0x0 /usr/lib/gcc/arm-none-eabi/12.2.1/thumb/v7-m/nofp/libgcc.a(_arm_fixsfsi.o)
 .data          0x000000002000001c        0x0 /usr/lib/gcc/arm-none-eabi/12.2.1/thumb/v7-m/nofp/libgcc.a(_aeabi_ldivmod.o)
 .data          0x000000002000001c        0x0 /usr/lib/gcc/arm-none-eabi/12.2.1/thumb/v7-m/nofp/libgcc.a(_aeabi_uldivmod.o)
 .data          0x000000002000001c        0x0 /usr/lib/gcc/arm-none-eabi/12.2.1/thumb/v7-m/nofp/libgcc.a(_udivmoddi4.o)
 .data          0x000000002000001c        0x0 /usr/lib/gcc/arm-none-eabi/12.2.1/thumb/v7-m/nofp/libgcc.a(_dvmd_tls.o)
 *(.data*)
                0x000000002000001c                . = ALIGN (0x4)
                0x000000002000001c                _edata = .

.igot.plt       0x000000002000001c        0x0 load address 0x0000000008016de8
 .igot.plt      0x000000002000001c        0x0 build_gd32/startup_gd32f20x_cl.o
                0x000000002000001c                . = ALIGN (0x4)

.bss            0x000000002000001c     0xda2c load address 0x0000000008016de8
                0x000000002000001c                _sbss = .
                0x000000002000001c                __bss_start__ = _sbss
 *(.bss)
 .bss           0x000000002000001c        0x0 build_gd32/startup_gd32f20x_cl.o
 .bss           0x000000002000001c        0x0 build_gd32/Raw_webserver/src/fs.o
 .bss           0x000000002000001c        0x4 build_gd32/Raw_webserver/src/gd32f20x_enet_eval.o
 .bss           0x0000000020000020        0x0 build_gd32/Raw_webserver/src/gd32f20x_it.o
 .bss           0x0000000020000020        0x8 build_gd32/Raw_webserver/src/http_adc_led.o
                0x0000000020000020                cgi_table
 .bss           0x0000000020000028      0x414 build_gd32/Raw_webserver/src/httpd.o
                0x0000000020000028                g_pfnSSIHandler
                0x000000002000002c                g_ppcTags
                0x0000000020000030                g_iNumTags
                0x0000000020000434                g_iNumCGIs
                0x0000000020000438                g_pCGIs
 .bss           0x000000002000043c        0x8 build_gd32/Raw_webserver/src/main.o
                0x000000002000043c                g_localtime
                0x0000000020000440                g_timedelay
 .bss           0x0000000020000444       0x4c build_gd32/Raw_webserver/src/netconf.o
                0x0000000020000444                g_mynetif
                0x0000000020000478                dhcp_state
                0x000000002000047c                ip_address
                0x0000000020000480                tcp_timer
                0x0000000020000484                arp_timer
                0x0000000020000488                dhcp_fine_timer
                0x000000002000048c                dhcp_coarse_timer
 .bss           0x0000000020000490        0x0 build_gd32/Third_party/lwip-2.0.2/src/api/api_lib.o
 .bss           0x0000000020000490        0x0 build_gd32/Third_party/lwip-2.0.2/src/api/api_msg.o
 .bss           0x0000000020000490        0x0 build_gd32/Third_party/lwip-2.0.2/src/api/err.o
 .bss           0x0000000020000490        0x0 build_gd32/Third_party/lwip-2.0.2/src/api/netbuf.o
 .bss           0x0000000020000490        0x0 build_gd32/Third_party/lwip-2.0.2/src/api/netdb.o
 .bss           0x0000000020000490        0x0 build_gd32/Third_party/lwip-2.0.2/src/api/netifapi.o
 .bss           0x0000000020000490        0x0 build_gd32/Third_party/lwip-2.0.2/src/api/sockets.o
 .bss           0x0000000020000490        0x0 build_gd32/Third_party/lwip-2.0.2/src/api/tcpip.o
 .bss           0x0000000020000490        0x0 build_gd32/Third_party/lwip-2.0.2/src/core/def.o
 .bss           0x0000000020000490        0x0 build_gd32/Third_party/lwip-2.0.2/src/core/dns.o
 .bss           0x0000000020000490        0x0 build_gd32/Third_party/lwip-2.0.2/src/core/inet_chksum.o
 .bss           0x0000000020000490        0x0 build_gd32/Third_party/lwip-2.0.2/src/core/init.o
 .bss           0x0000000020000490       0x18 build_gd32/Third_party/lwip-2.0.2/src/core/ip.o
                0x0000000020000490                ip_data
 .bss           0x00000000200004a8     0x501f build_gd32/Third_party/lwip-2.0.2/src/core/mem.o
                0x00000000200004b4                ram_heap
 *fill*         0x00000000200054c7        0x1 
 .bss           0x00000000200054c8     0x46b7 build_gd32/Third_party/lwip-2.0.2/src/core/memp.o
                0x00000000200054cc                memp_memory_PBUF_POOL_base
                0x000000002000900c                memp_memory_PBUF_base
                0x00000000200090b4                memp_memory_SYS_TIMEOUT_base
                0x000000002000915c                memp_memory_FRAG_PBUF_base
                0x00000000200092cc                memp_memory_REASSDATA_base
                0x0000000020009374                memp_memory_TCP_SEG_base
                0x000000002000943c                memp_memory_TCP_PCB_LISTEN_base
                0x00000000200094ec                memp_memory_TCP_PCB_base
                0x0000000020009abc                memp_memory_UDP_PCB_base
 *fill*         0x0000000020009b7f        0x1 
 .bss           0x0000000020009b80        0xc build_gd32/Third_party/lwip-2.0.2/src/core/netif.o
                0x0000000020009b80                netif_list
                0x0000000020009b88                netif_default
 .bss           0x0000000020009b8c        0x0 build_gd32/Third_party/lwip-2.0.2/src/core/pbuf.o
 .bss           0x0000000020009b8c        0x0 build_gd32/Third_party/lwip-2.0.2/src/core/raw.o
 .bss           0x0000000020009b8c        0x0 build_gd32/Third_party/lwip-2.0.2/src/core/stats.o
 .bss           0x0000000020009b8c        0x0 build_gd32/Third_party/lwip-2.0.2/src/core/sys.o
 .bss           0x0000000020009b8c       0x19 build_gd32/Third_party/lwip-2.0.2/src/core/tcp.o
                0x0000000020009b8c                tcp_bound_pcbs
                0x0000000020009b90                tcp_listen_pcbs
                0x0000000020009b94                tcp_active_pcbs
                0x0000000020009b98                tcp_ticks
                0x0000000020009b9d                tcp_active_pcbs_changed
                0x0000000020009ba0                tcp_tw_pcbs
 *fill*         0x0000000020009ba5        0x3 
 .bss           0x0000000020009ba8       0x3c build_gd32/Third_party/lwip-2.0.2/src/core/tcp_in.o
                0x0000000020009be0                tcp_input_pcb
 .bss           0x0000000020009be4        0x0 build_gd32/Third_party/lwip-2.0.2/src/core/tcp_out.o
 .bss           0x0000000020009be4        0xc build_gd32/Third_party/lwip-2.0.2/src/core/timeouts.o
 .bss           0x0000000020009bf0        0x4 build_gd32/Third_party/lwip-2.0.2/src/core/udp.o
                0x0000000020009bf0                udp_pcbs
 .bss           0x0000000020009bf4        0x0 build_gd32/Third_party/lwip-2.0.2/src/core/ipv4/autoip.o
 .bss           0x0000000020009bf4       0x30 build_gd32/Third_party/lwip-2.0.2/src/core/ipv4/dhcp.o
                0x0000000020009bf9                dhcp_rx_options_given
                0x0000000020009c04                dhcp_rx_options_val
 .bss           0x0000000020009c24       0xf1 build_gd32/Third_party/lwip-2.0.2/src/core/ipv4/etharp.o
 .bss           0x0000000020009d15        0x0 build_gd32/Third_party/lwip-2.0.2/src/core/ipv4/icmp.o
 .bss           0x0000000020009d15        0x0 build_gd32/Third_party/lwip-2.0.2/src/core/ipv4/igmp.o
 .bss           0x0000000020009d15       0x10 build_gd32/Third_party/lwip-2.0.2/src/core/ipv4/ip4_addr.o
 *fill*         0x0000000020009d25        0x1 
 .bss           0x0000000020009d26        0x2 build_gd32/Third_party/lwip-2.0.2/src/core/ipv4/ip4.o
 .bss           0x0000000020009d28        0x6 build_gd32/Third_party/lwip-2.0.2/src/core/ipv4/ip4_frag.o
 .bss           0x0000000020009d2e        0x0 build_gd32/Third_party/lwip-2.0.2/src/netif/ethernet.o
 .bss           0x0000000020009d2e        0x0 build_gd32/Third_party/lwip-2.0.2/src/netif/ethernetif.o
 .bss           0x0000000020009d2e        0x0 build_gd32/Third_party/lwip-2.0.2/src/netif/lowpan6.o
 *fill*         0x0000000020009d2e        0x2 
 .bss           0x0000000020009d30       0xa0 build_gd32/Third_party/lwip-2.0.2/port/GD32F20x/Basic/ethernetif.o
                0x0000000020009d30                ptp_rxstructure
                0x0000000020009d80                ptp_txstructure
 .bss           0x0000000020009dd0        0x0 ../lib-GD32F207C_EVAL/lib_gd32/libGD32F207C_EVAL.a(gd32f207c_eval.o)
 .bss           0x0000000020009dd0        0x0 ../lib-gd32f2xx/lib_gd32/libgd32f2xx.a(system_gd32f20x.o)
 .bss           0x0000000020009dd0        0x0 ../lib-gd32f2xx/lib_gd32/libgd32f2xx.a(gd32f20x_adc.o)
 .bss           0x0000000020009dd0     0x3c74 ../lib-gd32f2xx/lib_gd32/libgd32f2xx.a(gd32f20x_enet.o)
                0x0000000020009e0c                txdesc_tab
                0x0000000020009e5c                rxdesc_tab
                0x0000000020009eac                dma_current_txdesc
                0x0000000020009eb0                dma_current_rxdesc
                0x0000000020009eb4                dma_current_ptp_rxdesc
                0x0000000020009eb8                dma_current_ptp_txdesc
                0x0000000020009ebc                tx_buff
                0x000000002000bc80                rx_buff
 .bss           0x000000002000da44        0x0 ../lib-gd32f2xx/lib_gd32/libgd32f2xx.a(gd32f20x_exti.o)
 .bss           0x000000002000da44        0x0 ../lib-gd32f2xx/lib_gd32/libgd32f2xx.a(gd32f20x_gpio.o)
 .bss           0x000000002000da44        0x0 ../lib-gd32f2xx/lib_gd32/libgd32f2xx.a(gd32f20x_misc.o)
 .bss           0x000000002000da44        0x0 ../lib-gd32f2xx/lib_gd32/libgd32f2xx.a(gd32f20x_rcu.o)
 .bss           0x000000002000da44        0x0 ../lib-gd32f2xx/lib_gd32/libgd32f2xx.a(gd32f20x_usart.o)
 .bss           0x000000002000da44        0x4 ../lib-c/lib_gd32/libc.a(printf.o)
 .bss           0x000000002000da48        0x0 /usr/lib/gcc/arm-none-eabi/12.2.1/thumb/v7-m/nofp/libgcc.a(_arm_mulsf3.o)
 .bss           0x000000002000da48        0x0 /usr/lib/gcc/arm-none-eabi/12.2.1/thumb/v7-m/nofp/libgcc.a(_arm_truncdfsf2.o)
 .bss           0x000000002000da48        0x0 /usr/lib/gcc/arm-none-eabi/12.2.1/thumb/v7-m/nofp/libgcc.a(_arm_addsubsf3.o)
 .bss           0x000000002000da48        0x0 /usr/lib/gcc/arm-none-eabi/12.2.1/thumb/v7-m/nofp/libgcc.a(_arm_cmpsf2.o)
 .bss           0x000000002000da48        0x0 /usr/lib/gcc/arm-none-eabi/12.2.1/thumb/v7-m/nofp/libgcc.a(_arm_fixsfsi.o)
 .bss           0x000000002000da48        0x0 /usr/lib/gcc/arm-none-eabi/12.2.1/thumb/v7-m/nofp/libgcc.a(_aeabi_ldivmod.o)
 .bss           0x000000002000da48        0x0 /usr/lib/gcc/arm-none-eabi/12.2.1/thumb/v7-m/nofp/libgcc.a(_aeabi_uldivmod.o)
 .bss           0x000000002000da48        0x0 /usr/lib/gcc/arm-none-eabi/12.2.1/thumb/v7-m/nofp/libgcc.a(_udivmoddi4.o)
 .bss           0x000000002000da48        0x0 /usr/lib/gcc/arm-none-eabi/12.2.1/thumb/v7-m/nofp/libgcc.a(_dvmd_tls.o)
 *(.bss*)
 *(COMMON)
                0x000000002000da48                . = ALIGN (0x4)
                0x000000002000da48                _ebss = .
                0x000000002000da48                __bss_end__ = _ebss
                [!provide]                        PROVIDE (end = _ebss)
                [!provide]                        PROVIDE (_end = _ebss)

._user_heap_stack
                0x000000002000da48      0x200 load address 0x0000000008024814
                0x000000002000da48                . = ALIGN (0x4)
                0x000000002000da48                heap_low = .
                0x000000002000da48                . = (. + _Min_Heap_Size)
                0x000000002000da48                heap_top = .
                0x000000002000dc48                . = (. + _Min_Stack_Size)
 *fill*         0x000000002000da48      0x200 
                0x000000002000dc48                . = ALIGN (0x4)

/DISCARD/
 *(*.ARM.attributes)
 *(*.comment)
 *(*.debug*)
LOAD ../lib-GD32F207C_EVAL/lib_gd32/libGD32F207C_EVAL.a
LOAD ../lib-gd32f2xx/lib_gd32/libgd32f2xx.a
LOAD ../lib-c/lib_gd32/libc.a
LOAD /usr/lib/gcc/arm-none-eabi/12.2.1/thumb/v7-m/nofp/libgcc.a
OUTPUT(build_gd32/main.elf elf32-littlearm)
LOAD linker stubs
