In archive lib_gd32/libgd32f2xx.a:

system_gd32f20x.o:     file format elf32-littlearm


Disassembly of section .text:

00000000 <SystemInit>:
   0:	4b3a      	ldr	r3, [pc, #232]	; (ec <SystemInit+0xec>)
   2:	681a      	ldr	r2, [r3, #0]
   4:	f042 0201 	orr.w	r2, r2, #1
   8:	601a      	str	r2, [r3, #0]
   a:	6859      	ldr	r1, [r3, #4]
   c:	4a38      	ldr	r2, [pc, #224]	; (f0 <SystemInit+0xf0>)
   e:	400a      	ands	r2, r1
  10:	605a      	str	r2, [r3, #4]
  12:	681a      	ldr	r2, [r3, #0]
  14:	f44f 017f 	mov.w	r1, #16711680	; 0xff0000
  18:	f022 7284 	bic.w	r2, r2, #17301504	; 0x1080000
  1c:	f422 3280 	bic.w	r2, r2, #65536	; 0x10000
  20:	601a      	str	r2, [r3, #0]
  22:	681a      	ldr	r2, [r3, #0]
  24:	f422 2280 	bic.w	r2, r2, #262144	; 0x40000
  28:	601a      	str	r2, [r3, #0]
  2a:	685a      	ldr	r2, [r3, #4]
  2c:	f022 5203 	bic.w	r2, r2, #549453824	; 0x20c00000
  30:	f422 127c 	bic.w	r2, r2, #4128768	; 0x3f0000
  34:	605a      	str	r2, [r3, #4]
  36:	681a      	ldr	r2, [r3, #0]
  38:	f022 52a0 	bic.w	r2, r2, #335544320	; 0x14000000
  3c:	601a      	str	r2, [r3, #0]
  3e:	2200      	movs	r2, #0
  40:	62da      	str	r2, [r3, #44]	; 0x2c
  42:	6099      	str	r1, [r3, #8]
  44:	f8c3 2080 	str.w	r2, [r3, #128]	; 0x80
  48:	f8d3 2090 	ldr.w	r2, [r3, #144]	; 0x90
  4c:	f022 5280 	bic.w	r2, r2, #268435456	; 0x10000000
  50:	f8c3 2090 	str.w	r2, [r3, #144]	; 0x90
  54:	f44f 0280 	mov.w	r2, #4194304	; 0x400000
  58:	f8c3 2094 	str.w	r2, [r3, #148]	; 0x94
  5c:	4a25      	ldr	r2, [pc, #148]	; (f4 <SystemInit+0xf4>)
  5e:	f8c3 2098 	str.w	r2, [r3, #152]	; 0x98
  62:	681a      	ldr	r2, [r3, #0]
  64:	f442 3280 	orr.w	r2, r2, #65536	; 0x10000
  68:	601a      	str	r2, [r3, #0]
  6a:	f64f 72ff 	movw	r2, #65535	; 0xffff
  6e:	6819      	ldr	r1, [r3, #0]
  70:	0389      	lsls	r1, r1, #14
  72:	d401      	bmi.n	78 <SystemInit+0x78>
  74:	3a01      	subs	r2, #1
  76:	d1fa      	bne.n	6e <SystemInit+0x6e>
  78:	681a      	ldr	r2, [r3, #0]
  7a:	0392      	lsls	r2, r2, #14
  7c:	d400      	bmi.n	80 <SystemInit+0x80>
  7e:	e7fe      	b.n	7e <SystemInit+0x7e>
  80:	685a      	ldr	r2, [r3, #4]
  82:	605a      	str	r2, [r3, #4]
  84:	685a      	ldr	r2, [r3, #4]
  86:	605a      	str	r2, [r3, #4]
  88:	685a      	ldr	r2, [r3, #4]
  8a:	f442 6280 	orr.w	r2, r2, #1024	; 0x400
  8e:	605a      	str	r2, [r3, #4]
  90:	685a      	ldr	r2, [r3, #4]
  92:	f022 5200 	bic.w	r2, r2, #536870912	; 0x20000000
  96:	f422 127c 	bic.w	r2, r2, #4128768	; 0x3f0000
  9a:	605a      	str	r2, [r3, #4]
  9c:	685a      	ldr	r2, [r3, #4]
  9e:	f442 1204 	orr.w	r2, r2, #2162688	; 0x210000
  a2:	605a      	str	r2, [r3, #4]
  a4:	6ad9      	ldr	r1, [r3, #44]	; 0x2c
  a6:	4a14      	ldr	r2, [pc, #80]	; (f8 <SystemInit+0xf8>)
  a8:	400a      	ands	r2, r1
  aa:	62da      	str	r2, [r3, #44]	; 0x2c
  ac:	6ada      	ldr	r2, [r3, #44]	; 0x2c
  ae:	f442 3285 	orr.w	r2, r2, #68096	; 0x10a00
  b2:	f042 0244 	orr.w	r2, r2, #68	; 0x44
  b6:	62da      	str	r2, [r3, #44]	; 0x2c
  b8:	681a      	ldr	r2, [r3, #0]
  ba:	f042 6280 	orr.w	r2, r2, #67108864	; 0x4000000
  be:	601a      	str	r2, [r3, #0]
  c0:	681a      	ldr	r2, [r3, #0]
  c2:	0110      	lsls	r0, r2, #4
  c4:	d5fc      	bpl.n	c0 <SystemInit+0xc0>
  c6:	681a      	ldr	r2, [r3, #0]
  c8:	f042 7280 	orr.w	r2, r2, #16777216	; 0x1000000
  cc:	601a      	str	r2, [r3, #0]
  ce:	681a      	ldr	r2, [r3, #0]
  d0:	0191      	lsls	r1, r2, #6
  d2:	d5fc      	bpl.n	ce <SystemInit+0xce>
  d4:	685a      	ldr	r2, [r3, #4]
  d6:	f022 0203 	bic.w	r2, r2, #3
  da:	605a      	str	r2, [r3, #4]
  dc:	685a      	ldr	r2, [r3, #4]
  de:	f042 0202 	orr.w	r2, r2, #2
  e2:	605a      	str	r2, [r3, #4]
  e4:	685a      	ldr	r2, [r3, #4]
  e6:	0712      	lsls	r2, r2, #28
  e8:	d5fc      	bpl.n	e4 <SystemInit+0xe4>
  ea:	4770      	bx	lr
  ec:	40021000 	.word	0x40021000
  f0:	e0ff000c 	.word	0xe0ff000c
  f4:	20003010 	.word	0x20003010
  f8:	fffef000 	.word	0xfffef000

000000fc <SystemCoreClockUpdate>:
  fc:	4921      	ldr	r1, [pc, #132]	; (184 <SystemCoreClockUpdate+0x88>)
  fe:	b510      	push	{r4, lr}
 100:	684b      	ldr	r3, [r1, #4]
 102:	f3c3 0381 	ubfx	r3, r3, #2, #2
 106:	2b01      	cmp	r3, #1
 108:	d038      	beq.n	17c <SystemCoreClockUpdate+0x80>
 10a:	2b02      	cmp	r3, #2
 10c:	d138      	bne.n	180 <SystemCoreClockUpdate+0x84>
 10e:	684b      	ldr	r3, [r1, #4]
 110:	03d8      	lsls	r0, r3, #15
 112:	d523      	bpl.n	15c <SystemCoreClockUpdate+0x60>
 114:	6acb      	ldr	r3, [r1, #44]	; 0x2c
 116:	f413 3f80 	tst.w	r3, #65536	; 0x10000
 11a:	4b1b      	ldr	r3, [pc, #108]	; (188 <SystemCoreClockUpdate+0x8c>)
 11c:	d00e      	beq.n	13c <SystemCoreClockUpdate+0x40>
 11e:	6aca      	ldr	r2, [r1, #44]	; 0x2c
 120:	6ac8      	ldr	r0, [r1, #44]	; 0x2c
 122:	f3c2 1203 	ubfx	r2, r2, #4, #4
 126:	f3c0 2003 	ubfx	r0, r0, #8, #4
 12a:	3201      	adds	r2, #1
 12c:	280f      	cmp	r0, #15
 12e:	f100 0402 	add.w	r4, r0, #2
 132:	fbb3 f3f2 	udiv	r3, r3, r2
 136:	bf08      	it	eq
 138:	2414      	moveq	r4, #20
 13a:	4363      	muls	r3, r4
 13c:	6aca      	ldr	r2, [r1, #44]	; 0x2c
 13e:	f002 020f 	and.w	r2, r2, #15
 142:	3201      	adds	r2, #1
 144:	fbb3 f3f2 	udiv	r3, r3, r2
 148:	684a      	ldr	r2, [r1, #4]
 14a:	6849      	ldr	r1, [r1, #4]
 14c:	f3c2 4283 	ubfx	r2, r2, #18, #4
 150:	0089      	lsls	r1, r1, #2
 152:	d505      	bpl.n	160 <SystemCoreClockUpdate+0x64>
 154:	f042 0210 	orr.w	r2, r2, #16
 158:	3201      	adds	r2, #1
 15a:	e00d      	b.n	178 <SystemCoreClockUpdate+0x7c>
 15c:	4b0b      	ldr	r3, [pc, #44]	; (18c <SystemCoreClockUpdate+0x90>)
 15e:	e7f3      	b.n	148 <SystemCoreClockUpdate+0x4c>
 160:	2a0d      	cmp	r2, #13
 162:	d106      	bne.n	172 <SystemCoreClockUpdate+0x76>
 164:	2106      	movs	r1, #6
 166:	085a      	lsrs	r2, r3, #1
 168:	fb01 2303 	mla	r3, r1, r3, r2
 16c:	4a08      	ldr	r2, [pc, #32]	; (190 <SystemCoreClockUpdate+0x94>)
 16e:	6013      	str	r3, [r2, #0]
 170:	bd10      	pop	{r4, pc}
 172:	2a0f      	cmp	r2, #15
 174:	d0f0      	beq.n	158 <SystemCoreClockUpdate+0x5c>
 176:	3202      	adds	r2, #2
 178:	4353      	muls	r3, r2
 17a:	e7f7      	b.n	16c <SystemCoreClockUpdate+0x70>
 17c:	4b02      	ldr	r3, [pc, #8]	; (188 <SystemCoreClockUpdate+0x8c>)
 17e:	e7f5      	b.n	16c <SystemCoreClockUpdate+0x70>
 180:	4b04      	ldr	r3, [pc, #16]	; (194 <SystemCoreClockUpdate+0x98>)
 182:	e7f3      	b.n	16c <SystemCoreClockUpdate+0x70>
 184:	40021000 	.word	0x40021000
 188:	017d7840 	.word	0x017d7840
 18c:	003d0900 	.word	0x003d0900
 190:	00000000 	.word	0x00000000
 194:	007a1200 	.word	0x007a1200

gd32f20x_adc.o:     file format elf32-littlearm


Disassembly of section .text:

00000000 <adc_deinit>:
   0:	b508      	push	{r3, lr}
   2:	4b12      	ldr	r3, [pc, #72]	; (4c <adc_deinit+0x4c>)
   4:	4298      	cmp	r0, r3
   6:	d011      	beq.n	2c <adc_deinit+0x2c>
   8:	f503 53a0 	add.w	r3, r3, #5120	; 0x1400
   c:	4298      	cmp	r0, r3
   e:	d014      	beq.n	3a <adc_deinit+0x3a>
  10:	f5a3 53c0 	sub.w	r3, r3, #6144	; 0x1800
  14:	4298      	cmp	r0, r3
  16:	d117      	bne.n	48 <adc_deinit+0x48>
  18:	f240 3009 	movw	r0, #777	; 0x309
  1c:	f7ff fffe 	bl	0 <rcu_periph_reset_enable>
  20:	f240 3009 	movw	r0, #777	; 0x309
  24:	e8bd 4008 	ldmia.w	sp!, {r3, lr}
  28:	f7ff bffe 	b.w	0 <rcu_periph_reset_disable>
  2c:	f240 300a 	movw	r0, #778	; 0x30a
  30:	f7ff fffe 	bl	0 <rcu_periph_reset_enable>
  34:	f240 300a 	movw	r0, #778	; 0x30a
  38:	e7f4      	b.n	24 <adc_deinit+0x24>
  3a:	f240 300f 	movw	r0, #783	; 0x30f
  3e:	f7ff fffe 	bl	0 <rcu_periph_reset_enable>
  42:	f240 300f 	movw	r0, #783	; 0x30f
  46:	e7ed      	b.n	24 <adc_deinit+0x24>
  48:	bd08      	pop	{r3, pc}
  4a:	bf00      	nop
  4c:	40012800 	.word	0x40012800

00000050 <adc_mode_config>:
  50:	4b06      	ldr	r3, [pc, #24]	; (6c <adc_mode_config+0x1c>)
  52:	f8d3 2404 	ldr.w	r2, [r3, #1028]	; 0x404
  56:	f422 2270 	bic.w	r2, r2, #983040	; 0xf0000
  5a:	f8c3 2404 	str.w	r2, [r3, #1028]	; 0x404
  5e:	f8d3 2404 	ldr.w	r2, [r3, #1028]	; 0x404
  62:	4302      	orrs	r2, r0
  64:	f8c3 2404 	str.w	r2, [r3, #1028]	; 0x404
  68:	4770      	bx	lr
  6a:	bf00      	nop
  6c:	40012000 	.word	0x40012000

00000070 <adc_special_function_config>:
  70:	b510      	push	{r4, lr}
  72:	f401 7380 	and.w	r3, r1, #256	; 0x100
  76:	f401 6480 	and.w	r4, r1, #1024	; 0x400
  7a:	f001 0102 	and.w	r1, r1, #2
  7e:	b17a      	cbz	r2, a0 <adc_special_function_config+0x30>
  80:	b11b      	cbz	r3, 8a <adc_special_function_config+0x1a>
  82:	6843      	ldr	r3, [r0, #4]
  84:	f443 7380 	orr.w	r3, r3, #256	; 0x100
  88:	6043      	str	r3, [r0, #4]
  8a:	b11c      	cbz	r4, 94 <adc_special_function_config+0x24>
  8c:	6843      	ldr	r3, [r0, #4]
  8e:	f443 6380 	orr.w	r3, r3, #1024	; 0x400
  92:	6043      	str	r3, [r0, #4]
  94:	b119      	cbz	r1, 9e <adc_special_function_config+0x2e>
  96:	6883      	ldr	r3, [r0, #8]
  98:	f043 0302 	orr.w	r3, r3, #2
  9c:	6083      	str	r3, [r0, #8]
  9e:	bd10      	pop	{r4, pc}
  a0:	b11b      	cbz	r3, aa <adc_special_function_config+0x3a>
  a2:	6843      	ldr	r3, [r0, #4]
  a4:	f423 7380 	bic.w	r3, r3, #256	; 0x100
  a8:	6043      	str	r3, [r0, #4]
  aa:	b11c      	cbz	r4, b4 <adc_special_function_config+0x44>
  ac:	6843      	ldr	r3, [r0, #4]
  ae:	f423 6380 	bic.w	r3, r3, #1024	; 0x400
  b2:	6043      	str	r3, [r0, #4]
  b4:	2900      	cmp	r1, #0
  b6:	d0f2      	beq.n	9e <adc_special_function_config+0x2e>
  b8:	6883      	ldr	r3, [r0, #8]
  ba:	f023 0302 	bic.w	r3, r3, #2
  be:	e7ed      	b.n	9c <adc_special_function_config+0x2c>

000000c0 <adc_data_alignment_config>:
  c0:	6883      	ldr	r3, [r0, #8]
  c2:	b119      	cbz	r1, cc <adc_data_alignment_config+0xc>
  c4:	f443 6300 	orr.w	r3, r3, #2048	; 0x800
  c8:	6083      	str	r3, [r0, #8]
  ca:	4770      	bx	lr
  cc:	f423 6300 	bic.w	r3, r3, #2048	; 0x800
  d0:	e7fa      	b.n	c8 <adc_data_alignment_config+0x8>

000000d2 <adc_enable>:
  d2:	6883      	ldr	r3, [r0, #8]
  d4:	07db      	lsls	r3, r3, #31
  d6:	bf5e      	ittt	pl
  d8:	6883      	ldrpl	r3, [r0, #8]
  da:	f043 0301 	orrpl.w	r3, r3, #1
  de:	6083      	strpl	r3, [r0, #8]
  e0:	4770      	bx	lr

000000e2 <adc_disable>:
  e2:	6883      	ldr	r3, [r0, #8]
  e4:	f023 0301 	bic.w	r3, r3, #1
  e8:	6083      	str	r3, [r0, #8]
  ea:	4770      	bx	lr

000000ec <adc_calibration_enable>:
  ec:	6883      	ldr	r3, [r0, #8]
  ee:	f100 0208 	add.w	r2, r0, #8
  f2:	f043 0308 	orr.w	r3, r3, #8
  f6:	6083      	str	r3, [r0, #8]
  f8:	6813      	ldr	r3, [r2, #0]
  fa:	0719      	lsls	r1, r3, #28
  fc:	d4fc      	bmi.n	f8 <adc_calibration_enable+0xc>
  fe:	6883      	ldr	r3, [r0, #8]
 100:	f043 0304 	orr.w	r3, r3, #4
 104:	6083      	str	r3, [r0, #8]
 106:	6813      	ldr	r3, [r2, #0]
 108:	075b      	lsls	r3, r3, #29
 10a:	d4fc      	bmi.n	106 <adc_calibration_enable+0x1a>
 10c:	4770      	bx	lr

0000010e <adc_tempsensor_vrefint_enable>:
 10e:	4a04      	ldr	r2, [pc, #16]	; (120 <adc_tempsensor_vrefint_enable+0x12>)
 110:	f8d2 3408 	ldr.w	r3, [r2, #1032]	; 0x408
 114:	f443 0300 	orr.w	r3, r3, #8388608	; 0x800000
 118:	f8c2 3408 	str.w	r3, [r2, #1032]	; 0x408
 11c:	4770      	bx	lr
 11e:	bf00      	nop
 120:	40012000 	.word	0x40012000

00000124 <adc_tempsensor_vrefint_disable>:
 124:	4a03      	ldr	r2, [pc, #12]	; (134 <adc_tempsensor_vrefint_disable+0x10>)
 126:	f8d2 3408 	ldr.w	r3, [r2, #1032]	; 0x408
 12a:	f423 0300 	bic.w	r3, r3, #8388608	; 0x800000
 12e:	f8c2 3408 	str.w	r3, [r2, #1032]	; 0x408
 132:	4770      	bx	lr
 134:	40012000 	.word	0x40012000

00000138 <adc_dma_mode_enable>:
 138:	6883      	ldr	r3, [r0, #8]
 13a:	f443 7380 	orr.w	r3, r3, #256	; 0x100
 13e:	6083      	str	r3, [r0, #8]
 140:	4770      	bx	lr

00000142 <adc_dma_mode_disable>:
 142:	6883      	ldr	r3, [r0, #8]
 144:	f423 7380 	bic.w	r3, r3, #256	; 0x100
 148:	6083      	str	r3, [r0, #8]
 14a:	4770      	bx	lr

0000014c <adc_discontinuous_mode_config>:
 14c:	6843      	ldr	r3, [r0, #4]
 14e:	2901      	cmp	r1, #1
 150:	f423 53c0 	bic.w	r3, r3, #6144	; 0x1800
 154:	6043      	str	r3, [r0, #4]
 156:	d002      	beq.n	15e <adc_discontinuous_mode_config+0x12>
 158:	2902      	cmp	r1, #2
 15a:	d00f      	beq.n	17c <adc_discontinuous_mode_config+0x30>
 15c:	4770      	bx	lr
 15e:	6843      	ldr	r3, [r0, #4]
 160:	f423 4360 	bic.w	r3, r3, #57344	; 0xe000
 164:	6043      	str	r3, [r0, #4]
 166:	1e53      	subs	r3, r2, #1
 168:	6841      	ldr	r1, [r0, #4]
 16a:	035b      	lsls	r3, r3, #13
 16c:	b29b      	uxth	r3, r3
 16e:	430b      	orrs	r3, r1
 170:	6043      	str	r3, [r0, #4]
 172:	6843      	ldr	r3, [r0, #4]
 174:	f443 6300 	orr.w	r3, r3, #2048	; 0x800
 178:	6043      	str	r3, [r0, #4]
 17a:	4770      	bx	lr
 17c:	6843      	ldr	r3, [r0, #4]
 17e:	f443 5380 	orr.w	r3, r3, #4096	; 0x1000
 182:	e7f9      	b.n	178 <adc_discontinuous_mode_config+0x2c>

00000184 <adc_channel_length_config>:
 184:	2901      	cmp	r1, #1
 186:	d002      	beq.n	18e <adc_channel_length_config+0xa>
 188:	2902      	cmp	r1, #2
 18a:	d00c      	beq.n	1a6 <adc_channel_length_config+0x22>
 18c:	4770      	bx	lr
 18e:	6ac3      	ldr	r3, [r0, #44]	; 0x2c
 190:	3a01      	subs	r2, #1
 192:	f423 0370 	bic.w	r3, r3, #15728640	; 0xf00000
 196:	62c3      	str	r3, [r0, #44]	; 0x2c
 198:	6ac3      	ldr	r3, [r0, #44]	; 0x2c
 19a:	0512      	lsls	r2, r2, #20
 19c:	f402 0270 	and.w	r2, r2, #15728640	; 0xf00000
 1a0:	431a      	orrs	r2, r3
 1a2:	62c2      	str	r2, [r0, #44]	; 0x2c
 1a4:	4770      	bx	lr
 1a6:	6b83      	ldr	r3, [r0, #56]	; 0x38
 1a8:	3a01      	subs	r2, #1
 1aa:	f423 1340 	bic.w	r3, r3, #3145728	; 0x300000
 1ae:	6383      	str	r3, [r0, #56]	; 0x38
 1b0:	6b83      	ldr	r3, [r0, #56]	; 0x38
 1b2:	0512      	lsls	r2, r2, #20
 1b4:	f402 1240 	and.w	r2, r2, #3145728	; 0x300000
 1b8:	431a      	orrs	r2, r3
 1ba:	6382      	str	r2, [r0, #56]	; 0x38
 1bc:	4770      	bx	lr

000001be <adc_regular_channel_config>:
 1be:	2905      	cmp	r1, #5
 1c0:	b530      	push	{r4, r5, lr}
 1c2:	d818      	bhi.n	1f6 <adc_regular_channel_config+0x38>
 1c4:	251f      	movs	r5, #31
 1c6:	6b44      	ldr	r4, [r0, #52]	; 0x34
 1c8:	eb01 0181 	add.w	r1, r1, r1, lsl #2
 1cc:	408d      	lsls	r5, r1
 1ce:	ea24 0405 	bic.w	r4, r4, r5
 1d2:	fa02 f101 	lsl.w	r1, r2, r1
 1d6:	4321      	orrs	r1, r4
 1d8:	6341      	str	r1, [r0, #52]	; 0x34
 1da:	2a09      	cmp	r2, #9
 1dc:	d829      	bhi.n	232 <adc_regular_channel_config+0x74>
 1de:	2407      	movs	r4, #7
 1e0:	6901      	ldr	r1, [r0, #16]
 1e2:	eb02 0242 	add.w	r2, r2, r2, lsl #1
 1e6:	4094      	lsls	r4, r2
 1e8:	ea21 0104 	bic.w	r1, r1, r4
 1ec:	fa03 f202 	lsl.w	r2, r3, r2
 1f0:	430a      	orrs	r2, r1
 1f2:	6102      	str	r2, [r0, #16]
 1f4:	bd30      	pop	{r4, r5, pc}
 1f6:	290b      	cmp	r1, #11
 1f8:	d80c      	bhi.n	214 <adc_regular_channel_config+0x56>
 1fa:	251f      	movs	r5, #31
 1fc:	3906      	subs	r1, #6
 1fe:	6b04      	ldr	r4, [r0, #48]	; 0x30
 200:	eb01 0181 	add.w	r1, r1, r1, lsl #2
 204:	408d      	lsls	r5, r1
 206:	ea24 0405 	bic.w	r4, r4, r5
 20a:	fa02 f101 	lsl.w	r1, r2, r1
 20e:	4321      	orrs	r1, r4
 210:	6301      	str	r1, [r0, #48]	; 0x30
 212:	e7e2      	b.n	1da <adc_regular_channel_config+0x1c>
 214:	290f      	cmp	r1, #15
 216:	d8e0      	bhi.n	1da <adc_regular_channel_config+0x1c>
 218:	251f      	movs	r5, #31
 21a:	390c      	subs	r1, #12
 21c:	6ac4      	ldr	r4, [r0, #44]	; 0x2c
 21e:	eb01 0181 	add.w	r1, r1, r1, lsl #2
 222:	408d      	lsls	r5, r1
 224:	ea24 0405 	bic.w	r4, r4, r5
 228:	fa02 f101 	lsl.w	r1, r2, r1
 22c:	4321      	orrs	r1, r4
 22e:	62c1      	str	r1, [r0, #44]	; 0x2c
 230:	e7d3      	b.n	1da <adc_regular_channel_config+0x1c>
 232:	2a11      	cmp	r2, #17
 234:	d8de      	bhi.n	1f4 <adc_regular_channel_config+0x36>
 236:	2407      	movs	r4, #7
 238:	3a0a      	subs	r2, #10
 23a:	68c1      	ldr	r1, [r0, #12]
 23c:	eb02 0242 	add.w	r2, r2, r2, lsl #1
 240:	4094      	lsls	r4, r2
 242:	ea21 0104 	bic.w	r1, r1, r4
 246:	4093      	lsls	r3, r2
 248:	430b      	orrs	r3, r1
 24a:	60c3      	str	r3, [r0, #12]
 24c:	e7d2      	b.n	1f4 <adc_regular_channel_config+0x36>

0000024e <adc_inserted_channel_config>:
 24e:	b530      	push	{r4, r5, lr}
 250:	6b84      	ldr	r4, [r0, #56]	; 0x38
 252:	6b85      	ldr	r5, [r0, #56]	; 0x38
 254:	f3c4 5401 	ubfx	r4, r4, #20, #2
 258:	1a61      	subs	r1, r4, r1
 25a:	f06f 0404 	mvn.w	r4, #4
 25e:	4361      	muls	r1, r4
 260:	241f      	movs	r4, #31
 262:	310f      	adds	r1, #15
 264:	408c      	lsls	r4, r1
 266:	ea25 0504 	bic.w	r5, r5, r4
 26a:	fa02 f101 	lsl.w	r1, r2, r1
 26e:	4329      	orrs	r1, r5
 270:	2a09      	cmp	r2, #9
 272:	6381      	str	r1, [r0, #56]	; 0x38
 274:	d80b      	bhi.n	28e <adc_inserted_channel_config+0x40>
 276:	2407      	movs	r4, #7
 278:	6901      	ldr	r1, [r0, #16]
 27a:	eb02 0242 	add.w	r2, r2, r2, lsl #1
 27e:	4094      	lsls	r4, r2
 280:	ea21 0104 	bic.w	r1, r1, r4
 284:	fa03 f202 	lsl.w	r2, r3, r2
 288:	430a      	orrs	r2, r1
 28a:	6102      	str	r2, [r0, #16]
 28c:	bd30      	pop	{r4, r5, pc}
 28e:	2a11      	cmp	r2, #17
 290:	d8fc      	bhi.n	28c <adc_inserted_channel_config+0x3e>
 292:	2407      	movs	r4, #7
 294:	3a0a      	subs	r2, #10
 296:	68c1      	ldr	r1, [r0, #12]
 298:	eb02 0242 	add.w	r2, r2, r2, lsl #1
 29c:	4094      	lsls	r4, r2
 29e:	ea21 0104 	bic.w	r1, r1, r4
 2a2:	4093      	lsls	r3, r2
 2a4:	430b      	orrs	r3, r1
 2a6:	60c3      	str	r3, [r0, #12]
 2a8:	e7f0      	b.n	28c <adc_inserted_channel_config+0x3e>

000002aa <adc_inserted_channel_offset_config>:
 2aa:	6b83      	ldr	r3, [r0, #56]	; 0x38
 2ac:	3103      	adds	r1, #3
 2ae:	f3c3 5301 	ubfx	r3, r3, #20, #2
 2b2:	1ac9      	subs	r1, r1, r3
 2b4:	2903      	cmp	r1, #3
 2b6:	bf9e      	ittt	ls
 2b8:	3014      	addls	r0, #20
 2ba:	f3c2 020b 	ubfxls	r2, r2, #0, #12
 2be:	f840 2021 	strls.w	r2, [r0, r1, lsl #2]
 2c2:	4770      	bx	lr

000002c4 <adc_external_trigger_source_config>:
 2c4:	2901      	cmp	r1, #1
 2c6:	d002      	beq.n	2ce <adc_external_trigger_source_config+0xa>
 2c8:	2902      	cmp	r1, #2
 2ca:	d008      	beq.n	2de <adc_external_trigger_source_config+0x1a>
 2cc:	4770      	bx	lr
 2ce:	6883      	ldr	r3, [r0, #8]
 2d0:	f423 2360 	bic.w	r3, r3, #917504	; 0xe0000
 2d4:	6083      	str	r3, [r0, #8]
 2d6:	6883      	ldr	r3, [r0, #8]
 2d8:	4313      	orrs	r3, r2
 2da:	6083      	str	r3, [r0, #8]
 2dc:	4770      	bx	lr
 2de:	6883      	ldr	r3, [r0, #8]
 2e0:	f423 43e0 	bic.w	r3, r3, #28672	; 0x7000
 2e4:	e7f6      	b.n	2d4 <adc_external_trigger_source_config+0x10>

000002e6 <adc_external_trigger_config>:
 2e6:	f001 0301 	and.w	r3, r1, #1
 2ea:	f001 0102 	and.w	r1, r1, #2
 2ee:	b152      	cbz	r2, 306 <adc_external_trigger_config+0x20>
 2f0:	b11b      	cbz	r3, 2fa <adc_external_trigger_config+0x14>
 2f2:	6883      	ldr	r3, [r0, #8]
 2f4:	f443 1380 	orr.w	r3, r3, #1048576	; 0x100000
 2f8:	6083      	str	r3, [r0, #8]
 2fa:	b119      	cbz	r1, 304 <adc_external_trigger_config+0x1e>
 2fc:	6883      	ldr	r3, [r0, #8]
 2fe:	f443 4300 	orr.w	r3, r3, #32768	; 0x8000
 302:	6083      	str	r3, [r0, #8]
 304:	4770      	bx	lr
 306:	b11b      	cbz	r3, 310 <adc_external_trigger_config+0x2a>
 308:	6883      	ldr	r3, [r0, #8]
 30a:	f423 1380 	bic.w	r3, r3, #1048576	; 0x100000
 30e:	6083      	str	r3, [r0, #8]
 310:	2900      	cmp	r1, #0
 312:	d0f7      	beq.n	304 <adc_external_trigger_config+0x1e>
 314:	6883      	ldr	r3, [r0, #8]
 316:	f423 4300 	bic.w	r3, r3, #32768	; 0x8000
 31a:	e7f2      	b.n	302 <adc_external_trigger_config+0x1c>

0000031c <adc_software_trigger_enable>:
 31c:	07ca      	lsls	r2, r1, #31
 31e:	bf42      	ittt	mi
 320:	6883      	ldrmi	r3, [r0, #8]
 322:	f443 0380 	orrmi.w	r3, r3, #4194304	; 0x400000
 326:	6083      	strmi	r3, [r0, #8]
 328:	078b      	lsls	r3, r1, #30
 32a:	bf42      	ittt	mi
 32c:	6883      	ldrmi	r3, [r0, #8]
 32e:	f443 1300 	orrmi.w	r3, r3, #2097152	; 0x200000
 332:	6083      	strmi	r3, [r0, #8]
 334:	4770      	bx	lr

00000336 <adc_regular_data_read>:
 336:	6cc0      	ldr	r0, [r0, #76]	; 0x4c
 338:	b280      	uxth	r0, r0
 33a:	4770      	bx	lr

0000033c <adc_inserted_data_read>:
 33c:	2903      	cmp	r1, #3
 33e:	d80c      	bhi.n	35a <adc_inserted_data_read+0x1e>
 340:	e8df f001 	tbb	[pc, r1]
 344:	09070502 	.word	0x09070502
 348:	6bc0      	ldr	r0, [r0, #60]	; 0x3c
 34a:	b280      	uxth	r0, r0
 34c:	4770      	bx	lr
 34e:	6c00      	ldr	r0, [r0, #64]	; 0x40
 350:	e7fb      	b.n	34a <adc_inserted_data_read+0xe>
 352:	6c40      	ldr	r0, [r0, #68]	; 0x44
 354:	e7f9      	b.n	34a <adc_inserted_data_read+0xe>
 356:	6c80      	ldr	r0, [r0, #72]	; 0x48
 358:	e7f7      	b.n	34a <adc_inserted_data_read+0xe>
 35a:	2000      	movs	r0, #0
 35c:	e7f5      	b.n	34a <adc_inserted_data_read+0xe>

0000035e <adc_sync_mode_convert_value_read>:
 35e:	4b02      	ldr	r3, [pc, #8]	; (368 <adc_sync_mode_convert_value_read+0xa>)
 360:	f8d3 044c 	ldr.w	r0, [r3, #1100]	; 0x44c
 364:	4770      	bx	lr
 366:	bf00      	nop
 368:	40012000 	.word	0x40012000

0000036c <adc_watchdog_single_channel_enable>:
 36c:	6842      	ldr	r2, [r0, #4]
 36e:	4b06      	ldr	r3, [pc, #24]	; (388 <adc_watchdog_single_channel_enable+0x1c>)
 370:	4013      	ands	r3, r2
 372:	6043      	str	r3, [r0, #4]
 374:	6843      	ldr	r3, [r0, #4]
 376:	4319      	orrs	r1, r3
 378:	6041      	str	r1, [r0, #4]
 37a:	6843      	ldr	r3, [r0, #4]
 37c:	f443 0340 	orr.w	r3, r3, #12582912	; 0xc00000
 380:	f443 7300 	orr.w	r3, r3, #512	; 0x200
 384:	6043      	str	r3, [r0, #4]
 386:	4770      	bx	lr
 388:	ff3ffde0 	.word	0xff3ffde0

0000038c <adc_watchdog_group_channel_enable>:
 38c:	6843      	ldr	r3, [r0, #4]
 38e:	2902      	cmp	r1, #2
 390:	f423 0340 	bic.w	r3, r3, #12582912	; 0xc00000
 394:	f423 7300 	bic.w	r3, r3, #512	; 0x200
 398:	6043      	str	r3, [r0, #4]
 39a:	d008      	beq.n	3ae <adc_watchdog_group_channel_enable+0x22>
 39c:	2903      	cmp	r1, #3
 39e:	d00a      	beq.n	3b6 <adc_watchdog_group_channel_enable+0x2a>
 3a0:	2901      	cmp	r1, #1
 3a2:	d103      	bne.n	3ac <adc_watchdog_group_channel_enable+0x20>
 3a4:	6843      	ldr	r3, [r0, #4]
 3a6:	f443 0300 	orr.w	r3, r3, #8388608	; 0x800000
 3aa:	6043      	str	r3, [r0, #4]
 3ac:	4770      	bx	lr
 3ae:	6843      	ldr	r3, [r0, #4]
 3b0:	f443 0380 	orr.w	r3, r3, #4194304	; 0x400000
 3b4:	e7f9      	b.n	3aa <adc_watchdog_group_channel_enable+0x1e>
 3b6:	6843      	ldr	r3, [r0, #4]
 3b8:	f443 0340 	orr.w	r3, r3, #12582912	; 0xc00000
 3bc:	e7f5      	b.n	3aa <adc_watchdog_group_channel_enable+0x1e>

000003be <adc_watchdog_disable>:
 3be:	6842      	ldr	r2, [r0, #4]
 3c0:	4b01      	ldr	r3, [pc, #4]	; (3c8 <adc_watchdog_disable+0xa>)
 3c2:	4013      	ands	r3, r2
 3c4:	6043      	str	r3, [r0, #4]
 3c6:	4770      	bx	lr
 3c8:	ff3ffde0 	.word	0xff3ffde0

000003cc <adc_watchdog_threshold_config>:
 3cc:	f3c1 010b 	ubfx	r1, r1, #0, #12
 3d0:	f3c2 020b 	ubfx	r2, r2, #0, #12
 3d4:	6281      	str	r1, [r0, #40]	; 0x28
 3d6:	6242      	str	r2, [r0, #36]	; 0x24
 3d8:	4770      	bx	lr

000003da <adc_flag_get>:
 3da:	6803      	ldr	r3, [r0, #0]
 3dc:	420b      	tst	r3, r1
 3de:	bf14      	ite	ne
 3e0:	2001      	movne	r0, #1
 3e2:	2000      	moveq	r0, #0
 3e4:	4770      	bx	lr

000003e6 <adc_flag_clear>:
 3e6:	6803      	ldr	r3, [r0, #0]
 3e8:	ea23 0301 	bic.w	r3, r3, r1
 3ec:	6003      	str	r3, [r0, #0]
 3ee:	4770      	bx	lr

000003f0 <adc_interrupt_flag_get>:
 3f0:	2902      	cmp	r1, #2
 3f2:	d00b      	beq.n	40c <adc_interrupt_flag_get+0x1c>
 3f4:	2904      	cmp	r1, #4
 3f6:	d011      	beq.n	41c <adc_interrupt_flag_get+0x2c>
 3f8:	2901      	cmp	r1, #1
 3fa:	d117      	bne.n	42c <adc_interrupt_flag_get+0x3c>
 3fc:	6803      	ldr	r3, [r0, #0]
 3fe:	6840      	ldr	r0, [r0, #4]
 400:	f010 0040 	ands.w	r0, r0, #64	; 0x40
 404:	d013      	beq.n	42e <adc_interrupt_flag_get+0x3e>
 406:	f003 0001 	and.w	r0, r3, #1
 40a:	4770      	bx	lr
 40c:	6803      	ldr	r3, [r0, #0]
 40e:	6840      	ldr	r0, [r0, #4]
 410:	f010 0020 	ands.w	r0, r0, #32
 414:	d00b      	beq.n	42e <adc_interrupt_flag_get+0x3e>
 416:	f3c3 0040 	ubfx	r0, r3, #1, #1
 41a:	4770      	bx	lr
 41c:	6803      	ldr	r3, [r0, #0]
 41e:	6840      	ldr	r0, [r0, #4]
 420:	f010 0080 	ands.w	r0, r0, #128	; 0x80
 424:	d003      	beq.n	42e <adc_interrupt_flag_get+0x3e>
 426:	f3c3 0080 	ubfx	r0, r3, #2, #1
 42a:	4770      	bx	lr
 42c:	2000      	movs	r0, #0
 42e:	4770      	bx	lr

00000430 <adc_interrupt_flag_clear>:
 430:	f7ff bffe 	b.w	3e6 <adc_flag_clear>

00000434 <adc_interrupt_enable>:
 434:	07cb      	lsls	r3, r1, #31
 436:	bf42      	ittt	mi
 438:	6843      	ldrmi	r3, [r0, #4]
 43a:	f043 0340 	orrmi.w	r3, r3, #64	; 0x40
 43e:	6043      	strmi	r3, [r0, #4]
 440:	078a      	lsls	r2, r1, #30
 442:	bf42      	ittt	mi
 444:	6843      	ldrmi	r3, [r0, #4]
 446:	f043 0320 	orrmi.w	r3, r3, #32
 44a:	6043      	strmi	r3, [r0, #4]
 44c:	074b      	lsls	r3, r1, #29
 44e:	bf42      	ittt	mi
 450:	6843      	ldrmi	r3, [r0, #4]
 452:	f043 0380 	orrmi.w	r3, r3, #128	; 0x80
 456:	6043      	strmi	r3, [r0, #4]
 458:	4770      	bx	lr

0000045a <adc_interrupt_disable>:
 45a:	07cb      	lsls	r3, r1, #31
 45c:	bf42      	ittt	mi
 45e:	6843      	ldrmi	r3, [r0, #4]
 460:	f023 0340 	bicmi.w	r3, r3, #64	; 0x40
 464:	6043      	strmi	r3, [r0, #4]
 466:	078a      	lsls	r2, r1, #30
 468:	bf42      	ittt	mi
 46a:	6843      	ldrmi	r3, [r0, #4]
 46c:	f023 0320 	bicmi.w	r3, r3, #32
 470:	6043      	strmi	r3, [r0, #4]
 472:	074b      	lsls	r3, r1, #29
 474:	bf42      	ittt	mi
 476:	6843      	ldrmi	r3, [r0, #4]
 478:	f023 0380 	bicmi.w	r3, r3, #128	; 0x80
 47c:	6043      	strmi	r3, [r0, #4]
 47e:	4770      	bx	lr

00000480 <adc_resolution_config>:
 480:	f8d0 3080 	ldr.w	r3, [r0, #128]	; 0x80
 484:	f423 5340 	bic.w	r3, r3, #12288	; 0x3000
 488:	f8c0 3080 	str.w	r3, [r0, #128]	; 0x80
 48c:	f8d0 3080 	ldr.w	r3, [r0, #128]	; 0x80
 490:	430b      	orrs	r3, r1
 492:	f8c0 3080 	str.w	r3, [r0, #128]	; 0x80
 496:	4770      	bx	lr

00000498 <adc_oversample_mode_config>:
 498:	2901      	cmp	r1, #1
 49a:	f8d0 1080 	ldr.w	r1, [r0, #128]	; 0x80
 49e:	ea42 0203 	orr.w	r2, r2, r3
 4a2:	bf0c      	ite	eq
 4a4:	f441 7100 	orreq.w	r1, r1, #512	; 0x200
 4a8:	f421 7100 	bicne.w	r1, r1, #512	; 0x200
 4ac:	f8c0 1080 	str.w	r1, [r0, #128]	; 0x80
 4b0:	f8d0 1080 	ldr.w	r1, [r0, #128]	; 0x80
 4b4:	f421 71fe 	bic.w	r1, r1, #508	; 0x1fc
 4b8:	f8c0 1080 	str.w	r1, [r0, #128]	; 0x80
 4bc:	f8d0 1080 	ldr.w	r1, [r0, #128]	; 0x80
 4c0:	430a      	orrs	r2, r1
 4c2:	f8c0 2080 	str.w	r2, [r0, #128]	; 0x80
 4c6:	4770      	bx	lr

000004c8 <adc_oversample_mode_enable>:
 4c8:	f8d0 3080 	ldr.w	r3, [r0, #128]	; 0x80
 4cc:	f043 0301 	orr.w	r3, r3, #1
 4d0:	f8c0 3080 	str.w	r3, [r0, #128]	; 0x80
 4d4:	4770      	bx	lr

000004d6 <adc_oversample_mode_disable>:
 4d6:	f8d0 3080 	ldr.w	r3, [r0, #128]	; 0x80
 4da:	f023 0301 	bic.w	r3, r3, #1
 4de:	f8c0 3080 	str.w	r3, [r0, #128]	; 0x80
 4e2:	4770      	bx	lr

gd32f20x_bkp.o:     file format elf32-littlearm


Disassembly of section .text:

00000000 <bkp_deinit>:
   0:	b508      	push	{r3, lr}
   2:	f7ff fffe 	bl	0 <rcu_bkp_reset_enable>
   6:	e8bd 4008 	ldmia.w	sp!, {r3, lr}
   a:	f7ff bffe 	b.w	0 <rcu_bkp_reset_disable>

0000000e <bkp_data_write>:
   e:	f1a0 030b 	sub.w	r3, r0, #11
  12:	2b1f      	cmp	r3, #31
  14:	d804      	bhi.n	20 <bkp_data_write+0x12>
  16:	4b07      	ldr	r3, [pc, #28]	; (34 <bkp_data_write+0x26>)
  18:	4403      	add	r3, r0
  1a:	009b      	lsls	r3, r3, #2
  1c:	8019      	strh	r1, [r3, #0]
  1e:	4770      	bx	lr
  20:	1e43      	subs	r3, r0, #1
  22:	2b09      	cmp	r3, #9
  24:	bf9f      	itttt	ls
  26:	f100 5080 	addls.w	r0, r0, #268435456	; 0x10000000
  2a:	f500 50d8 	addls.w	r0, r0, #6912	; 0x1b00
  2e:	0080      	lslls	r0, r0, #2
  30:	8001      	strhls	r1, [r0, #0]
  32:	4770      	bx	lr
  34:	10001b05 	.word	0x10001b05

00000038 <bkp_data_read>:
  38:	f1a0 030b 	sub.w	r3, r0, #11
  3c:	2b1f      	cmp	r3, #31
  3e:	d805      	bhi.n	4c <bkp_data_read+0x14>
  40:	4b08      	ldr	r3, [pc, #32]	; (64 <bkp_data_read+0x2c>)
  42:	4403      	add	r3, r0
  44:	009b      	lsls	r3, r3, #2
  46:	8818      	ldrh	r0, [r3, #0]
  48:	b280      	uxth	r0, r0
  4a:	4770      	bx	lr
  4c:	1e43      	subs	r3, r0, #1
  4e:	2b09      	cmp	r3, #9
  50:	d806      	bhi.n	60 <bkp_data_read+0x28>
  52:	f100 5080 	add.w	r0, r0, #268435456	; 0x10000000
  56:	f500 50d8 	add.w	r0, r0, #6912	; 0x1b00
  5a:	0080      	lsls	r0, r0, #2
  5c:	8800      	ldrh	r0, [r0, #0]
  5e:	e7f3      	b.n	48 <bkp_data_read+0x10>
  60:	2000      	movs	r0, #0
  62:	4770      	bx	lr
  64:	10001b05 	.word	0x10001b05

00000068 <bkp_rtc_calibration_output_enable>:
  68:	4a03      	ldr	r2, [pc, #12]	; (78 <bkp_rtc_calibration_output_enable+0x10>)
  6a:	8d93      	ldrh	r3, [r2, #44]	; 0x2c
  6c:	b29b      	uxth	r3, r3
  6e:	f043 0380 	orr.w	r3, r3, #128	; 0x80
  72:	8593      	strh	r3, [r2, #44]	; 0x2c
  74:	4770      	bx	lr
  76:	bf00      	nop
  78:	40006c00 	.word	0x40006c00

0000007c <bkp_rtc_calibration_output_disable>:
  7c:	4a03      	ldr	r2, [pc, #12]	; (8c <bkp_rtc_calibration_output_disable+0x10>)
  7e:	8d93      	ldrh	r3, [r2, #44]	; 0x2c
  80:	f023 0380 	bic.w	r3, r3, #128	; 0x80
  84:	041b      	lsls	r3, r3, #16
  86:	0c1b      	lsrs	r3, r3, #16
  88:	8593      	strh	r3, [r2, #44]	; 0x2c
  8a:	4770      	bx	lr
  8c:	40006c00 	.word	0x40006c00

00000090 <bkp_rtc_signal_output_enable>:
  90:	4a03      	ldr	r2, [pc, #12]	; (a0 <bkp_rtc_signal_output_enable+0x10>)
  92:	8d93      	ldrh	r3, [r2, #44]	; 0x2c
  94:	b29b      	uxth	r3, r3
  96:	f443 7380 	orr.w	r3, r3, #256	; 0x100
  9a:	8593      	strh	r3, [r2, #44]	; 0x2c
  9c:	4770      	bx	lr
  9e:	bf00      	nop
  a0:	40006c00 	.word	0x40006c00

000000a4 <bkp_rtc_signal_output_disable>:
  a4:	4a03      	ldr	r2, [pc, #12]	; (b4 <bkp_rtc_signal_output_disable+0x10>)
  a6:	8d93      	ldrh	r3, [r2, #44]	; 0x2c
  a8:	f423 7380 	bic.w	r3, r3, #256	; 0x100
  ac:	041b      	lsls	r3, r3, #16
  ae:	0c1b      	lsrs	r3, r3, #16
  b0:	8593      	strh	r3, [r2, #44]	; 0x2c
  b2:	4770      	bx	lr
  b4:	40006c00 	.word	0x40006c00

000000b8 <bkp_rtc_output_select>:
  b8:	4a04      	ldr	r2, [pc, #16]	; (cc <bkp_rtc_output_select+0x14>)
  ba:	8d93      	ldrh	r3, [r2, #44]	; 0x2c
  bc:	f423 7300 	bic.w	r3, r3, #512	; 0x200
  c0:	041b      	lsls	r3, r3, #16
  c2:	0c1b      	lsrs	r3, r3, #16
  c4:	4303      	orrs	r3, r0
  c6:	8593      	strh	r3, [r2, #44]	; 0x2c
  c8:	4770      	bx	lr
  ca:	bf00      	nop
  cc:	40006c00 	.word	0x40006c00

000000d0 <bkp_rtc_clock_output_select>:
  d0:	4a04      	ldr	r2, [pc, #16]	; (e4 <bkp_rtc_clock_output_select+0x14>)
  d2:	8d93      	ldrh	r3, [r2, #44]	; 0x2c
  d4:	f423 4380 	bic.w	r3, r3, #16384	; 0x4000
  d8:	041b      	lsls	r3, r3, #16
  da:	0c1b      	lsrs	r3, r3, #16
  dc:	4303      	orrs	r3, r0
  de:	8593      	strh	r3, [r2, #44]	; 0x2c
  e0:	4770      	bx	lr
  e2:	bf00      	nop
  e4:	40006c00 	.word	0x40006c00

000000e8 <bkp_rtc_clock_calibration_direction>:
  e8:	4a03      	ldr	r2, [pc, #12]	; (f8 <bkp_rtc_clock_calibration_direction+0x10>)
  ea:	8d93      	ldrh	r3, [r2, #44]	; 0x2c
  ec:	f3c3 030e 	ubfx	r3, r3, #0, #15
  f0:	4303      	orrs	r3, r0
  f2:	8593      	strh	r3, [r2, #44]	; 0x2c
  f4:	4770      	bx	lr
  f6:	bf00      	nop
  f8:	40006c00 	.word	0x40006c00

000000fc <bkp_rtc_calibration_value_set>:
  fc:	4b02      	ldr	r3, [pc, #8]	; (108 <bkp_rtc_calibration_value_set+0xc>)
  fe:	f000 007f 	and.w	r0, r0, #127	; 0x7f
 102:	8d9a      	ldrh	r2, [r3, #44]	; 0x2c
 104:	8598      	strh	r0, [r3, #44]	; 0x2c
 106:	4770      	bx	lr
 108:	40006c00 	.word	0x40006c00

0000010c <bkp_tamper_detection_enable>:
 10c:	4a06      	ldr	r2, [pc, #24]	; (128 <bkp_tamper_detection_enable+0x1c>)
 10e:	b928      	cbnz	r0, 11c <bkp_tamper_detection_enable+0x10>
 110:	8e13      	ldrh	r3, [r2, #48]	; 0x30
 112:	b29b      	uxth	r3, r3
 114:	f043 0301 	orr.w	r3, r3, #1
 118:	8613      	strh	r3, [r2, #48]	; 0x30
 11a:	4770      	bx	lr
 11c:	8f13      	ldrh	r3, [r2, #56]	; 0x38
 11e:	b29b      	uxth	r3, r3
 120:	f443 7380 	orr.w	r3, r3, #256	; 0x100
 124:	8713      	strh	r3, [r2, #56]	; 0x38
 126:	4770      	bx	lr
 128:	40006c00 	.word	0x40006c00

0000012c <bkp_tamper_detection_disable>:
 12c:	4a07      	ldr	r2, [pc, #28]	; (14c <bkp_tamper_detection_disable+0x20>)
 12e:	b930      	cbnz	r0, 13e <bkp_tamper_detection_disable+0x12>
 130:	8e13      	ldrh	r3, [r2, #48]	; 0x30
 132:	f023 0301 	bic.w	r3, r3, #1
 136:	041b      	lsls	r3, r3, #16
 138:	0c1b      	lsrs	r3, r3, #16
 13a:	8613      	strh	r3, [r2, #48]	; 0x30
 13c:	4770      	bx	lr
 13e:	8f13      	ldrh	r3, [r2, #56]	; 0x38
 140:	f423 7380 	bic.w	r3, r3, #256	; 0x100
 144:	041b      	lsls	r3, r3, #16
 146:	0c1b      	lsrs	r3, r3, #16
 148:	8713      	strh	r3, [r2, #56]	; 0x38
 14a:	4770      	bx	lr
 14c:	40006c00 	.word	0x40006c00

00000150 <bkp_tamper_active_level_set>:
 150:	4a08      	ldr	r2, [pc, #32]	; (174 <bkp_tamper_active_level_set+0x24>)
 152:	b938      	cbnz	r0, 164 <bkp_tamper_active_level_set+0x14>
 154:	8e13      	ldrh	r3, [r2, #48]	; 0x30
 156:	f023 0302 	bic.w	r3, r3, #2
 15a:	041b      	lsls	r3, r3, #16
 15c:	0c1b      	lsrs	r3, r3, #16
 15e:	4319      	orrs	r1, r3
 160:	8611      	strh	r1, [r2, #48]	; 0x30
 162:	4770      	bx	lr
 164:	8f13      	ldrh	r3, [r2, #56]	; 0x38
 166:	f423 7300 	bic.w	r3, r3, #512	; 0x200
 16a:	041b      	lsls	r3, r3, #16
 16c:	0c1b      	lsrs	r3, r3, #16
 16e:	430b      	orrs	r3, r1
 170:	8713      	strh	r3, [r2, #56]	; 0x38
 172:	4770      	bx	lr
 174:	40006c00 	.word	0x40006c00

00000178 <bkp_tamper_interrupt_enable>:
 178:	4a05      	ldr	r2, [pc, #20]	; (190 <bkp_tamper_interrupt_enable+0x18>)
 17a:	8e93      	ldrh	r3, [r2, #52]	; 0x34
 17c:	b29b      	uxth	r3, r3
 17e:	b918      	cbnz	r0, 188 <bkp_tamper_interrupt_enable+0x10>
 180:	f043 0304 	orr.w	r3, r3, #4
 184:	8693      	strh	r3, [r2, #52]	; 0x34
 186:	4770      	bx	lr
 188:	f043 0380 	orr.w	r3, r3, #128	; 0x80
 18c:	e7fa      	b.n	184 <bkp_tamper_interrupt_enable+0xc>
 18e:	bf00      	nop
 190:	40006c00 	.word	0x40006c00

00000194 <bkp_tamper_interrupt_disable>:
 194:	4a05      	ldr	r2, [pc, #20]	; (1ac <bkp_tamper_interrupt_disable+0x18>)
 196:	8e93      	ldrh	r3, [r2, #52]	; 0x34
 198:	b928      	cbnz	r0, 1a6 <bkp_tamper_interrupt_disable+0x12>
 19a:	f023 0304 	bic.w	r3, r3, #4
 19e:	041b      	lsls	r3, r3, #16
 1a0:	0c1b      	lsrs	r3, r3, #16
 1a2:	8693      	strh	r3, [r2, #52]	; 0x34
 1a4:	4770      	bx	lr
 1a6:	f023 0380 	bic.w	r3, r3, #128	; 0x80
 1aa:	e7f8      	b.n	19e <bkp_tamper_interrupt_disable+0xa>
 1ac:	40006c00 	.word	0x40006c00

000001b0 <bkp_waveform_detect_enable>:
 1b0:	4b0e      	ldr	r3, [pc, #56]	; (1ec <bkp_waveform_detect_enable+0x3c>)
 1b2:	b530      	push	{r4, r5, lr}
 1b4:	8e1d      	ldrh	r5, [r3, #48]	; 0x30
 1b6:	8f1c      	ldrh	r4, [r3, #56]	; 0x38
 1b8:	8d9a      	ldrh	r2, [r3, #44]	; 0x2c
 1ba:	f025 0501 	bic.w	r5, r5, #1
 1be:	f424 7480 	bic.w	r4, r4, #256	; 0x100
 1c2:	f422 4280 	bic.w	r2, r2, #16384	; 0x4000
 1c6:	042d      	lsls	r5, r5, #16
 1c8:	0424      	lsls	r4, r4, #16
 1ca:	0412      	lsls	r2, r2, #16
 1cc:	0c12      	lsrs	r2, r2, #16
 1ce:	0c2d      	lsrs	r5, r5, #16
 1d0:	0c24      	lsrs	r4, r4, #16
 1d2:	861d      	strh	r5, [r3, #48]	; 0x30
 1d4:	871c      	strh	r4, [r3, #56]	; 0x38
 1d6:	859a      	strh	r2, [r3, #44]	; 0x2c
 1d8:	8f1a      	ldrh	r2, [r3, #56]	; 0x38
 1da:	b292      	uxth	r2, r2
 1dc:	b111      	cbz	r1, 1e4 <bkp_waveform_detect_enable+0x34>
 1de:	4310      	orrs	r0, r2
 1e0:	8718      	strh	r0, [r3, #56]	; 0x38
 1e2:	bd30      	pop	{r4, r5, pc}
 1e4:	ea22 0000 	bic.w	r0, r2, r0
 1e8:	e7fa      	b.n	1e0 <bkp_waveform_detect_enable+0x30>
 1ea:	bf00      	nop
 1ec:	40006c00 	.word	0x40006c00

000001f0 <bkp_flag_get>:
 1f0:	4b03      	ldr	r3, [pc, #12]	; (200 <bkp_flag_get+0x10>)
 1f2:	8e9b      	ldrh	r3, [r3, #52]	; 0x34
 1f4:	4218      	tst	r0, r3
 1f6:	bf14      	ite	ne
 1f8:	2001      	movne	r0, #1
 1fa:	2000      	moveq	r0, #0
 1fc:	4770      	bx	lr
 1fe:	bf00      	nop
 200:	40006c00 	.word	0x40006c00

00000204 <bkp_flag_clear>:
 204:	f5b0 7f80 	cmp.w	r0, #256	; 0x100
 208:	d106      	bne.n	218 <bkp_flag_clear+0x14>
 20a:	4a08      	ldr	r2, [pc, #32]	; (22c <bkp_flag_clear+0x28>)
 20c:	8e93      	ldrh	r3, [r2, #52]	; 0x34
 20e:	b29b      	uxth	r3, r3
 210:	f043 0301 	orr.w	r3, r3, #1
 214:	8693      	strh	r3, [r2, #52]	; 0x34
 216:	4770      	bx	lr
 218:	f5b0 4f80 	cmp.w	r0, #16384	; 0x4000
 21c:	d1fb      	bne.n	216 <bkp_flag_clear+0x12>
 21e:	4a03      	ldr	r2, [pc, #12]	; (22c <bkp_flag_clear+0x28>)
 220:	8e93      	ldrh	r3, [r2, #52]	; 0x34
 222:	b29b      	uxth	r3, r3
 224:	f043 0320 	orr.w	r3, r3, #32
 228:	e7f4      	b.n	214 <bkp_flag_clear+0x10>
 22a:	bf00      	nop
 22c:	40006c00 	.word	0x40006c00

00000230 <bkp_interrupt_flag_get>:
 230:	f7ff bffe 	b.w	1f0 <bkp_flag_get>

00000234 <bkp_interrupt_flag_clear>:
 234:	f5b0 7f00 	cmp.w	r0, #512	; 0x200
 238:	d106      	bne.n	248 <bkp_interrupt_flag_clear+0x14>
 23a:	4a08      	ldr	r2, [pc, #32]	; (25c <bkp_interrupt_flag_clear+0x28>)
 23c:	8e93      	ldrh	r3, [r2, #52]	; 0x34
 23e:	b29b      	uxth	r3, r3
 240:	f043 0302 	orr.w	r3, r3, #2
 244:	8693      	strh	r3, [r2, #52]	; 0x34
 246:	4770      	bx	lr
 248:	f5b0 4f00 	cmp.w	r0, #32768	; 0x8000
 24c:	d1fb      	bne.n	246 <bkp_interrupt_flag_clear+0x12>
 24e:	4a03      	ldr	r2, [pc, #12]	; (25c <bkp_interrupt_flag_clear+0x28>)
 250:	8e93      	ldrh	r3, [r2, #52]	; 0x34
 252:	b29b      	uxth	r3, r3
 254:	f043 0340 	orr.w	r3, r3, #64	; 0x40
 258:	e7f4      	b.n	244 <bkp_interrupt_flag_clear+0x10>
 25a:	bf00      	nop
 25c:	40006c00 	.word	0x40006c00

gd32f20x_can.o:     file format elf32-littlearm


Disassembly of section .text:

00000000 <can_deinit>:
   0:	b508      	push	{r3, lr}
   2:	4b0a      	ldr	r3, [pc, #40]	; (2c <can_deinit+0x2c>)
   4:	4298      	cmp	r0, r3
   6:	d109      	bne.n	1c <can_deinit+0x1c>
   8:	f240 4019 	movw	r0, #1049	; 0x419
   c:	f7ff fffe 	bl	0 <rcu_periph_reset_enable>
  10:	f240 4019 	movw	r0, #1049	; 0x419
  14:	e8bd 4008 	ldmia.w	sp!, {r3, lr}
  18:	f7ff bffe 	b.w	0 <rcu_periph_reset_disable>
  1c:	f240 401a 	movw	r0, #1050	; 0x41a
  20:	f7ff fffe 	bl	0 <rcu_periph_reset_enable>
  24:	f240 401a 	movw	r0, #1050	; 0x41a
  28:	e7f4      	b.n	14 <can_deinit+0x14>
  2a:	bf00      	nop
  2c:	40006400 	.word	0x40006400

00000030 <can_struct_para_init>:
  30:	2803      	cmp	r0, #3
  32:	d803      	bhi.n	3c <can_struct_para_init+0xc>
  34:	e8df f000 	tbb	[pc, r0]
  38:	21190e03 	.word	0x21190e03
  3c:	e7fe      	b.n	3c <can_struct_para_init+0xc>
  3e:	2300      	movs	r3, #0
  40:	2202      	movs	r2, #2
  42:	800b      	strh	r3, [r1, #0]
  44:	808b      	strh	r3, [r1, #4]
  46:	80cb      	strh	r3, [r1, #6]
  48:	810b      	strh	r3, [r1, #8]
  4a:	f240 33ff 	movw	r3, #1023	; 0x3ff
  4e:	804a      	strh	r2, [r1, #2]
  50:	814b      	strh	r3, [r1, #10]
  52:	4770      	bx	lr
  54:	2301      	movs	r3, #1
  56:	81cb      	strh	r3, [r1, #14]
  58:	2300      	movs	r3, #0
  5a:	740b      	strb	r3, [r1, #16]
  5c:	810b      	strh	r3, [r1, #8]
  5e:	800b      	strh	r3, [r1, #0]
  60:	804b      	strh	r3, [r1, #2]
  62:	808b      	strh	r3, [r1, #4]
  64:	80cb      	strh	r3, [r1, #6]
  66:	818b      	strh	r3, [r1, #12]
  68:	e7f2      	b.n	50 <can_struct_para_init+0x20>
  6a:	2300      	movs	r3, #0
  6c:	e9c1 3300 	strd	r3, r3, [r1]
  70:	e9c1 3302 	strd	r3, r3, [r1, #8]
  74:	820b      	strh	r3, [r1, #16]
  76:	748b      	strb	r3, [r1, #18]
  78:	4770      	bx	lr
  7a:	2300      	movs	r3, #0
  7c:	e9c1 3300 	strd	r3, r3, [r1]
  80:	e9c1 3302 	strd	r3, r3, [r1, #8]
  84:	610b      	str	r3, [r1, #16]
  86:	4770      	bx	lr

00000088 <can_init>:
  88:	6802      	ldr	r2, [r0, #0]
  8a:	b510      	push	{r4, lr}
  8c:	f022 0202 	bic.w	r2, r2, #2
  90:	6002      	str	r2, [r0, #0]
  92:	6802      	ldr	r2, [r0, #0]
  94:	4603      	mov	r3, r0
  96:	f042 0201 	orr.w	r2, r2, #1
  9a:	6002      	str	r2, [r0, #0]
  9c:	f44f 3280 	mov.w	r2, #65536	; 0x10000
  a0:	6858      	ldr	r0, [r3, #4]
  a2:	1d1c      	adds	r4, r3, #4
  a4:	07c0      	lsls	r0, r0, #31
  a6:	d55e      	bpl.n	166 <can_init+0xde>
  a8:	6858      	ldr	r0, [r3, #4]
  aa:	f010 0001 	ands.w	r0, r0, #1
  ae:	d059      	beq.n	164 <can_init+0xdc>
  b0:	784a      	ldrb	r2, [r1, #1]
  b2:	7888      	ldrb	r0, [r1, #2]
  b4:	0612      	lsls	r2, r2, #24
  b6:	0400      	lsls	r0, r0, #16
  b8:	f400 2070 	and.w	r0, r0, #983040	; 0xf0000
  bc:	f002 7240 	and.w	r2, r2, #50331648	; 0x3000000
  c0:	4302      	orrs	r2, r0
  c2:	7808      	ldrb	r0, [r1, #0]
  c4:	ea42 7280 	orr.w	r2, r2, r0, lsl #30
  c8:	78c8      	ldrb	r0, [r1, #3]
  ca:	0500      	lsls	r0, r0, #20
  cc:	f400 00e0 	and.w	r0, r0, #7340032	; 0x700000
  d0:	4302      	orrs	r2, r0
  d2:	8948      	ldrh	r0, [r1, #10]
  d4:	3801      	subs	r0, #1
  d6:	f3c0 0009 	ubfx	r0, r0, #0, #10
  da:	4302      	orrs	r2, r0
  dc:	61da      	str	r2, [r3, #28]
  de:	790a      	ldrb	r2, [r1, #4]
  e0:	f64f 70ff 	movw	r0, #65535	; 0xffff
  e4:	2a01      	cmp	r2, #1
  e6:	681a      	ldr	r2, [r3, #0]
  e8:	bf0c      	ite	eq
  ea:	f042 0280 	orreq.w	r2, r2, #128	; 0x80
  ee:	f022 0280 	bicne.w	r2, r2, #128	; 0x80
  f2:	601a      	str	r2, [r3, #0]
  f4:	794a      	ldrb	r2, [r1, #5]
  f6:	2a01      	cmp	r2, #1
  f8:	681a      	ldr	r2, [r3, #0]
  fa:	bf0c      	ite	eq
  fc:	f042 0240 	orreq.w	r2, r2, #64	; 0x40
 100:	f022 0240 	bicne.w	r2, r2, #64	; 0x40
 104:	601a      	str	r2, [r3, #0]
 106:	798a      	ldrb	r2, [r1, #6]
 108:	2a01      	cmp	r2, #1
 10a:	681a      	ldr	r2, [r3, #0]
 10c:	bf0c      	ite	eq
 10e:	f042 0220 	orreq.w	r2, r2, #32
 112:	f022 0220 	bicne.w	r2, r2, #32
 116:	601a      	str	r2, [r3, #0]
 118:	79ca      	ldrb	r2, [r1, #7]
 11a:	2a01      	cmp	r2, #1
 11c:	681a      	ldr	r2, [r3, #0]
 11e:	bf0c      	ite	eq
 120:	f042 0210 	orreq.w	r2, r2, #16
 124:	f022 0210 	bicne.w	r2, r2, #16
 128:	601a      	str	r2, [r3, #0]
 12a:	7a0a      	ldrb	r2, [r1, #8]
 12c:	2a01      	cmp	r2, #1
 12e:	681a      	ldr	r2, [r3, #0]
 130:	bf0c      	ite	eq
 132:	f042 0208 	orreq.w	r2, r2, #8
 136:	f022 0208 	bicne.w	r2, r2, #8
 13a:	601a      	str	r2, [r3, #0]
 13c:	7a4a      	ldrb	r2, [r1, #9]
 13e:	2a01      	cmp	r2, #1
 140:	681a      	ldr	r2, [r3, #0]
 142:	bf0c      	ite	eq
 144:	f042 0204 	orreq.w	r2, r2, #4
 148:	f022 0204 	bicne.w	r2, r2, #4
 14c:	601a      	str	r2, [r3, #0]
 14e:	681a      	ldr	r2, [r3, #0]
 150:	f022 0201 	bic.w	r2, r2, #1
 154:	601a      	str	r2, [r3, #0]
 156:	6823      	ldr	r3, [r4, #0]
 158:	07db      	lsls	r3, r3, #31
 15a:	d500      	bpl.n	15e <can_init+0xd6>
 15c:	b930      	cbnz	r0, 16c <can_init+0xe4>
 15e:	3800      	subs	r0, #0
 160:	bf18      	it	ne
 162:	2001      	movne	r0, #1
 164:	bd10      	pop	{r4, pc}
 166:	3a01      	subs	r2, #1
 168:	d19a      	bne.n	a0 <can_init+0x18>
 16a:	e79d      	b.n	a8 <can_init+0x20>
 16c:	3801      	subs	r0, #1
 16e:	e7f2      	b.n	156 <can_init+0xce>

00000170 <can_filter_init>:
 170:	2101      	movs	r1, #1
 172:	4a32      	ldr	r2, [pc, #200]	; (23c <can_filter_init+0xcc>)
 174:	b530      	push	{r4, r5, lr}
 176:	f8d2 4600 	ldr.w	r4, [r2, #1536]	; 0x600
 17a:	8943      	ldrh	r3, [r0, #10]
 17c:	f044 0401 	orr.w	r4, r4, #1
 180:	f8c2 4600 	str.w	r4, [r2, #1536]	; 0x600
 184:	f8d2 561c 	ldr.w	r5, [r2, #1564]	; 0x61c
 188:	4099      	lsls	r1, r3
 18a:	ea25 0501 	bic.w	r5, r5, r1
 18e:	f8c2 561c 	str.w	r5, [r2, #1564]	; 0x61c
 192:	89c5      	ldrh	r5, [r0, #14]
 194:	43cc      	mvns	r4, r1
 196:	2d00      	cmp	r5, #0
 198:	d132      	bne.n	200 <can_filter_init+0x90>
 19a:	f8d2 560c 	ldr.w	r5, [r2, #1548]	; 0x60c
 19e:	f103 6300 	add.w	r3, r3, #134217728	; 0x8000000
 1a2:	4025      	ands	r5, r4
 1a4:	f8c2 560c 	str.w	r5, [r2, #1548]	; 0x60c
 1a8:	88c5      	ldrh	r5, [r0, #6]
 1aa:	8842      	ldrh	r2, [r0, #2]
 1ac:	f603 43c8 	addw	r3, r3, #3272	; 0xcc8
 1b0:	ea42 4205 	orr.w	r2, r2, r5, lsl #16
 1b4:	00db      	lsls	r3, r3, #3
 1b6:	601a      	str	r2, [r3, #0]
 1b8:	8885      	ldrh	r5, [r0, #4]
 1ba:	8802      	ldrh	r2, [r0, #0]
 1bc:	ea42 4205 	orr.w	r2, r2, r5, lsl #16
 1c0:	605a      	str	r2, [r3, #4]
 1c2:	8982      	ldrh	r2, [r0, #12]
 1c4:	4b1d      	ldr	r3, [pc, #116]	; (23c <can_filter_init+0xcc>)
 1c6:	bb7a      	cbnz	r2, 228 <can_filter_init+0xb8>
 1c8:	f8d3 2604 	ldr.w	r2, [r3, #1540]	; 0x604
 1cc:	4022      	ands	r2, r4
 1ce:	f8c3 2604 	str.w	r2, [r3, #1540]	; 0x604
 1d2:	8902      	ldrh	r2, [r0, #8]
 1d4:	bb62      	cbnz	r2, 230 <can_filter_init+0xc0>
 1d6:	f8d3 2614 	ldr.w	r2, [r3, #1556]	; 0x614
 1da:	4014      	ands	r4, r2
 1dc:	f8c3 4614 	str.w	r4, [r3, #1556]	; 0x614
 1e0:	7c03      	ldrb	r3, [r0, #16]
 1e2:	2b01      	cmp	r3, #1
 1e4:	4b15      	ldr	r3, [pc, #84]	; (23c <can_filter_init+0xcc>)
 1e6:	bf02      	ittt	eq
 1e8:	f8d3 261c 	ldreq.w	r2, [r3, #1564]	; 0x61c
 1ec:	430a      	orreq	r2, r1
 1ee:	f8c3 261c 	streq.w	r2, [r3, #1564]	; 0x61c
 1f2:	f8d3 2600 	ldr.w	r2, [r3, #1536]	; 0x600
 1f6:	f022 0201 	bic.w	r2, r2, #1
 1fa:	f8c3 2600 	str.w	r2, [r3, #1536]	; 0x600
 1fe:	bd30      	pop	{r4, r5, pc}
 200:	2d01      	cmp	r5, #1
 202:	d1de      	bne.n	1c2 <can_filter_init+0x52>
 204:	f8d2 560c 	ldr.w	r5, [r2, #1548]	; 0x60c
 208:	f103 6300 	add.w	r3, r3, #134217728	; 0x8000000
 20c:	430d      	orrs	r5, r1
 20e:	f8c2 560c 	str.w	r5, [r2, #1548]	; 0x60c
 212:	8805      	ldrh	r5, [r0, #0]
 214:	8842      	ldrh	r2, [r0, #2]
 216:	f603 43c8 	addw	r3, r3, #3272	; 0xcc8
 21a:	ea42 4205 	orr.w	r2, r2, r5, lsl #16
 21e:	00db      	lsls	r3, r3, #3
 220:	601a      	str	r2, [r3, #0]
 222:	8885      	ldrh	r5, [r0, #4]
 224:	88c2      	ldrh	r2, [r0, #6]
 226:	e7c9      	b.n	1bc <can_filter_init+0x4c>
 228:	f8d3 2604 	ldr.w	r2, [r3, #1540]	; 0x604
 22c:	430a      	orrs	r2, r1
 22e:	e7ce      	b.n	1ce <can_filter_init+0x5e>
 230:	f8d3 2614 	ldr.w	r2, [r3, #1556]	; 0x614
 234:	430a      	orrs	r2, r1
 236:	f8c3 2614 	str.w	r2, [r3, #1556]	; 0x614
 23a:	e7d1      	b.n	1e0 <can_filter_init+0x70>
 23c:	40006000 	.word	0x40006000

00000240 <can1_filter_start_bank>:
 240:	4b0d      	ldr	r3, [pc, #52]	; (278 <can1_filter_start_bank+0x38>)
 242:	0200      	lsls	r0, r0, #8
 244:	f8d3 2600 	ldr.w	r2, [r3, #1536]	; 0x600
 248:	f400 507c 	and.w	r0, r0, #16128	; 0x3f00
 24c:	f042 0201 	orr.w	r2, r2, #1
 250:	f8c3 2600 	str.w	r2, [r3, #1536]	; 0x600
 254:	f8d3 2600 	ldr.w	r2, [r3, #1536]	; 0x600
 258:	f422 527c 	bic.w	r2, r2, #16128	; 0x3f00
 25c:	f8c3 2600 	str.w	r2, [r3, #1536]	; 0x600
 260:	f8d3 2600 	ldr.w	r2, [r3, #1536]	; 0x600
 264:	4310      	orrs	r0, r2
 266:	f8c3 0600 	str.w	r0, [r3, #1536]	; 0x600
 26a:	f8d3 2600 	ldr.w	r2, [r3, #1536]	; 0x600
 26e:	f022 0201 	bic.w	r2, r2, #1
 272:	f8c3 2600 	str.w	r2, [r3, #1536]	; 0x600
 276:	4770      	bx	lr
 278:	40006000 	.word	0x40006000

0000027c <can_debug_freeze_enable>:
 27c:	6803      	ldr	r3, [r0, #0]
 27e:	f443 3380 	orr.w	r3, r3, #65536	; 0x10000
 282:	6003      	str	r3, [r0, #0]
 284:	4b04      	ldr	r3, [pc, #16]	; (298 <can_debug_freeze_enable+0x1c>)
 286:	4298      	cmp	r0, r3
 288:	bf0c      	ite	eq
 28a:	f44f 4080 	moveq.w	r0, #16384	; 0x4000
 28e:	f44f 1000 	movne.w	r0, #2097152	; 0x200000
 292:	f7ff bffe 	b.w	0 <dbg_periph_enable>
 296:	bf00      	nop
 298:	40006400 	.word	0x40006400

0000029c <can_debug_freeze_disable>:
 29c:	6803      	ldr	r3, [r0, #0]
 29e:	f423 3380 	bic.w	r3, r3, #65536	; 0x10000
 2a2:	6003      	str	r3, [r0, #0]
 2a4:	4b04      	ldr	r3, [pc, #16]	; (2b8 <can_debug_freeze_disable+0x1c>)
 2a6:	4298      	cmp	r0, r3
 2a8:	bf0c      	ite	eq
 2aa:	f44f 4080 	moveq.w	r0, #16384	; 0x4000
 2ae:	f44f 1000 	movne.w	r0, #2097152	; 0x200000
 2b2:	f7ff bffe 	b.w	0 <dbg_periph_disable>
 2b6:	bf00      	nop
 2b8:	40006400 	.word	0x40006400

000002bc <can_time_trigger_mode_enable>:
 2bc:	6803      	ldr	r3, [r0, #0]
 2be:	f043 0380 	orr.w	r3, r3, #128	; 0x80
 2c2:	6003      	str	r3, [r0, #0]
 2c4:	f8d0 3184 	ldr.w	r3, [r0, #388]	; 0x184
 2c8:	f443 7380 	orr.w	r3, r3, #256	; 0x100
 2cc:	f8c0 3184 	str.w	r3, [r0, #388]	; 0x184
 2d0:	f8d0 3194 	ldr.w	r3, [r0, #404]	; 0x194
 2d4:	f443 7380 	orr.w	r3, r3, #256	; 0x100
 2d8:	f8c0 3194 	str.w	r3, [r0, #404]	; 0x194
 2dc:	f8d0 31a4 	ldr.w	r3, [r0, #420]	; 0x1a4
 2e0:	f443 7380 	orr.w	r3, r3, #256	; 0x100
 2e4:	f8c0 31a4 	str.w	r3, [r0, #420]	; 0x1a4
 2e8:	4770      	bx	lr

000002ea <can_time_trigger_mode_disable>:
 2ea:	6803      	ldr	r3, [r0, #0]
 2ec:	f023 0380 	bic.w	r3, r3, #128	; 0x80
 2f0:	6003      	str	r3, [r0, #0]
 2f2:	f8d0 3184 	ldr.w	r3, [r0, #388]	; 0x184
 2f6:	f423 7380 	bic.w	r3, r3, #256	; 0x100
 2fa:	f8c0 3184 	str.w	r3, [r0, #388]	; 0x184
 2fe:	f8d0 3194 	ldr.w	r3, [r0, #404]	; 0x194
 302:	f423 7380 	bic.w	r3, r3, #256	; 0x100
 306:	f8c0 3194 	str.w	r3, [r0, #404]	; 0x194
 30a:	f8d0 31a4 	ldr.w	r3, [r0, #420]	; 0x1a4
 30e:	f423 7380 	bic.w	r3, r3, #256	; 0x100
 312:	f8c0 31a4 	str.w	r3, [r0, #420]	; 0x1a4
 316:	4770      	bx	lr

00000318 <can_message_transmit>:
 318:	6882      	ldr	r2, [r0, #8]
 31a:	b570      	push	{r4, r5, r6, lr}
 31c:	0154      	lsls	r4, r2, #5
 31e:	4603      	mov	r3, r0
 320:	d434      	bmi.n	38c <can_message_transmit+0x74>
 322:	6882      	ldr	r2, [r0, #8]
 324:	0110      	lsls	r0, r2, #4
 326:	d433      	bmi.n	390 <can_message_transmit+0x78>
 328:	689a      	ldr	r2, [r3, #8]
 32a:	00d2      	lsls	r2, r2, #3
 32c:	d53c      	bpl.n	3a8 <can_message_transmit+0x90>
 32e:	2002      	movs	r0, #2
 330:	eb03 1300 	add.w	r3, r3, r0, lsl #4
 334:	f8d3 2180 	ldr.w	r2, [r3, #384]	; 0x180
 338:	f002 0201 	and.w	r2, r2, #1
 33c:	f8c3 2180 	str.w	r2, [r3, #384]	; 0x180
 340:	7a0a      	ldrb	r2, [r1, #8]
 342:	7a4c      	ldrb	r4, [r1, #9]
 344:	bb32      	cbnz	r2, 394 <can_message_transmit+0x7c>
 346:	680d      	ldr	r5, [r1, #0]
 348:	f8d3 2180 	ldr.w	r2, [r3, #384]	; 0x180
 34c:	ea44 5445 	orr.w	r4, r4, r5, lsl #21
 350:	4314      	orrs	r4, r2
 352:	f8c3 4180 	str.w	r4, [r3, #384]	; 0x180
 356:	f8d3 2184 	ldr.w	r2, [r3, #388]	; 0x184
 35a:	f022 020f 	bic.w	r2, r2, #15
 35e:	f8c3 2184 	str.w	r2, [r3, #388]	; 0x184
 362:	f8d3 4184 	ldr.w	r4, [r3, #388]	; 0x184
 366:	7a8a      	ldrb	r2, [r1, #10]
 368:	4322      	orrs	r2, r4
 36a:	f8c3 2184 	str.w	r2, [r3, #388]	; 0x184
 36e:	f8d1 200b 	ldr.w	r2, [r1, #11]
 372:	f8c3 2188 	str.w	r2, [r3, #392]	; 0x188
 376:	f8d1 200f 	ldr.w	r2, [r1, #15]
 37a:	f8c3 218c 	str.w	r2, [r3, #396]	; 0x18c
 37e:	f8d3 2180 	ldr.w	r2, [r3, #384]	; 0x180
 382:	f042 0201 	orr.w	r2, r2, #1
 386:	f8c3 2180 	str.w	r2, [r3, #384]	; 0x180
 38a:	bd70      	pop	{r4, r5, r6, pc}
 38c:	2000      	movs	r0, #0
 38e:	e7cf      	b.n	330 <can_message_transmit+0x18>
 390:	2001      	movs	r0, #1
 392:	e7cd      	b.n	330 <can_message_transmit+0x18>
 394:	684e      	ldr	r6, [r1, #4]
 396:	f8d3 5180 	ldr.w	r5, [r3, #384]	; 0x180
 39a:	ea42 02c6 	orr.w	r2, r2, r6, lsl #3
 39e:	4322      	orrs	r2, r4
 3a0:	432a      	orrs	r2, r5
 3a2:	f8c3 2180 	str.w	r2, [r3, #384]	; 0x180
 3a6:	e7d6      	b.n	356 <can_message_transmit+0x3e>
 3a8:	2003      	movs	r0, #3
 3aa:	e7ee      	b.n	38a <can_message_transmit+0x72>

000003ac <can_transmit_states>:
 3ac:	2901      	cmp	r1, #1
 3ae:	d00a      	beq.n	3c6 <can_transmit_states+0x1a>
 3b0:	2902      	cmp	r1, #2
 3b2:	d013      	beq.n	3dc <can_transmit_states+0x30>
 3b4:	b9c9      	cbnz	r1, 3ea <can_transmit_states+0x3e>
 3b6:	6882      	ldr	r2, [r0, #8]
 3b8:	4b0d      	ldr	r3, [pc, #52]	; (3f0 <can_transmit_states+0x44>)
 3ba:	ea02 0003 	and.w	r0, r2, r3
 3be:	4393      	bics	r3, r2
 3c0:	d107      	bne.n	3d2 <can_transmit_states+0x26>
 3c2:	2001      	movs	r0, #1
 3c4:	4770      	bx	lr
 3c6:	6880      	ldr	r0, [r0, #8]
 3c8:	4b0a      	ldr	r3, [pc, #40]	; (3f4 <can_transmit_states+0x48>)
 3ca:	4a09      	ldr	r2, [pc, #36]	; (3f0 <can_transmit_states+0x44>)
 3cc:	4018      	ands	r0, r3
 3ce:	4290      	cmp	r0, r2
 3d0:	d807      	bhi.n	3e2 <can_transmit_states+0x36>
 3d2:	fab0 f080 	clz	r0, r0
 3d6:	0940      	lsrs	r0, r0, #5
 3d8:	0040      	lsls	r0, r0, #1
 3da:	4770      	bx	lr
 3dc:	6880      	ldr	r0, [r0, #8]
 3de:	4b06      	ldr	r3, [pc, #24]	; (3f8 <can_transmit_states+0x4c>)
 3e0:	e7f3      	b.n	3ca <can_transmit_states+0x1e>
 3e2:	1ac3      	subs	r3, r0, r3
 3e4:	4258      	negs	r0, r3
 3e6:	4158      	adcs	r0, r3
 3e8:	4770      	bx	lr
 3ea:	2002      	movs	r0, #2
 3ec:	4770      	bx	lr
 3ee:	bf00      	nop
 3f0:	04000003 	.word	0x04000003
 3f4:	08000300 	.word	0x08000300
 3f8:	10030000 	.word	0x10030000

000003fc <can_transmission_stop>:
 3fc:	b949      	cbnz	r1, 412 <can_transmission_stop+0x16>
 3fe:	6883      	ldr	r3, [r0, #8]
 400:	f100 0208 	add.w	r2, r0, #8
 404:	f043 0380 	orr.w	r3, r3, #128	; 0x80
 408:	6083      	str	r3, [r0, #8]
 40a:	6813      	ldr	r3, [r2, #0]
 40c:	0618      	lsls	r0, r3, #24
 40e:	d4fc      	bmi.n	40a <can_transmission_stop+0xe>
 410:	4770      	bx	lr
 412:	2901      	cmp	r1, #1
 414:	d109      	bne.n	42a <can_transmission_stop+0x2e>
 416:	6883      	ldr	r3, [r0, #8]
 418:	f100 0208 	add.w	r2, r0, #8
 41c:	f443 4300 	orr.w	r3, r3, #32768	; 0x8000
 420:	6083      	str	r3, [r0, #8]
 422:	6813      	ldr	r3, [r2, #0]
 424:	0419      	lsls	r1, r3, #16
 426:	d4fc      	bmi.n	422 <can_transmission_stop+0x26>
 428:	4770      	bx	lr
 42a:	2902      	cmp	r1, #2
 42c:	d108      	bne.n	440 <can_transmission_stop+0x44>
 42e:	6883      	ldr	r3, [r0, #8]
 430:	f100 0208 	add.w	r2, r0, #8
 434:	f443 0300 	orr.w	r3, r3, #8388608	; 0x800000
 438:	6083      	str	r3, [r0, #8]
 43a:	6813      	ldr	r3, [r2, #0]
 43c:	021b      	lsls	r3, r3, #8
 43e:	d4fc      	bmi.n	43a <can_transmission_stop+0x3e>
 440:	4770      	bx	lr

00000442 <can_message_receive>:
 442:	eb00 1301 	add.w	r3, r0, r1, lsl #4
 446:	b510      	push	{r4, lr}
 448:	f8d3 41b0 	ldr.w	r4, [r3, #432]	; 0x1b0
 44c:	f004 0404 	and.w	r4, r4, #4
 450:	7214      	strb	r4, [r2, #8]
 452:	bbac      	cbnz	r4, 4c0 <can_message_receive+0x7e>
 454:	f8d3 41b0 	ldr.w	r4, [r3, #432]	; 0x1b0
 458:	0d64      	lsrs	r4, r4, #21
 45a:	6014      	str	r4, [r2, #0]
 45c:	f8d3 41b0 	ldr.w	r4, [r3, #432]	; 0x1b0
 460:	f004 0402 	and.w	r4, r4, #2
 464:	7254      	strb	r4, [r2, #9]
 466:	f8d3 41b4 	ldr.w	r4, [r3, #436]	; 0x1b4
 46a:	f004 040f 	and.w	r4, r4, #15
 46e:	7294      	strb	r4, [r2, #10]
 470:	f8d3 41b4 	ldr.w	r4, [r3, #436]	; 0x1b4
 474:	0a24      	lsrs	r4, r4, #8
 476:	74d4      	strb	r4, [r2, #19]
 478:	f8d3 41b8 	ldr.w	r4, [r3, #440]	; 0x1b8
 47c:	72d4      	strb	r4, [r2, #11]
 47e:	f8d3 41b8 	ldr.w	r4, [r3, #440]	; 0x1b8
 482:	0a24      	lsrs	r4, r4, #8
 484:	7314      	strb	r4, [r2, #12]
 486:	f8d3 41b8 	ldr.w	r4, [r3, #440]	; 0x1b8
 48a:	0c24      	lsrs	r4, r4, #16
 48c:	7354      	strb	r4, [r2, #13]
 48e:	f8d3 41b8 	ldr.w	r4, [r3, #440]	; 0x1b8
 492:	0e24      	lsrs	r4, r4, #24
 494:	7394      	strb	r4, [r2, #14]
 496:	f8d3 41bc 	ldr.w	r4, [r3, #444]	; 0x1bc
 49a:	73d4      	strb	r4, [r2, #15]
 49c:	f8d3 41bc 	ldr.w	r4, [r3, #444]	; 0x1bc
 4a0:	0a24      	lsrs	r4, r4, #8
 4a2:	7414      	strb	r4, [r2, #16]
 4a4:	f8d3 41bc 	ldr.w	r4, [r3, #444]	; 0x1bc
 4a8:	0c24      	lsrs	r4, r4, #16
 4aa:	7454      	strb	r4, [r2, #17]
 4ac:	f8d3 31bc 	ldr.w	r3, [r3, #444]	; 0x1bc
 4b0:	0e1b      	lsrs	r3, r3, #24
 4b2:	7493      	strb	r3, [r2, #18]
 4b4:	b949      	cbnz	r1, 4ca <can_message_receive+0x88>
 4b6:	68c3      	ldr	r3, [r0, #12]
 4b8:	f043 0320 	orr.w	r3, r3, #32
 4bc:	60c3      	str	r3, [r0, #12]
 4be:	bd10      	pop	{r4, pc}
 4c0:	f8d3 41b0 	ldr.w	r4, [r3, #432]	; 0x1b0
 4c4:	08e4      	lsrs	r4, r4, #3
 4c6:	6054      	str	r4, [r2, #4]
 4c8:	e7c8      	b.n	45c <can_message_receive+0x1a>
 4ca:	6903      	ldr	r3, [r0, #16]
 4cc:	f043 0320 	orr.w	r3, r3, #32
 4d0:	6103      	str	r3, [r0, #16]
 4d2:	e7f4      	b.n	4be <can_message_receive+0x7c>

000004d4 <can_fifo_release>:
 4d4:	b921      	cbnz	r1, 4e0 <can_fifo_release+0xc>
 4d6:	68c3      	ldr	r3, [r0, #12]
 4d8:	f043 0320 	orr.w	r3, r3, #32
 4dc:	60c3      	str	r3, [r0, #12]
 4de:	4770      	bx	lr
 4e0:	2901      	cmp	r1, #1
 4e2:	d104      	bne.n	4ee <can_fifo_release+0x1a>
 4e4:	6903      	ldr	r3, [r0, #16]
 4e6:	f043 0320 	orr.w	r3, r3, #32
 4ea:	6103      	str	r3, [r0, #16]
 4ec:	4770      	bx	lr
 4ee:	e7fe      	b.n	4ee <can_fifo_release+0x1a>

000004f0 <can_receive_message_length_get>:
 4f0:	b919      	cbnz	r1, 4fa <can_receive_message_length_get+0xa>
 4f2:	68c0      	ldr	r0, [r0, #12]
 4f4:	f000 0003 	and.w	r0, r0, #3
 4f8:	4770      	bx	lr
 4fa:	2901      	cmp	r1, #1
 4fc:	d101      	bne.n	502 <can_receive_message_length_get+0x12>
 4fe:	6900      	ldr	r0, [r0, #16]
 500:	e7f8      	b.n	4f4 <can_receive_message_length_get+0x4>
 502:	2000      	movs	r0, #0
 504:	4770      	bx	lr

00000506 <can_working_mode_set>:
 506:	2901      	cmp	r1, #1
 508:	d113      	bne.n	532 <can_working_mode_set+0x2c>
 50a:	6803      	ldr	r3, [r0, #0]
 50c:	f023 0302 	bic.w	r3, r3, #2
 510:	6003      	str	r3, [r0, #0]
 512:	6803      	ldr	r3, [r0, #0]
 514:	f043 0301 	orr.w	r3, r3, #1
 518:	6003      	str	r3, [r0, #0]
 51a:	f44f 3380 	mov.w	r3, #65536	; 0x10000
 51e:	6842      	ldr	r2, [r0, #4]
 520:	07d2      	lsls	r2, r2, #31
 522:	d503      	bpl.n	52c <can_working_mode_set+0x26>
 524:	6840      	ldr	r0, [r0, #4]
 526:	f000 0001 	and.w	r0, r0, #1
 52a:	4770      	bx	lr
 52c:	3b01      	subs	r3, #1
 52e:	d1f6      	bne.n	51e <can_working_mode_set+0x18>
 530:	e7f8      	b.n	524 <can_working_mode_set+0x1e>
 532:	2902      	cmp	r1, #2
 534:	d112      	bne.n	55c <can_working_mode_set+0x56>
 536:	6803      	ldr	r3, [r0, #0]
 538:	f023 0303 	bic.w	r3, r3, #3
 53c:	6003      	str	r3, [r0, #0]
 53e:	f44f 3380 	mov.w	r3, #65536	; 0x10000
 542:	6842      	ldr	r2, [r0, #4]
 544:	0791      	lsls	r1, r2, #30
 546:	d106      	bne.n	556 <can_working_mode_set+0x50>
 548:	6843      	ldr	r3, [r0, #4]
 54a:	f013 0f03 	tst.w	r3, #3
 54e:	bf0c      	ite	eq
 550:	2001      	moveq	r0, #1
 552:	2000      	movne	r0, #0
 554:	4770      	bx	lr
 556:	3b01      	subs	r3, #1
 558:	d1f3      	bne.n	542 <can_working_mode_set+0x3c>
 55a:	e7f5      	b.n	548 <can_working_mode_set+0x42>
 55c:	2904      	cmp	r1, #4
 55e:	d113      	bne.n	588 <can_working_mode_set+0x82>
 560:	6803      	ldr	r3, [r0, #0]
 562:	f023 0301 	bic.w	r3, r3, #1
 566:	6003      	str	r3, [r0, #0]
 568:	6803      	ldr	r3, [r0, #0]
 56a:	f043 0302 	orr.w	r3, r3, #2
 56e:	6003      	str	r3, [r0, #0]
 570:	f44f 3380 	mov.w	r3, #65536	; 0x10000
 574:	6842      	ldr	r2, [r0, #4]
 576:	0792      	lsls	r2, r2, #30
 578:	d503      	bpl.n	582 <can_working_mode_set+0x7c>
 57a:	6840      	ldr	r0, [r0, #4]
 57c:	f3c0 0040 	ubfx	r0, r0, #1, #1
 580:	4770      	bx	lr
 582:	3b01      	subs	r3, #1
 584:	d1f6      	bne.n	574 <can_working_mode_set+0x6e>
 586:	e7f8      	b.n	57a <can_working_mode_set+0x74>
 588:	2000      	movs	r0, #0
 58a:	4770      	bx	lr

0000058c <can_wakeup>:
 58c:	6803      	ldr	r3, [r0, #0]
 58e:	f023 0302 	bic.w	r3, r3, #2
 592:	6003      	str	r3, [r0, #0]
 594:	f44f 3380 	mov.w	r3, #65536	; 0x10000
 598:	6842      	ldr	r2, [r0, #4]
 59a:	0792      	lsls	r2, r2, #30
 59c:	d501      	bpl.n	5a2 <can_wakeup+0x16>
 59e:	3b01      	subs	r3, #1
 5a0:	d1fa      	bne.n	598 <can_wakeup+0xc>
 5a2:	6840      	ldr	r0, [r0, #4]
 5a4:	f080 0002 	eor.w	r0, r0, #2
 5a8:	f3c0 0040 	ubfx	r0, r0, #1, #1
 5ac:	4770      	bx	lr

000005ae <can_error_get>:
 5ae:	6980      	ldr	r0, [r0, #24]
 5b0:	f3c0 1002 	ubfx	r0, r0, #4, #3
 5b4:	4770      	bx	lr

000005b6 <can_receive_error_number_get>:
 5b6:	6980      	ldr	r0, [r0, #24]
 5b8:	0e00      	lsrs	r0, r0, #24
 5ba:	4770      	bx	lr

000005bc <can_transmit_error_number_get>:
 5bc:	6980      	ldr	r0, [r0, #24]
 5be:	f3c0 4007 	ubfx	r0, r0, #16, #8
 5c2:	4770      	bx	lr

000005c4 <can_interrupt_enable>:
 5c4:	6943      	ldr	r3, [r0, #20]
 5c6:	430b      	orrs	r3, r1
 5c8:	6143      	str	r3, [r0, #20]
 5ca:	4770      	bx	lr

000005cc <can_interrupt_disable>:
 5cc:	6943      	ldr	r3, [r0, #20]
 5ce:	ea23 0301 	bic.w	r3, r3, r1
 5d2:	6143      	str	r3, [r0, #20]
 5d4:	4770      	bx	lr

000005d6 <can_flag_get>:
 5d6:	098b      	lsrs	r3, r1, #6
 5d8:	5818      	ldr	r0, [r3, r0]
 5da:	f001 011f 	and.w	r1, r1, #31
 5de:	40c8      	lsrs	r0, r1
 5e0:	f000 0001 	and.w	r0, r0, #1
 5e4:	4770      	bx	lr

000005e6 <can_flag_clear>:
 5e6:	f240 4304 	movw	r3, #1028	; 0x404
 5ea:	4299      	cmp	r1, r3
 5ec:	d102      	bne.n	5f4 <can_flag_clear+0xe>
 5ee:	2300      	movs	r3, #0
 5f0:	6103      	str	r3, [r0, #16]
 5f2:	4770      	bx	lr
 5f4:	f240 4303 	movw	r3, #1027	; 0x403
 5f8:	4299      	cmp	r1, r3
 5fa:	d101      	bne.n	600 <can_flag_clear+0x1a>
 5fc:	2318      	movs	r3, #24
 5fe:	e7f7      	b.n	5f0 <can_flag_clear+0xa>
 600:	2301      	movs	r3, #1
 602:	098a      	lsrs	r2, r1, #6
 604:	f001 011f 	and.w	r1, r1, #31
 608:	408b      	lsls	r3, r1
 60a:	5013      	str	r3, [r2, r0]
 60c:	4770      	bx	lr

0000060e <can_interrupt_flag_get>:
 60e:	f24c 0281 	movw	r2, #49281	; 0xc081
 612:	4291      	cmp	r1, r2
 614:	4603      	mov	r3, r0
 616:	b510      	push	{r4, lr}
 618:	d10d      	bne.n	636 <can_interrupt_flag_get+0x28>
 61a:	68c0      	ldr	r0, [r0, #12]
 61c:	f000 0003 	and.w	r0, r0, #3
 620:	695a      	ldr	r2, [r3, #20]
 622:	b138      	cbz	r0, 634 <can_interrupt_flag_get+0x26>
 624:	2301      	movs	r3, #1
 626:	f001 011f 	and.w	r1, r1, #31
 62a:	408b      	lsls	r3, r1
 62c:	4213      	tst	r3, r2
 62e:	bf14      	ite	ne
 630:	2001      	movne	r0, #1
 632:	2000      	moveq	r0, #0
 634:	bd10      	pop	{r4, pc}
 636:	4a09      	ldr	r2, [pc, #36]	; (65c <can_interrupt_flag_get+0x4e>)
 638:	4291      	cmp	r1, r2
 63a:	d101      	bne.n	640 <can_interrupt_flag_get+0x32>
 63c:	6900      	ldr	r0, [r0, #16]
 63e:	e7ed      	b.n	61c <can_interrupt_flag_get+0xe>
 640:	4a07      	ldr	r2, [pc, #28]	; (660 <can_interrupt_flag_get+0x52>)
 642:	4291      	cmp	r1, r2
 644:	d102      	bne.n	64c <can_interrupt_flag_get+0x3e>
 646:	f7ff fffe 	bl	5ae <can_error_get>
 64a:	e7e9      	b.n	620 <can_interrupt_flag_get+0x12>
 64c:	0b0a      	lsrs	r2, r1, #12
 64e:	5812      	ldr	r2, [r2, r0]
 650:	2001      	movs	r0, #1
 652:	f3c1 1484 	ubfx	r4, r1, #6, #5
 656:	40a0      	lsls	r0, r4
 658:	4010      	ands	r0, r2
 65a:	e7e1      	b.n	620 <can_interrupt_flag_get+0x12>
 65c:	00010084 	.word	0x00010084
 660:	000180cb 	.word	0x000180cb

00000664 <can_interrupt_flag_clear>:
 664:	4b08      	ldr	r3, [pc, #32]	; (688 <can_interrupt_flag_clear+0x24>)
 666:	4299      	cmp	r1, r3
 668:	d102      	bne.n	670 <can_interrupt_flag_clear+0xc>
 66a:	2300      	movs	r3, #0
 66c:	6103      	str	r3, [r0, #16]
 66e:	4770      	bx	lr
 670:	4b06      	ldr	r3, [pc, #24]	; (68c <can_interrupt_flag_clear+0x28>)
 672:	4299      	cmp	r1, r3
 674:	d101      	bne.n	67a <can_interrupt_flag_clear+0x16>
 676:	2318      	movs	r3, #24
 678:	e7f8      	b.n	66c <can_interrupt_flag_clear+0x8>
 67a:	2301      	movs	r3, #1
 67c:	0b0a      	lsrs	r2, r1, #12
 67e:	f3c1 1184 	ubfx	r1, r1, #6, #5
 682:	408b      	lsls	r3, r1
 684:	5013      	str	r3, [r2, r0]
 686:	4770      	bx	lr
 688:	00010106 	.word	0x00010106
 68c:	000100c5 	.word	0x000100c5

gd32f20x_cau_aes.o:     file format elf32-littlearm


Disassembly of section .text:

00000000 <cau_aes_key_config>:
   0:	29c0      	cmp	r1, #192	; 0xc0
   2:	b538      	push	{r3, r4, r5, lr}
   4:	4605      	mov	r5, r0
   6:	4614      	mov	r4, r2
   8:	d014      	beq.n	34 <cau_aes_key_config+0x34>
   a:	f5b1 7f80 	cmp.w	r1, #256	; 0x100
   e:	d026      	beq.n	5e <cau_aes_key_config+0x5e>
  10:	2980      	cmp	r1, #128	; 0x80
  12:	d10e      	bne.n	32 <cau_aes_key_config+0x32>
  14:	2000      	movs	r0, #0
  16:	f7ff fffe 	bl	0 <cau_aes_keysize_config>
  1a:	682b      	ldr	r3, [r5, #0]
  1c:	ba1b      	rev	r3, r3
  1e:	6123      	str	r3, [r4, #16]
  20:	686b      	ldr	r3, [r5, #4]
  22:	ba1b      	rev	r3, r3
  24:	6163      	str	r3, [r4, #20]
  26:	68ab      	ldr	r3, [r5, #8]
  28:	ba1b      	rev	r3, r3
  2a:	61a3      	str	r3, [r4, #24]
  2c:	68eb      	ldr	r3, [r5, #12]
  2e:	ba1b      	rev	r3, r3
  30:	61e3      	str	r3, [r4, #28]
  32:	bd38      	pop	{r3, r4, r5, pc}
  34:	f44f 7080 	mov.w	r0, #256	; 0x100
  38:	f7ff fffe 	bl	0 <cau_aes_keysize_config>
  3c:	682b      	ldr	r3, [r5, #0]
  3e:	ba1b      	rev	r3, r3
  40:	60a3      	str	r3, [r4, #8]
  42:	686b      	ldr	r3, [r5, #4]
  44:	ba1b      	rev	r3, r3
  46:	60e3      	str	r3, [r4, #12]
  48:	68ab      	ldr	r3, [r5, #8]
  4a:	ba1b      	rev	r3, r3
  4c:	6123      	str	r3, [r4, #16]
  4e:	68eb      	ldr	r3, [r5, #12]
  50:	ba1b      	rev	r3, r3
  52:	6163      	str	r3, [r4, #20]
  54:	692b      	ldr	r3, [r5, #16]
  56:	ba1b      	rev	r3, r3
  58:	61a3      	str	r3, [r4, #24]
  5a:	696b      	ldr	r3, [r5, #20]
  5c:	e7e7      	b.n	2e <cau_aes_key_config+0x2e>
  5e:	f44f 7000 	mov.w	r0, #512	; 0x200
  62:	f7ff fffe 	bl	0 <cau_aes_keysize_config>
  66:	682b      	ldr	r3, [r5, #0]
  68:	ba1b      	rev	r3, r3
  6a:	6023      	str	r3, [r4, #0]
  6c:	686b      	ldr	r3, [r5, #4]
  6e:	ba1b      	rev	r3, r3
  70:	6063      	str	r3, [r4, #4]
  72:	68ab      	ldr	r3, [r5, #8]
  74:	ba1b      	rev	r3, r3
  76:	60a3      	str	r3, [r4, #8]
  78:	68eb      	ldr	r3, [r5, #12]
  7a:	ba1b      	rev	r3, r3
  7c:	60e3      	str	r3, [r4, #12]
  7e:	692b      	ldr	r3, [r5, #16]
  80:	ba1b      	rev	r3, r3
  82:	6123      	str	r3, [r4, #16]
  84:	696b      	ldr	r3, [r5, #20]
  86:	ba1b      	rev	r3, r3
  88:	6163      	str	r3, [r4, #20]
  8a:	69ab      	ldr	r3, [r5, #24]
  8c:	ba1b      	rev	r3, r3
  8e:	61a3      	str	r3, [r4, #24]
  90:	69eb      	ldr	r3, [r5, #28]
  92:	e7cc      	b.n	2e <cau_aes_key_config+0x2e>

00000094 <cau_aes_calculate>:
  94:	e92d 41f3 	stmdb	sp!, {r0, r1, r4, r5, r6, r7, r8, lr}
  98:	f04f 0800 	mov.w	r8, #0
  9c:	4606      	mov	r6, r0
  9e:	460f      	mov	r7, r1
  a0:	4614      	mov	r4, r2
  a2:	f8cd 8004 	str.w	r8, [sp, #4]
  a6:	f7ff fffe 	bl	0 <cau_enable_state_get>
  aa:	b918      	cbnz	r0, b4 <cau_aes_calculate+0x20>
  ac:	2000      	movs	r0, #0
  ae:	b002      	add	sp, #8
  b0:	e8bd 81f0 	ldmia.w	sp!, {r4, r5, r6, r7, r8, pc}
  b4:	f106 0510 	add.w	r5, r6, #16
  b8:	f1c6 26ff 	rsb	r6, r6, #4278255360	; 0xff00ff00
  bc:	f506 067f 	add.w	r6, r6, #16711680	; 0xff0000
  c0:	36f0      	adds	r6, #240	; 0xf0
  c2:	1973      	adds	r3, r6, r5
  c4:	429f      	cmp	r7, r3
  c6:	d801      	bhi.n	cc <cau_aes_calculate+0x38>
  c8:	2001      	movs	r0, #1
  ca:	e7f0      	b.n	ae <cau_aes_calculate+0x1a>
  cc:	f855 0c10 	ldr.w	r0, [r5, #-16]
  d0:	f7ff fffe 	bl	0 <cau_data_write>
  d4:	f855 0c0c 	ldr.w	r0, [r5, #-12]
  d8:	f7ff fffe 	bl	0 <cau_data_write>
  dc:	f855 0c08 	ldr.w	r0, [r5, #-8]
  e0:	f7ff fffe 	bl	0 <cau_data_write>
  e4:	f855 0c04 	ldr.w	r0, [r5, #-4]
  e8:	f7ff fffe 	bl	0 <cau_data_write>
  ec:	f8cd 8004 	str.w	r8, [sp, #4]
  f0:	2010      	movs	r0, #16
  f2:	f7ff fffe 	bl	0 <cau_flag_get>
  f6:	9b01      	ldr	r3, [sp, #4]
  f8:	3301      	adds	r3, #1
  fa:	9301      	str	r3, [sp, #4]
  fc:	9b01      	ldr	r3, [sp, #4]
  fe:	f5b3 3f80 	cmp.w	r3, #65536	; 0x10000
 102:	d001      	beq.n	108 <cau_aes_calculate+0x74>
 104:	2800      	cmp	r0, #0
 106:	d1f3      	bne.n	f0 <cau_aes_calculate+0x5c>
 108:	3410      	adds	r4, #16
 10a:	3510      	adds	r5, #16
 10c:	2800      	cmp	r0, #0
 10e:	d1cd      	bne.n	ac <cau_aes_calculate+0x18>
 110:	f7ff fffe 	bl	0 <cau_data_read>
 114:	f844 0c10 	str.w	r0, [r4, #-16]
 118:	f7ff fffe 	bl	0 <cau_data_read>
 11c:	f844 0c0c 	str.w	r0, [r4, #-12]
 120:	f7ff fffe 	bl	0 <cau_data_read>
 124:	f844 0c08 	str.w	r0, [r4, #-8]
 128:	f7ff fffe 	bl	0 <cau_data_read>
 12c:	f844 0c04 	str.w	r0, [r4, #-4]
 130:	e7c7      	b.n	c2 <cau_aes_calculate+0x2e>

00000132 <cau_aes_ecb>:
 132:	e92d 41f0 	stmdb	sp!, {r4, r5, r6, r7, r8, lr}
 136:	460e      	mov	r6, r1
 138:	4617      	mov	r7, r2
 13a:	f04f 0800 	mov.w	r8, #0
 13e:	4604      	mov	r4, r0
 140:	b08a      	sub	sp, #40	; 0x28
 142:	a802      	add	r0, sp, #8
 144:	461d      	mov	r5, r3
 146:	f8cd 8004 	str.w	r8, [sp, #4]
 14a:	f7ff fffe 	bl	0 <cau_key_parameter_init>
 14e:	4639      	mov	r1, r7
 150:	4630      	mov	r0, r6
 152:	aa02      	add	r2, sp, #8
 154:	f7ff ff54 	bl	0 <cau_aes_key_config>
 158:	a802      	add	r0, sp, #8
 15a:	f7ff fffe 	bl	0 <cau_key_init>
 15e:	2c04      	cmp	r4, #4
 160:	d014      	beq.n	18c <cau_aes_ecb+0x5a>
 162:	4620      	mov	r0, r4
 164:	2280      	movs	r2, #128	; 0x80
 166:	2120      	movs	r1, #32
 168:	f7ff fffe 	bl	0 <cau_init>
 16c:	f7ff fffe 	bl	0 <cau_fifo_flush>
 170:	f7ff fffe 	bl	0 <cau_enable>
 174:	e9d5 1201 	ldrd	r1, r2, [r5, #4]
 178:	6828      	ldr	r0, [r5, #0]
 17a:	f7ff ff8b 	bl	94 <cau_aes_calculate>
 17e:	4604      	mov	r4, r0
 180:	f7ff fffe 	bl	0 <cau_disable>
 184:	4620      	mov	r0, r4
 186:	b00a      	add	sp, #40	; 0x28
 188:	e8bd 81f0 	ldmia.w	sp!, {r4, r5, r6, r7, r8, pc}
 18c:	f7ff fffe 	bl	0 <cau_fifo_flush>
 190:	4642      	mov	r2, r8
 192:	2138      	movs	r1, #56	; 0x38
 194:	4620      	mov	r0, r4
 196:	f7ff fffe 	bl	0 <cau_init>
 19a:	f7ff fffe 	bl	0 <cau_enable>
 19e:	2010      	movs	r0, #16
 1a0:	f7ff fffe 	bl	0 <cau_flag_get>
 1a4:	9b01      	ldr	r3, [sp, #4]
 1a6:	3301      	adds	r3, #1
 1a8:	9301      	str	r3, [sp, #4]
 1aa:	9b01      	ldr	r3, [sp, #4]
 1ac:	f5b3 3f80 	cmp.w	r3, #65536	; 0x10000
 1b0:	d002      	beq.n	1b8 <cau_aes_ecb+0x86>
 1b2:	2800      	cmp	r0, #0
 1b4:	d1f3      	bne.n	19e <cau_aes_ecb+0x6c>
 1b6:	e7d4      	b.n	162 <cau_aes_ecb+0x30>
 1b8:	2800      	cmp	r0, #0
 1ba:	d0d2      	beq.n	162 <cau_aes_ecb+0x30>
 1bc:	2400      	movs	r4, #0
 1be:	e7e1      	b.n	184 <cau_aes_ecb+0x52>

000001c0 <cau_aes_cbc>:
 1c0:	e92d 43f0 	stmdb	sp!, {r4, r5, r6, r7, r8, r9, lr}
 1c4:	460f      	mov	r7, r1
 1c6:	4690      	mov	r8, r2
 1c8:	f04f 0900 	mov.w	r9, #0
 1cc:	4605      	mov	r5, r0
 1ce:	b08f      	sub	sp, #60	; 0x3c
 1d0:	a806      	add	r0, sp, #24
 1d2:	461c      	mov	r4, r3
 1d4:	9e16      	ldr	r6, [sp, #88]	; 0x58
 1d6:	f8cd 9004 	str.w	r9, [sp, #4]
 1da:	f7ff fffe 	bl	0 <cau_key_parameter_init>
 1de:	4641      	mov	r1, r8
 1e0:	4638      	mov	r0, r7
 1e2:	aa06      	add	r2, sp, #24
 1e4:	f7ff ff0c 	bl	0 <cau_aes_key_config>
 1e8:	a806      	add	r0, sp, #24
 1ea:	f7ff fffe 	bl	0 <cau_key_init>
 1ee:	2d04      	cmp	r5, #4
 1f0:	d023      	beq.n	23a <cau_aes_cbc+0x7a>
 1f2:	2280      	movs	r2, #128	; 0x80
 1f4:	2128      	movs	r1, #40	; 0x28
 1f6:	4628      	mov	r0, r5
 1f8:	f7ff fffe 	bl	0 <cau_init>
 1fc:	6823      	ldr	r3, [r4, #0]
 1fe:	ba1b      	rev	r3, r3
 200:	9302      	str	r3, [sp, #8]
 202:	6863      	ldr	r3, [r4, #4]
 204:	ba1b      	rev	r3, r3
 206:	9303      	str	r3, [sp, #12]
 208:	68a3      	ldr	r3, [r4, #8]
 20a:	ba1b      	rev	r3, r3
 20c:	9304      	str	r3, [sp, #16]
 20e:	68e3      	ldr	r3, [r4, #12]
 210:	ba1b      	rev	r3, r3
 212:	a802      	add	r0, sp, #8
 214:	9305      	str	r3, [sp, #20]
 216:	f7ff fffe 	bl	0 <cau_iv_init>
 21a:	f7ff fffe 	bl	0 <cau_fifo_flush>
 21e:	f7ff fffe 	bl	0 <cau_enable>
 222:	e9d6 1201 	ldrd	r1, r2, [r6, #4]
 226:	6830      	ldr	r0, [r6, #0]
 228:	f7ff ff34 	bl	94 <cau_aes_calculate>
 22c:	4604      	mov	r4, r0
 22e:	f7ff fffe 	bl	0 <cau_disable>
 232:	4620      	mov	r0, r4
 234:	b00f      	add	sp, #60	; 0x3c
 236:	e8bd 83f0 	ldmia.w	sp!, {r4, r5, r6, r7, r8, r9, pc}
 23a:	f7ff fffe 	bl	0 <cau_fifo_flush>
 23e:	464a      	mov	r2, r9
 240:	2138      	movs	r1, #56	; 0x38
 242:	4628      	mov	r0, r5
 244:	f7ff fffe 	bl	0 <cau_init>
 248:	f7ff fffe 	bl	0 <cau_enable>
 24c:	2010      	movs	r0, #16
 24e:	f7ff fffe 	bl	0 <cau_flag_get>
 252:	9b01      	ldr	r3, [sp, #4]
 254:	3301      	adds	r3, #1
 256:	9301      	str	r3, [sp, #4]
 258:	9b01      	ldr	r3, [sp, #4]
 25a:	f5b3 3f80 	cmp.w	r3, #65536	; 0x10000
 25e:	d002      	beq.n	266 <cau_aes_cbc+0xa6>
 260:	2800      	cmp	r0, #0
 262:	d1f3      	bne.n	24c <cau_aes_cbc+0x8c>
 264:	e7c5      	b.n	1f2 <cau_aes_cbc+0x32>
 266:	2800      	cmp	r0, #0
 268:	d0c3      	beq.n	1f2 <cau_aes_cbc+0x32>
 26a:	2400      	movs	r4, #0
 26c:	e7e1      	b.n	232 <cau_aes_cbc+0x72>

0000026e <cau_aes_ctr>:
 26e:	e92d 41f0 	stmdb	sp!, {r4, r5, r6, r7, r8, lr}
 272:	4680      	mov	r8, r0
 274:	460e      	mov	r6, r1
 276:	4617      	mov	r7, r2
 278:	461c      	mov	r4, r3
 27a:	b08c      	sub	sp, #48	; 0x30
 27c:	a804      	add	r0, sp, #16
 27e:	9d12      	ldr	r5, [sp, #72]	; 0x48
 280:	f7ff fffe 	bl	0 <cau_key_parameter_init>
 284:	4640      	mov	r0, r8
 286:	2280      	movs	r2, #128	; 0x80
 288:	2130      	movs	r1, #48	; 0x30
 28a:	f7ff fffe 	bl	0 <cau_init>
 28e:	4639      	mov	r1, r7
 290:	4630      	mov	r0, r6
 292:	aa04      	add	r2, sp, #16
 294:	f7ff feb4 	bl	0 <cau_aes_key_config>
 298:	a804      	add	r0, sp, #16
 29a:	f7ff fffe 	bl	0 <cau_key_init>
 29e:	6823      	ldr	r3, [r4, #0]
 2a0:	ba1b      	rev	r3, r3
 2a2:	9300      	str	r3, [sp, #0]
 2a4:	6863      	ldr	r3, [r4, #4]
 2a6:	ba1b      	rev	r3, r3
 2a8:	9301      	str	r3, [sp, #4]
 2aa:	68a3      	ldr	r3, [r4, #8]
 2ac:	ba1b      	rev	r3, r3
 2ae:	9302      	str	r3, [sp, #8]
 2b0:	68e3      	ldr	r3, [r4, #12]
 2b2:	ba1b      	rev	r3, r3
 2b4:	4668      	mov	r0, sp
 2b6:	9303      	str	r3, [sp, #12]
 2b8:	f7ff fffe 	bl	0 <cau_iv_init>
 2bc:	f7ff fffe 	bl	0 <cau_fifo_flush>
 2c0:	f7ff fffe 	bl	0 <cau_enable>
 2c4:	e9d5 1201 	ldrd	r1, r2, [r5, #4]
 2c8:	6828      	ldr	r0, [r5, #0]
 2ca:	f7ff fee3 	bl	94 <cau_aes_calculate>
 2ce:	4604      	mov	r4, r0
 2d0:	f7ff fffe 	bl	0 <cau_disable>
 2d4:	4620      	mov	r0, r4
 2d6:	b00c      	add	sp, #48	; 0x30
 2d8:	e8bd 81f0 	ldmia.w	sp!, {r4, r5, r6, r7, r8, pc}

gd32f20x_cau.o:     file format elf32-littlearm


Disassembly of section .text:

00000000 <cau_deinit>:
   0:	b508      	push	{r3, lr}
   2:	f641 4004 	movw	r0, #7172	; 0x1c04
   6:	f7ff fffe 	bl	0 <rcu_periph_reset_enable>
   a:	e8bd 4008 	ldmia.w	sp!, {r3, lr}
   e:	f641 4004 	movw	r0, #7172	; 0x1c04
  12:	f7ff bffe 	b.w	0 <rcu_periph_reset_disable>

00000016 <cau_enable>:
  16:	4a03      	ldr	r2, [pc, #12]	; (24 <cau_enable+0xe>)
  18:	6813      	ldr	r3, [r2, #0]
  1a:	f443 4300 	orr.w	r3, r3, #32768	; 0x8000
  1e:	6013      	str	r3, [r2, #0]
  20:	4770      	bx	lr
  22:	bf00      	nop
  24:	50060000 	.word	0x50060000

00000028 <cau_disable>:
  28:	4a02      	ldr	r2, [pc, #8]	; (34 <cau_disable+0xc>)
  2a:	6813      	ldr	r3, [r2, #0]
  2c:	f423 4300 	bic.w	r3, r3, #32768	; 0x8000
  30:	6013      	str	r3, [r2, #0]
  32:	4770      	bx	lr
  34:	50060000 	.word	0x50060000

00000038 <cau_dma_enable>:
  38:	4a02      	ldr	r2, [pc, #8]	; (44 <cau_dma_enable+0xc>)
  3a:	6913      	ldr	r3, [r2, #16]
  3c:	4303      	orrs	r3, r0
  3e:	6113      	str	r3, [r2, #16]
  40:	4770      	bx	lr
  42:	bf00      	nop
  44:	50060000 	.word	0x50060000

00000048 <cau_dma_disable>:
  48:	4a02      	ldr	r2, [pc, #8]	; (54 <cau_dma_disable+0xc>)
  4a:	6913      	ldr	r3, [r2, #16]
  4c:	ea23 0300 	bic.w	r3, r3, r0
  50:	6113      	str	r3, [r2, #16]
  52:	4770      	bx	lr
  54:	50060000 	.word	0x50060000

00000058 <cau_init>:
  58:	4b0b      	ldr	r3, [pc, #44]	; (88 <cau_init+0x30>)
  5a:	b510      	push	{r4, lr}
  5c:	681c      	ldr	r4, [r3, #0]
  5e:	f024 0438 	bic.w	r4, r4, #56	; 0x38
  62:	601c      	str	r4, [r3, #0]
  64:	681c      	ldr	r4, [r3, #0]
  66:	430c      	orrs	r4, r1
  68:	601c      	str	r4, [r3, #0]
  6a:	6819      	ldr	r1, [r3, #0]
  6c:	f021 01c0 	bic.w	r1, r1, #192	; 0xc0
  70:	6019      	str	r1, [r3, #0]
  72:	6819      	ldr	r1, [r3, #0]
  74:	4311      	orrs	r1, r2
  76:	6019      	str	r1, [r3, #0]
  78:	681a      	ldr	r2, [r3, #0]
  7a:	f022 0204 	bic.w	r2, r2, #4
  7e:	601a      	str	r2, [r3, #0]
  80:	681a      	ldr	r2, [r3, #0]
  82:	4302      	orrs	r2, r0
  84:	601a      	str	r2, [r3, #0]
  86:	bd10      	pop	{r4, pc}
  88:	50060000 	.word	0x50060000

0000008c <cau_aes_keysize_config>:
  8c:	4b04      	ldr	r3, [pc, #16]	; (a0 <cau_aes_keysize_config+0x14>)
  8e:	681a      	ldr	r2, [r3, #0]
  90:	f422 7240 	bic.w	r2, r2, #768	; 0x300
  94:	601a      	str	r2, [r3, #0]
  96:	681a      	ldr	r2, [r3, #0]
  98:	4302      	orrs	r2, r0
  9a:	601a      	str	r2, [r3, #0]
  9c:	4770      	bx	lr
  9e:	bf00      	nop
  a0:	50060000 	.word	0x50060000

000000a4 <cau_key_init>:
  a4:	6802      	ldr	r2, [r0, #0]
  a6:	4b08      	ldr	r3, [pc, #32]	; (c8 <cau_key_init+0x24>)
  a8:	621a      	str	r2, [r3, #32]
  aa:	6842      	ldr	r2, [r0, #4]
  ac:	625a      	str	r2, [r3, #36]	; 0x24
  ae:	6882      	ldr	r2, [r0, #8]
  b0:	629a      	str	r2, [r3, #40]	; 0x28
  b2:	68c2      	ldr	r2, [r0, #12]
  b4:	62da      	str	r2, [r3, #44]	; 0x2c
  b6:	6902      	ldr	r2, [r0, #16]
  b8:	631a      	str	r2, [r3, #48]	; 0x30
  ba:	6942      	ldr	r2, [r0, #20]
  bc:	635a      	str	r2, [r3, #52]	; 0x34
  be:	6982      	ldr	r2, [r0, #24]
  c0:	639a      	str	r2, [r3, #56]	; 0x38
  c2:	69c2      	ldr	r2, [r0, #28]
  c4:	63da      	str	r2, [r3, #60]	; 0x3c
  c6:	4770      	bx	lr
  c8:	50060000 	.word	0x50060000

000000cc <cau_key_parameter_init>:
  cc:	2300      	movs	r3, #0
  ce:	e9c0 3300 	strd	r3, r3, [r0]
  d2:	e9c0 3302 	strd	r3, r3, [r0, #8]
  d6:	e9c0 3304 	strd	r3, r3, [r0, #16]
  da:	e9c0 3306 	strd	r3, r3, [r0, #24]
  de:	4770      	bx	lr

000000e0 <cau_iv_init>:
  e0:	6802      	ldr	r2, [r0, #0]
  e2:	4b04      	ldr	r3, [pc, #16]	; (f4 <cau_iv_init+0x14>)
  e4:	641a      	str	r2, [r3, #64]	; 0x40
  e6:	6842      	ldr	r2, [r0, #4]
  e8:	645a      	str	r2, [r3, #68]	; 0x44
  ea:	6882      	ldr	r2, [r0, #8]
  ec:	649a      	str	r2, [r3, #72]	; 0x48
  ee:	68c2      	ldr	r2, [r0, #12]
  f0:	64da      	str	r2, [r3, #76]	; 0x4c
  f2:	4770      	bx	lr
  f4:	50060000 	.word	0x50060000

000000f8 <cau_iv_parameter_init>:
  f8:	2300      	movs	r3, #0
  fa:	e9c0 3300 	strd	r3, r3, [r0]
  fe:	e9c0 3302 	strd	r3, r3, [r0, #8]
 102:	4770      	bx	lr

00000104 <cau_fifo_flush>:
 104:	4a02      	ldr	r2, [pc, #8]	; (110 <cau_fifo_flush+0xc>)
 106:	6813      	ldr	r3, [r2, #0]
 108:	f443 4380 	orr.w	r3, r3, #16384	; 0x4000
 10c:	6013      	str	r3, [r2, #0]
 10e:	4770      	bx	lr
 110:	50060000 	.word	0x50060000

00000114 <cau_enable_state_get>:
 114:	4b02      	ldr	r3, [pc, #8]	; (120 <cau_enable_state_get+0xc>)
 116:	6818      	ldr	r0, [r3, #0]
 118:	f3c0 30c0 	ubfx	r0, r0, #15, #1
 11c:	4770      	bx	lr
 11e:	bf00      	nop
 120:	50060000 	.word	0x50060000

00000124 <cau_data_write>:
 124:	4b01      	ldr	r3, [pc, #4]	; (12c <cau_data_write+0x8>)
 126:	6098      	str	r0, [r3, #8]
 128:	4770      	bx	lr
 12a:	bf00      	nop
 12c:	50060000 	.word	0x50060000

00000130 <cau_data_read>:
 130:	4b01      	ldr	r3, [pc, #4]	; (138 <cau_data_read+0x8>)
 132:	68d8      	ldr	r0, [r3, #12]
 134:	4770      	bx	lr
 136:	bf00      	nop
 138:	50060000 	.word	0x50060000

0000013c <cau_flag_get>:
 13c:	4b05      	ldr	r3, [pc, #20]	; (154 <cau_flag_get+0x18>)
 13e:	f010 0f20 	tst.w	r0, #32
 142:	bf14      	ite	ne
 144:	699b      	ldrne	r3, [r3, #24]
 146:	685b      	ldreq	r3, [r3, #4]
 148:	4203      	tst	r3, r0
 14a:	bf14      	ite	ne
 14c:	2001      	movne	r0, #1
 14e:	2000      	moveq	r0, #0
 150:	4770      	bx	lr
 152:	bf00      	nop
 154:	50060000 	.word	0x50060000

00000158 <cau_interrupt_enable>:
 158:	4a02      	ldr	r2, [pc, #8]	; (164 <cau_interrupt_enable+0xc>)
 15a:	6953      	ldr	r3, [r2, #20]
 15c:	4303      	orrs	r3, r0
 15e:	6153      	str	r3, [r2, #20]
 160:	4770      	bx	lr
 162:	bf00      	nop
 164:	50060000 	.word	0x50060000

00000168 <cau_interrupt_disable>:
 168:	4a02      	ldr	r2, [pc, #8]	; (174 <cau_interrupt_disable+0xc>)
 16a:	6953      	ldr	r3, [r2, #20]
 16c:	ea23 0300 	bic.w	r3, r3, r0
 170:	6153      	str	r3, [r2, #20]
 172:	4770      	bx	lr
 174:	50060000 	.word	0x50060000

00000178 <cau_interrupt_flag_get>:
 178:	4b03      	ldr	r3, [pc, #12]	; (188 <cau_interrupt_flag_get+0x10>)
 17a:	69db      	ldr	r3, [r3, #28]
 17c:	4203      	tst	r3, r0
 17e:	bf14      	ite	ne
 180:	2001      	movne	r0, #1
 182:	2000      	moveq	r0, #0
 184:	4770      	bx	lr
 186:	bf00      	nop
 188:	50060000 	.word	0x50060000

gd32f20x_cau_des.o:     file format elf32-littlearm


Disassembly of section .text:

00000000 <cau_des_calculate>:
   0:	e92d 41f3 	stmdb	sp!, {r0, r1, r4, r5, r6, r7, r8, lr}
   4:	f04f 0800 	mov.w	r8, #0
   8:	4604      	mov	r4, r0
   a:	460f      	mov	r7, r1
   c:	4616      	mov	r6, r2
   e:	f8cd 8004 	str.w	r8, [sp, #4]
  12:	f7ff fffe 	bl	0 <cau_enable_state_get>
  16:	b918      	cbnz	r0, 20 <cau_des_calculate+0x20>
  18:	2000      	movs	r0, #0
  1a:	b002      	add	sp, #8
  1c:	e8bd 81f0 	ldmia.w	sp!, {r4, r5, r6, r7, r8, pc}
  20:	4635      	mov	r5, r6
  22:	3408      	adds	r4, #8
  24:	1bab      	subs	r3, r5, r6
  26:	429f      	cmp	r7, r3
  28:	d801      	bhi.n	2e <cau_des_calculate+0x2e>
  2a:	2001      	movs	r0, #1
  2c:	e7f5      	b.n	1a <cau_des_calculate+0x1a>
  2e:	f854 0c08 	ldr.w	r0, [r4, #-8]
  32:	f7ff fffe 	bl	0 <cau_data_write>
  36:	f854 0c04 	ldr.w	r0, [r4, #-4]
  3a:	f7ff fffe 	bl	0 <cau_data_write>
  3e:	f8cd 8004 	str.w	r8, [sp, #4]
  42:	2010      	movs	r0, #16
  44:	f7ff fffe 	bl	0 <cau_flag_get>
  48:	9b01      	ldr	r3, [sp, #4]
  4a:	3301      	adds	r3, #1
  4c:	9301      	str	r3, [sp, #4]
  4e:	9b01      	ldr	r3, [sp, #4]
  50:	f5b3 3f80 	cmp.w	r3, #65536	; 0x10000
  54:	d001      	beq.n	5a <cau_des_calculate+0x5a>
  56:	2800      	cmp	r0, #0
  58:	d1f3      	bne.n	42 <cau_des_calculate+0x42>
  5a:	3508      	adds	r5, #8
  5c:	3408      	adds	r4, #8
  5e:	2800      	cmp	r0, #0
  60:	d1da      	bne.n	18 <cau_des_calculate+0x18>
  62:	f7ff fffe 	bl	0 <cau_data_read>
  66:	f845 0c08 	str.w	r0, [r5, #-8]
  6a:	f7ff fffe 	bl	0 <cau_data_read>
  6e:	f845 0c04 	str.w	r0, [r5, #-4]
  72:	e7d7      	b.n	24 <cau_des_calculate+0x24>

00000074 <cau_des_ecb>:
  74:	b570      	push	{r4, r5, r6, lr}
  76:	4606      	mov	r6, r0
  78:	460d      	mov	r5, r1
  7a:	b088      	sub	sp, #32
  7c:	4668      	mov	r0, sp
  7e:	4614      	mov	r4, r2
  80:	f7ff fffe 	bl	0 <cau_key_parameter_init>
  84:	2280      	movs	r2, #128	; 0x80
  86:	2110      	movs	r1, #16
  88:	4630      	mov	r0, r6
  8a:	f7ff fffe 	bl	0 <cau_init>
  8e:	682b      	ldr	r3, [r5, #0]
  90:	ba1b      	rev	r3, r3
  92:	9302      	str	r3, [sp, #8]
  94:	686b      	ldr	r3, [r5, #4]
  96:	ba1b      	rev	r3, r3
  98:	4668      	mov	r0, sp
  9a:	9303      	str	r3, [sp, #12]
  9c:	f7ff fffe 	bl	0 <cau_key_init>
  a0:	f7ff fffe 	bl	0 <cau_fifo_flush>
  a4:	f7ff fffe 	bl	0 <cau_enable>
  a8:	e9d4 1201 	ldrd	r1, r2, [r4, #4]
  ac:	6820      	ldr	r0, [r4, #0]
  ae:	f7ff ffa7 	bl	0 <cau_des_calculate>
  b2:	4604      	mov	r4, r0
  b4:	f7ff fffe 	bl	0 <cau_disable>
  b8:	4620      	mov	r0, r4
  ba:	b008      	add	sp, #32
  bc:	bd70      	pop	{r4, r5, r6, pc}

000000be <cau_des_cbc>:
  be:	b5f0      	push	{r4, r5, r6, r7, lr}
  c0:	4607      	mov	r7, r0
  c2:	460e      	mov	r6, r1
  c4:	b08d      	sub	sp, #52	; 0x34
  c6:	a804      	add	r0, sp, #16
  c8:	461c      	mov	r4, r3
  ca:	4615      	mov	r5, r2
  cc:	f7ff fffe 	bl	0 <cau_key_parameter_init>
  d0:	2280      	movs	r2, #128	; 0x80
  d2:	2118      	movs	r1, #24
  d4:	4638      	mov	r0, r7
  d6:	f7ff fffe 	bl	0 <cau_init>
  da:	6833      	ldr	r3, [r6, #0]
  dc:	ba1b      	rev	r3, r3
  de:	9306      	str	r3, [sp, #24]
  e0:	6873      	ldr	r3, [r6, #4]
  e2:	ba1b      	rev	r3, r3
  e4:	a804      	add	r0, sp, #16
  e6:	9307      	str	r3, [sp, #28]
  e8:	f7ff fffe 	bl	0 <cau_key_init>
  ec:	682b      	ldr	r3, [r5, #0]
  ee:	ba1b      	rev	r3, r3
  f0:	9300      	str	r3, [sp, #0]
  f2:	686b      	ldr	r3, [r5, #4]
  f4:	ba1b      	rev	r3, r3
  f6:	4668      	mov	r0, sp
  f8:	9301      	str	r3, [sp, #4]
  fa:	f7ff fffe 	bl	0 <cau_iv_init>
  fe:	f7ff fffe 	bl	0 <cau_fifo_flush>
 102:	f7ff fffe 	bl	0 <cau_enable>
 106:	e9d4 1201 	ldrd	r1, r2, [r4, #4]
 10a:	6820      	ldr	r0, [r4, #0]
 10c:	f7ff ff78 	bl	0 <cau_des_calculate>
 110:	4604      	mov	r4, r0
 112:	f7ff fffe 	bl	0 <cau_disable>
 116:	4620      	mov	r0, r4
 118:	b00d      	add	sp, #52	; 0x34
 11a:	bdf0      	pop	{r4, r5, r6, r7, pc}

gd32f20x_cau_tdes.o:     file format elf32-littlearm


Disassembly of section .text:

00000000 <cau_tdes_calculate>:
   0:	e92d 41f3 	stmdb	sp!, {r0, r1, r4, r5, r6, r7, r8, lr}
   4:	f04f 0800 	mov.w	r8, #0
   8:	4604      	mov	r4, r0
   a:	460f      	mov	r7, r1
   c:	4616      	mov	r6, r2
   e:	f8cd 8004 	str.w	r8, [sp, #4]
  12:	f7ff fffe 	bl	0 <cau_enable_state_get>
  16:	b918      	cbnz	r0, 20 <cau_tdes_calculate+0x20>
  18:	2000      	movs	r0, #0
  1a:	b002      	add	sp, #8
  1c:	e8bd 81f0 	ldmia.w	sp!, {r4, r5, r6, r7, r8, pc}
  20:	4635      	mov	r5, r6
  22:	3408      	adds	r4, #8
  24:	1bab      	subs	r3, r5, r6
  26:	429f      	cmp	r7, r3
  28:	d801      	bhi.n	2e <cau_tdes_calculate+0x2e>
  2a:	2001      	movs	r0, #1
  2c:	e7f5      	b.n	1a <cau_tdes_calculate+0x1a>
  2e:	f854 0c08 	ldr.w	r0, [r4, #-8]
  32:	f7ff fffe 	bl	0 <cau_data_write>
  36:	f854 0c04 	ldr.w	r0, [r4, #-4]
  3a:	f7ff fffe 	bl	0 <cau_data_write>
  3e:	f8cd 8004 	str.w	r8, [sp, #4]
  42:	2010      	movs	r0, #16
  44:	f7ff fffe 	bl	0 <cau_flag_get>
  48:	9b01      	ldr	r3, [sp, #4]
  4a:	3301      	adds	r3, #1
  4c:	9301      	str	r3, [sp, #4]
  4e:	9b01      	ldr	r3, [sp, #4]
  50:	f5b3 3f80 	cmp.w	r3, #65536	; 0x10000
  54:	d001      	beq.n	5a <cau_tdes_calculate+0x5a>
  56:	2800      	cmp	r0, #0
  58:	d1f3      	bne.n	42 <cau_tdes_calculate+0x42>
  5a:	3508      	adds	r5, #8
  5c:	3408      	adds	r4, #8
  5e:	2800      	cmp	r0, #0
  60:	d1da      	bne.n	18 <cau_tdes_calculate+0x18>
  62:	f7ff fffe 	bl	0 <cau_data_read>
  66:	f845 0c08 	str.w	r0, [r5, #-8]
  6a:	f7ff fffe 	bl	0 <cau_data_read>
  6e:	f845 0c04 	str.w	r0, [r5, #-4]
  72:	e7d7      	b.n	24 <cau_tdes_calculate+0x24>

00000074 <cau_tdes_ecb>:
  74:	b570      	push	{r4, r5, r6, lr}
  76:	4606      	mov	r6, r0
  78:	460c      	mov	r4, r1
  7a:	b088      	sub	sp, #32
  7c:	4668      	mov	r0, sp
  7e:	4615      	mov	r5, r2
  80:	f7ff fffe 	bl	0 <cau_key_parameter_init>
  84:	2280      	movs	r2, #128	; 0x80
  86:	2100      	movs	r1, #0
  88:	4630      	mov	r0, r6
  8a:	f7ff fffe 	bl	0 <cau_init>
  8e:	6823      	ldr	r3, [r4, #0]
  90:	ba1b      	rev	r3, r3
  92:	9302      	str	r3, [sp, #8]
  94:	6863      	ldr	r3, [r4, #4]
  96:	ba1b      	rev	r3, r3
  98:	9303      	str	r3, [sp, #12]
  9a:	68a3      	ldr	r3, [r4, #8]
  9c:	ba1b      	rev	r3, r3
  9e:	9304      	str	r3, [sp, #16]
  a0:	68e3      	ldr	r3, [r4, #12]
  a2:	ba1b      	rev	r3, r3
  a4:	9305      	str	r3, [sp, #20]
  a6:	6923      	ldr	r3, [r4, #16]
  a8:	ba1b      	rev	r3, r3
  aa:	9306      	str	r3, [sp, #24]
  ac:	6963      	ldr	r3, [r4, #20]
  ae:	ba1b      	rev	r3, r3
  b0:	4668      	mov	r0, sp
  b2:	9307      	str	r3, [sp, #28]
  b4:	f7ff fffe 	bl	0 <cau_key_init>
  b8:	f7ff fffe 	bl	0 <cau_fifo_flush>
  bc:	f7ff fffe 	bl	0 <cau_enable>
  c0:	e9d5 1201 	ldrd	r1, r2, [r5, #4]
  c4:	6828      	ldr	r0, [r5, #0]
  c6:	f7ff ff9b 	bl	0 <cau_tdes_calculate>
  ca:	4604      	mov	r4, r0
  cc:	f7ff fffe 	bl	0 <cau_disable>
  d0:	4620      	mov	r0, r4
  d2:	b008      	add	sp, #32
  d4:	bd70      	pop	{r4, r5, r6, pc}

000000d6 <cau_tdes_cbc>:
  d6:	b5f0      	push	{r4, r5, r6, r7, lr}
  d8:	4607      	mov	r7, r0
  da:	460c      	mov	r4, r1
  dc:	b08d      	sub	sp, #52	; 0x34
  de:	a804      	add	r0, sp, #16
  e0:	461d      	mov	r5, r3
  e2:	4616      	mov	r6, r2
  e4:	f7ff fffe 	bl	0 <cau_key_parameter_init>
  e8:	2280      	movs	r2, #128	; 0x80
  ea:	2108      	movs	r1, #8
  ec:	4638      	mov	r0, r7
  ee:	f7ff fffe 	bl	0 <cau_init>
  f2:	6823      	ldr	r3, [r4, #0]
  f4:	ba1b      	rev	r3, r3
  f6:	9306      	str	r3, [sp, #24]
  f8:	6863      	ldr	r3, [r4, #4]
  fa:	ba1b      	rev	r3, r3
  fc:	9307      	str	r3, [sp, #28]
  fe:	68a3      	ldr	r3, [r4, #8]
 100:	ba1b      	rev	r3, r3
 102:	9308      	str	r3, [sp, #32]
 104:	68e3      	ldr	r3, [r4, #12]
 106:	ba1b      	rev	r3, r3
 108:	9309      	str	r3, [sp, #36]	; 0x24
 10a:	6923      	ldr	r3, [r4, #16]
 10c:	ba1b      	rev	r3, r3
 10e:	930a      	str	r3, [sp, #40]	; 0x28
 110:	6963      	ldr	r3, [r4, #20]
 112:	ba1b      	rev	r3, r3
 114:	a804      	add	r0, sp, #16
 116:	930b      	str	r3, [sp, #44]	; 0x2c
 118:	f7ff fffe 	bl	0 <cau_key_init>
 11c:	6833      	ldr	r3, [r6, #0]
 11e:	ba1b      	rev	r3, r3
 120:	9300      	str	r3, [sp, #0]
 122:	6873      	ldr	r3, [r6, #4]
 124:	ba1b      	rev	r3, r3
 126:	4668      	mov	r0, sp
 128:	9301      	str	r3, [sp, #4]
 12a:	f7ff fffe 	bl	0 <cau_iv_init>
 12e:	f7ff fffe 	bl	0 <cau_fifo_flush>
 132:	f7ff fffe 	bl	0 <cau_enable>
 136:	e9d5 1201 	ldrd	r1, r2, [r5, #4]
 13a:	6828      	ldr	r0, [r5, #0]
 13c:	f7ff ff60 	bl	0 <cau_tdes_calculate>
 140:	4604      	mov	r4, r0
 142:	f7ff fffe 	bl	0 <cau_disable>
 146:	4620      	mov	r0, r4
 148:	b00d      	add	sp, #52	; 0x34
 14a:	bdf0      	pop	{r4, r5, r6, r7, pc}

gd32f20x_crc.o:     file format elf32-littlearm


Disassembly of section .text:

00000000 <crc_deinit>:
   0:	f04f 32ff 	mov.w	r2, #4294967295	; 0xffffffff
   4:	4b03      	ldr	r3, [pc, #12]	; (14 <crc_deinit+0x14>)
   6:	601a      	str	r2, [r3, #0]
   8:	2200      	movs	r2, #0
   a:	605a      	str	r2, [r3, #4]
   c:	2201      	movs	r2, #1
   e:	609a      	str	r2, [r3, #8]
  10:	4770      	bx	lr
  12:	bf00      	nop
  14:	40023000 	.word	0x40023000

00000018 <crc_data_register_reset>:
  18:	4a02      	ldr	r2, [pc, #8]	; (24 <crc_data_register_reset+0xc>)
  1a:	6893      	ldr	r3, [r2, #8]
  1c:	f043 0301 	orr.w	r3, r3, #1
  20:	6093      	str	r3, [r2, #8]
  22:	4770      	bx	lr
  24:	40023000 	.word	0x40023000

00000028 <crc_data_register_read>:
  28:	4b01      	ldr	r3, [pc, #4]	; (30 <crc_data_register_read+0x8>)
  2a:	6818      	ldr	r0, [r3, #0]
  2c:	4770      	bx	lr
  2e:	bf00      	nop
  30:	40023000 	.word	0x40023000

00000034 <crc_free_data_register_read>:
  34:	4b01      	ldr	r3, [pc, #4]	; (3c <crc_free_data_register_read+0x8>)
  36:	6858      	ldr	r0, [r3, #4]
  38:	b2c0      	uxtb	r0, r0
  3a:	4770      	bx	lr
  3c:	40023000 	.word	0x40023000

00000040 <crc_free_data_register_write>:
  40:	4b01      	ldr	r3, [pc, #4]	; (48 <crc_free_data_register_write+0x8>)
  42:	6058      	str	r0, [r3, #4]
  44:	4770      	bx	lr
  46:	bf00      	nop
  48:	40023000 	.word	0x40023000

0000004c <crc_single_data_calculate>:
  4c:	4b01      	ldr	r3, [pc, #4]	; (54 <crc_single_data_calculate+0x8>)
  4e:	6018      	str	r0, [r3, #0]
  50:	6818      	ldr	r0, [r3, #0]
  52:	4770      	bx	lr
  54:	40023000 	.word	0x40023000

00000058 <crc_block_data_calculate>:
  58:	4b05      	ldr	r3, [pc, #20]	; (70 <crc_block_data_calculate+0x18>)
  5a:	eb00 0181 	add.w	r1, r0, r1, lsl #2
  5e:	4288      	cmp	r0, r1
  60:	d101      	bne.n	66 <crc_block_data_calculate+0xe>
  62:	6818      	ldr	r0, [r3, #0]
  64:	4770      	bx	lr
  66:	f850 2b04 	ldr.w	r2, [r0], #4
  6a:	601a      	str	r2, [r3, #0]
  6c:	e7f7      	b.n	5e <crc_block_data_calculate+0x6>
  6e:	bf00      	nop
  70:	40023000 	.word	0x40023000

gd32f20x_dac.o:     file format elf32-littlearm


Disassembly of section .text:

00000000 <dac_deinit>:
   0:	b508      	push	{r3, lr}
   2:	f240 401d 	movw	r0, #1053	; 0x41d
   6:	f7ff fffe 	bl	0 <rcu_periph_reset_enable>
   a:	e8bd 4008 	ldmia.w	sp!, {r3, lr}
   e:	f240 401d 	movw	r0, #1053	; 0x41d
  12:	f7ff bffe 	b.w	0 <rcu_periph_reset_disable>

00000016 <dac_enable>:
  16:	4b06      	ldr	r3, [pc, #24]	; (30 <dac_enable+0x1a>)
  18:	f8d3 2400 	ldr.w	r2, [r3, #1024]	; 0x400
  1c:	b920      	cbnz	r0, 28 <dac_enable+0x12>
  1e:	f042 0201 	orr.w	r2, r2, #1
  22:	f8c3 2400 	str.w	r2, [r3, #1024]	; 0x400
  26:	4770      	bx	lr
  28:	f442 3280 	orr.w	r2, r2, #65536	; 0x10000
  2c:	e7f9      	b.n	22 <dac_enable+0xc>
  2e:	bf00      	nop
  30:	40007000 	.word	0x40007000

00000034 <dac_disable>:
  34:	4b05      	ldr	r3, [pc, #20]	; (4c <dac_disable+0x18>)
  36:	f8d3 2400 	ldr.w	r2, [r3, #1024]	; 0x400
  3a:	b920      	cbnz	r0, 46 <dac_disable+0x12>
  3c:	f022 0201 	bic.w	r2, r2, #1
  40:	f8c3 2400 	str.w	r2, [r3, #1024]	; 0x400
  44:	4770      	bx	lr
  46:	f422 3280 	bic.w	r2, r2, #65536	; 0x10000
  4a:	e7f9      	b.n	40 <dac_disable+0xc>
  4c:	40007000 	.word	0x40007000

00000050 <dac_dma_enable>:
  50:	4b05      	ldr	r3, [pc, #20]	; (68 <dac_dma_enable+0x18>)
  52:	f8d3 2400 	ldr.w	r2, [r3, #1024]	; 0x400
  56:	b920      	cbnz	r0, 62 <dac_dma_enable+0x12>
  58:	f442 5280 	orr.w	r2, r2, #4096	; 0x1000
  5c:	f8c3 2400 	str.w	r2, [r3, #1024]	; 0x400
  60:	4770      	bx	lr
  62:	f042 5280 	orr.w	r2, r2, #268435456	; 0x10000000
  66:	e7f9      	b.n	5c <dac_dma_enable+0xc>
  68:	40007000 	.word	0x40007000

0000006c <dac_dma_disable>:
  6c:	4b05      	ldr	r3, [pc, #20]	; (84 <dac_dma_disable+0x18>)
  6e:	f8d3 2400 	ldr.w	r2, [r3, #1024]	; 0x400
  72:	b920      	cbnz	r0, 7e <dac_dma_disable+0x12>
  74:	f422 5280 	bic.w	r2, r2, #4096	; 0x1000
  78:	f8c3 2400 	str.w	r2, [r3, #1024]	; 0x400
  7c:	4770      	bx	lr
  7e:	f022 5280 	bic.w	r2, r2, #268435456	; 0x10000000
  82:	e7f9      	b.n	78 <dac_dma_disable+0xc>
  84:	40007000 	.word	0x40007000

00000088 <dac_output_buffer_enable>:
  88:	4b05      	ldr	r3, [pc, #20]	; (a0 <dac_output_buffer_enable+0x18>)
  8a:	f8d3 2400 	ldr.w	r2, [r3, #1024]	; 0x400
  8e:	b920      	cbnz	r0, 9a <dac_output_buffer_enable+0x12>
  90:	f022 0202 	bic.w	r2, r2, #2
  94:	f8c3 2400 	str.w	r2, [r3, #1024]	; 0x400
  98:	4770      	bx	lr
  9a:	f422 3200 	bic.w	r2, r2, #131072	; 0x20000
  9e:	e7f9      	b.n	94 <dac_output_buffer_enable+0xc>
  a0:	40007000 	.word	0x40007000

000000a4 <dac_output_buffer_disable>:
  a4:	4b05      	ldr	r3, [pc, #20]	; (bc <dac_output_buffer_disable+0x18>)
  a6:	f8d3 2400 	ldr.w	r2, [r3, #1024]	; 0x400
  aa:	b920      	cbnz	r0, b6 <dac_output_buffer_disable+0x12>
  ac:	f042 0202 	orr.w	r2, r2, #2
  b0:	f8c3 2400 	str.w	r2, [r3, #1024]	; 0x400
  b4:	4770      	bx	lr
  b6:	f442 3200 	orr.w	r2, r2, #131072	; 0x20000
  ba:	e7f9      	b.n	b0 <dac_output_buffer_disable+0xc>
  bc:	40007000 	.word	0x40007000

000000c0 <dac_output_value_get>:
  c0:	4b04      	ldr	r3, [pc, #16]	; (d4 <dac_output_value_get+0x14>)
  c2:	b918      	cbnz	r0, cc <dac_output_value_get+0xc>
  c4:	f8d3 042c 	ldr.w	r0, [r3, #1068]	; 0x42c
  c8:	b280      	uxth	r0, r0
  ca:	4770      	bx	lr
  cc:	f8d3 0430 	ldr.w	r0, [r3, #1072]	; 0x430
  d0:	e7fa      	b.n	c8 <dac_output_value_get+0x8>
  d2:	bf00      	nop
  d4:	40007000 	.word	0x40007000

000000d8 <dac_data_set>:
  d8:	b980      	cbnz	r0, fc <dac_data_set+0x24>
  da:	2901      	cmp	r1, #1
  dc:	d006      	beq.n	ec <dac_data_set+0x14>
  de:	2902      	cmp	r1, #2
  e0:	d008      	beq.n	f4 <dac_data_set+0x1c>
  e2:	b9d9      	cbnz	r1, 11c <dac_data_set+0x44>
  e4:	4b0e      	ldr	r3, [pc, #56]	; (120 <dac_data_set+0x48>)
  e6:	f8c3 2408 	str.w	r2, [r3, #1032]	; 0x408
  ea:	4770      	bx	lr
  ec:	4b0c      	ldr	r3, [pc, #48]	; (120 <dac_data_set+0x48>)
  ee:	f8c3 240c 	str.w	r2, [r3, #1036]	; 0x40c
  f2:	4770      	bx	lr
  f4:	4b0a      	ldr	r3, [pc, #40]	; (120 <dac_data_set+0x48>)
  f6:	f8c3 2410 	str.w	r2, [r3, #1040]	; 0x410
  fa:	4770      	bx	lr
  fc:	2901      	cmp	r1, #1
  fe:	d006      	beq.n	10e <dac_data_set+0x36>
 100:	2902      	cmp	r1, #2
 102:	d008      	beq.n	116 <dac_data_set+0x3e>
 104:	b951      	cbnz	r1, 11c <dac_data_set+0x44>
 106:	4b06      	ldr	r3, [pc, #24]	; (120 <dac_data_set+0x48>)
 108:	f8c3 2414 	str.w	r2, [r3, #1044]	; 0x414
 10c:	4770      	bx	lr
 10e:	4b04      	ldr	r3, [pc, #16]	; (120 <dac_data_set+0x48>)
 110:	f8c3 2418 	str.w	r2, [r3, #1048]	; 0x418
 114:	4770      	bx	lr
 116:	4b02      	ldr	r3, [pc, #8]	; (120 <dac_data_set+0x48>)
 118:	f8c3 241c 	str.w	r2, [r3, #1052]	; 0x41c
 11c:	4770      	bx	lr
 11e:	bf00      	nop
 120:	40007000 	.word	0x40007000

00000124 <dac_trigger_enable>:
 124:	4b05      	ldr	r3, [pc, #20]	; (13c <dac_trigger_enable+0x18>)
 126:	f8d3 2400 	ldr.w	r2, [r3, #1024]	; 0x400
 12a:	b920      	cbnz	r0, 136 <dac_trigger_enable+0x12>
 12c:	f042 0204 	orr.w	r2, r2, #4
 130:	f8c3 2400 	str.w	r2, [r3, #1024]	; 0x400
 134:	4770      	bx	lr
 136:	f442 2280 	orr.w	r2, r2, #262144	; 0x40000
 13a:	e7f9      	b.n	130 <dac_trigger_enable+0xc>
 13c:	40007000 	.word	0x40007000

00000140 <dac_trigger_disable>:
 140:	4b05      	ldr	r3, [pc, #20]	; (158 <dac_trigger_disable+0x18>)
 142:	f8d3 2400 	ldr.w	r2, [r3, #1024]	; 0x400
 146:	b920      	cbnz	r0, 152 <dac_trigger_disable+0x12>
 148:	f022 0204 	bic.w	r2, r2, #4
 14c:	f8c3 2400 	str.w	r2, [r3, #1024]	; 0x400
 150:	4770      	bx	lr
 152:	f422 2280 	bic.w	r2, r2, #262144	; 0x40000
 156:	e7f9      	b.n	14c <dac_trigger_disable+0xc>
 158:	40007000 	.word	0x40007000

0000015c <dac_trigger_source_config>:
 15c:	4b0b      	ldr	r3, [pc, #44]	; (18c <dac_trigger_source_config+0x30>)
 15e:	f8d3 2400 	ldr.w	r2, [r3, #1024]	; 0x400
 162:	b948      	cbnz	r0, 178 <dac_trigger_source_config+0x1c>
 164:	f022 0238 	bic.w	r2, r2, #56	; 0x38
 168:	f8c3 2400 	str.w	r2, [r3, #1024]	; 0x400
 16c:	f8d3 2400 	ldr.w	r2, [r3, #1024]	; 0x400
 170:	430a      	orrs	r2, r1
 172:	f8c3 2400 	str.w	r2, [r3, #1024]	; 0x400
 176:	4770      	bx	lr
 178:	f422 1260 	bic.w	r2, r2, #3670016	; 0x380000
 17c:	f8c3 2400 	str.w	r2, [r3, #1024]	; 0x400
 180:	f8d3 2400 	ldr.w	r2, [r3, #1024]	; 0x400
 184:	ea42 4201 	orr.w	r2, r2, r1, lsl #16
 188:	e7f3      	b.n	172 <dac_trigger_source_config+0x16>
 18a:	bf00      	nop
 18c:	40007000 	.word	0x40007000

00000190 <dac_software_trigger_enable>:
 190:	4b05      	ldr	r3, [pc, #20]	; (1a8 <dac_software_trigger_enable+0x18>)
 192:	f8d3 2404 	ldr.w	r2, [r3, #1028]	; 0x404
 196:	b920      	cbnz	r0, 1a2 <dac_software_trigger_enable+0x12>
 198:	f042 0201 	orr.w	r2, r2, #1
 19c:	f8c3 2404 	str.w	r2, [r3, #1028]	; 0x404
 1a0:	4770      	bx	lr
 1a2:	f042 0202 	orr.w	r2, r2, #2
 1a6:	e7f9      	b.n	19c <dac_software_trigger_enable+0xc>
 1a8:	40007000 	.word	0x40007000

000001ac <dac_software_trigger_disable>:
 1ac:	4b05      	ldr	r3, [pc, #20]	; (1c4 <dac_software_trigger_disable+0x18>)
 1ae:	f8d3 2404 	ldr.w	r2, [r3, #1028]	; 0x404
 1b2:	b920      	cbnz	r0, 1be <dac_software_trigger_disable+0x12>
 1b4:	f022 0201 	bic.w	r2, r2, #1
 1b8:	f8c3 2404 	str.w	r2, [r3, #1028]	; 0x404
 1bc:	4770      	bx	lr
 1be:	f022 0202 	bic.w	r2, r2, #2
 1c2:	e7f9      	b.n	1b8 <dac_software_trigger_disable+0xc>
 1c4:	40007000 	.word	0x40007000

000001c8 <dac_wave_mode_config>:
 1c8:	4b0b      	ldr	r3, [pc, #44]	; (1f8 <dac_wave_mode_config+0x30>)
 1ca:	f8d3 2400 	ldr.w	r2, [r3, #1024]	; 0x400
 1ce:	b948      	cbnz	r0, 1e4 <dac_wave_mode_config+0x1c>
 1d0:	f022 02c0 	bic.w	r2, r2, #192	; 0xc0
 1d4:	f8c3 2400 	str.w	r2, [r3, #1024]	; 0x400
 1d8:	f8d3 2400 	ldr.w	r2, [r3, #1024]	; 0x400
 1dc:	430a      	orrs	r2, r1
 1de:	f8c3 2400 	str.w	r2, [r3, #1024]	; 0x400
 1e2:	4770      	bx	lr
 1e4:	f422 0240 	bic.w	r2, r2, #12582912	; 0xc00000
 1e8:	f8c3 2400 	str.w	r2, [r3, #1024]	; 0x400
 1ec:	f8d3 2400 	ldr.w	r2, [r3, #1024]	; 0x400
 1f0:	ea42 4201 	orr.w	r2, r2, r1, lsl #16
 1f4:	e7f3      	b.n	1de <dac_wave_mode_config+0x16>
 1f6:	bf00      	nop
 1f8:	40007000 	.word	0x40007000

000001fc <dac_wave_bit_width_config>:
 1fc:	4b0b      	ldr	r3, [pc, #44]	; (22c <dac_wave_bit_width_config+0x30>)
 1fe:	f8d3 2400 	ldr.w	r2, [r3, #1024]	; 0x400
 202:	b948      	cbnz	r0, 218 <dac_wave_bit_width_config+0x1c>
 204:	f422 6270 	bic.w	r2, r2, #3840	; 0xf00
 208:	f8c3 2400 	str.w	r2, [r3, #1024]	; 0x400
 20c:	f8d3 2400 	ldr.w	r2, [r3, #1024]	; 0x400
 210:	430a      	orrs	r2, r1
 212:	f8c3 2400 	str.w	r2, [r3, #1024]	; 0x400
 216:	4770      	bx	lr
 218:	f022 6270 	bic.w	r2, r2, #251658240	; 0xf000000
 21c:	f8c3 2400 	str.w	r2, [r3, #1024]	; 0x400
 220:	f8d3 2400 	ldr.w	r2, [r3, #1024]	; 0x400
 224:	ea42 4201 	orr.w	r2, r2, r1, lsl #16
 228:	e7f3      	b.n	212 <dac_wave_bit_width_config+0x16>
 22a:	bf00      	nop
 22c:	40007000 	.word	0x40007000

00000230 <dac_lfsr_noise_config>:
 230:	f7ff bffe 	b.w	1fc <dac_wave_bit_width_config>

00000234 <dac_triangle_noise_config>:
 234:	f7ff bffe 	b.w	1fc <dac_wave_bit_width_config>

00000238 <dac_concurrent_enable>:
 238:	4a03      	ldr	r2, [pc, #12]	; (248 <dac_concurrent_enable+0x10>)
 23a:	f8d2 3400 	ldr.w	r3, [r2, #1024]	; 0x400
 23e:	f043 1301 	orr.w	r3, r3, #65537	; 0x10001
 242:	f8c2 3400 	str.w	r3, [r2, #1024]	; 0x400
 246:	4770      	bx	lr
 248:	40007000 	.word	0x40007000

0000024c <dac_concurrent_disable>:
 24c:	4a03      	ldr	r2, [pc, #12]	; (25c <dac_concurrent_disable+0x10>)
 24e:	f8d2 3400 	ldr.w	r3, [r2, #1024]	; 0x400
 252:	f023 1301 	bic.w	r3, r3, #65537	; 0x10001
 256:	f8c2 3400 	str.w	r3, [r2, #1024]	; 0x400
 25a:	4770      	bx	lr
 25c:	40007000 	.word	0x40007000

00000260 <dac_concurrent_software_trigger_enable>:
 260:	4a03      	ldr	r2, [pc, #12]	; (270 <dac_concurrent_software_trigger_enable+0x10>)
 262:	f8d2 3404 	ldr.w	r3, [r2, #1028]	; 0x404
 266:	f043 0303 	orr.w	r3, r3, #3
 26a:	f8c2 3404 	str.w	r3, [r2, #1028]	; 0x404
 26e:	4770      	bx	lr
 270:	40007000 	.word	0x40007000

00000274 <dac_concurrent_software_trigger_disable>:
 274:	4a03      	ldr	r2, [pc, #12]	; (284 <dac_concurrent_software_trigger_disable+0x10>)
 276:	f8d2 3404 	ldr.w	r3, [r2, #1028]	; 0x404
 27a:	f023 0303 	bic.w	r3, r3, #3
 27e:	f8c2 3404 	str.w	r3, [r2, #1028]	; 0x404
 282:	4770      	bx	lr
 284:	40007000 	.word	0x40007000

00000288 <dac_concurrent_output_buffer_enable>:
 288:	4a03      	ldr	r2, [pc, #12]	; (298 <dac_concurrent_output_buffer_enable+0x10>)
 28a:	f8d2 3400 	ldr.w	r3, [r2, #1024]	; 0x400
 28e:	f023 1302 	bic.w	r3, r3, #131074	; 0x20002
 292:	f8c2 3400 	str.w	r3, [r2, #1024]	; 0x400
 296:	4770      	bx	lr
 298:	40007000 	.word	0x40007000

0000029c <dac_concurrent_output_buffer_disable>:
 29c:	4a03      	ldr	r2, [pc, #12]	; (2ac <dac_concurrent_output_buffer_disable+0x10>)
 29e:	f8d2 3400 	ldr.w	r3, [r2, #1024]	; 0x400
 2a2:	f043 1302 	orr.w	r3, r3, #131074	; 0x20002
 2a6:	f8c2 3400 	str.w	r3, [r2, #1024]	; 0x400
 2aa:	4770      	bx	lr
 2ac:	40007000 	.word	0x40007000

000002b0 <dac_concurrent_data_set>:
 2b0:	2801      	cmp	r0, #1
 2b2:	d008      	beq.n	2c6 <dac_concurrent_data_set+0x16>
 2b4:	2802      	cmp	r0, #2
 2b6:	d00c      	beq.n	2d2 <dac_concurrent_data_set+0x22>
 2b8:	b980      	cbnz	r0, 2dc <dac_concurrent_data_set+0x2c>
 2ba:	4b09      	ldr	r3, [pc, #36]	; (2e0 <dac_concurrent_data_set+0x30>)
 2bc:	ea41 4102 	orr.w	r1, r1, r2, lsl #16
 2c0:	f8c3 1420 	str.w	r1, [r3, #1056]	; 0x420
 2c4:	4770      	bx	lr
 2c6:	4b06      	ldr	r3, [pc, #24]	; (2e0 <dac_concurrent_data_set+0x30>)
 2c8:	ea41 4102 	orr.w	r1, r1, r2, lsl #16
 2cc:	f8c3 1424 	str.w	r1, [r3, #1060]	; 0x424
 2d0:	4770      	bx	lr
 2d2:	4b03      	ldr	r3, [pc, #12]	; (2e0 <dac_concurrent_data_set+0x30>)
 2d4:	ea41 2102 	orr.w	r1, r1, r2, lsl #8
 2d8:	f8c3 1428 	str.w	r1, [r3, #1064]	; 0x428
 2dc:	4770      	bx	lr
 2de:	bf00      	nop
 2e0:	40007000 	.word	0x40007000

gd32f20x_dbg.o:     file format elf32-littlearm


Disassembly of section .text:

00000000 <dbg_id_get>:
   0:	4b01      	ldr	r3, [pc, #4]	; (8 <dbg_id_get+0x8>)
   2:	6818      	ldr	r0, [r3, #0]
   4:	4770      	bx	lr
   6:	bf00      	nop
   8:	e0042000 	.word	0xe0042000

0000000c <dbg_low_power_enable>:
   c:	4a02      	ldr	r2, [pc, #8]	; (18 <dbg_low_power_enable+0xc>)
   e:	6853      	ldr	r3, [r2, #4]
  10:	4303      	orrs	r3, r0
  12:	6053      	str	r3, [r2, #4]
  14:	4770      	bx	lr
  16:	bf00      	nop
  18:	e0042000 	.word	0xe0042000

0000001c <dbg_low_power_disable>:
  1c:	4a02      	ldr	r2, [pc, #8]	; (28 <dbg_low_power_disable+0xc>)
  1e:	6853      	ldr	r3, [r2, #4]
  20:	ea23 0300 	bic.w	r3, r3, r0
  24:	6053      	str	r3, [r2, #4]
  26:	4770      	bx	lr
  28:	e0042000 	.word	0xe0042000

0000002c <dbg_periph_enable>:
  2c:	4a02      	ldr	r2, [pc, #8]	; (38 <dbg_periph_enable+0xc>)
  2e:	6853      	ldr	r3, [r2, #4]
  30:	4303      	orrs	r3, r0
  32:	6053      	str	r3, [r2, #4]
  34:	4770      	bx	lr
  36:	bf00      	nop
  38:	e0042000 	.word	0xe0042000

0000003c <dbg_periph_disable>:
  3c:	4a02      	ldr	r2, [pc, #8]	; (48 <dbg_periph_disable+0xc>)
  3e:	6853      	ldr	r3, [r2, #4]
  40:	ea23 0300 	bic.w	r3, r3, r0
  44:	6053      	str	r3, [r2, #4]
  46:	4770      	bx	lr
  48:	e0042000 	.word	0xe0042000

0000004c <dbg_trace_pin_enable>:
  4c:	4a02      	ldr	r2, [pc, #8]	; (58 <dbg_trace_pin_enable+0xc>)
  4e:	6853      	ldr	r3, [r2, #4]
  50:	f043 0320 	orr.w	r3, r3, #32
  54:	6053      	str	r3, [r2, #4]
  56:	4770      	bx	lr
  58:	e0042000 	.word	0xe0042000

0000005c <dbg_trace_pin_disable>:
  5c:	4a02      	ldr	r2, [pc, #8]	; (68 <dbg_trace_pin_disable+0xc>)
  5e:	6853      	ldr	r3, [r2, #4]
  60:	f023 0320 	bic.w	r3, r3, #32
  64:	6053      	str	r3, [r2, #4]
  66:	4770      	bx	lr
  68:	e0042000 	.word	0xe0042000

0000006c <dbg_trace_pin_mode_set>:
  6c:	4b04      	ldr	r3, [pc, #16]	; (80 <dbg_trace_pin_mode_set+0x14>)
  6e:	685a      	ldr	r2, [r3, #4]
  70:	f022 02c0 	bic.w	r2, r2, #192	; 0xc0
  74:	605a      	str	r2, [r3, #4]
  76:	685a      	ldr	r2, [r3, #4]
  78:	4302      	orrs	r2, r0
  7a:	605a      	str	r2, [r3, #4]
  7c:	4770      	bx	lr
  7e:	bf00      	nop
  80:	e0042000 	.word	0xe0042000

gd32f20x_dci.o:     file format elf32-littlearm


Disassembly of section .text:

00000000 <dci_deinit>:
   0:	b508      	push	{r3, lr}
   2:	f44f 50e0 	mov.w	r0, #7168	; 0x1c00
   6:	f7ff fffe 	bl	0 <rcu_periph_reset_enable>
   a:	e8bd 4008 	ldmia.w	sp!, {r3, lr}
   e:	f44f 50e0 	mov.w	r0, #7168	; 0x1c00
  12:	f7ff bffe 	b.w	0 <rcu_periph_reset_disable>

00000016 <dci_init>:
  16:	4a0a      	ldr	r2, [pc, #40]	; (40 <dci_init+0x2a>)
  18:	6813      	ldr	r3, [r2, #0]
  1a:	f423 4380 	bic.w	r3, r3, #16384	; 0x4000
  1e:	f023 0301 	bic.w	r3, r3, #1
  22:	6013      	str	r3, [r2, #0]
  24:	e9d0 3100 	ldrd	r3, r1, [r0]
  28:	430b      	orrs	r3, r1
  2a:	6881      	ldr	r1, [r0, #8]
  2c:	430b      	orrs	r3, r1
  2e:	68c1      	ldr	r1, [r0, #12]
  30:	430b      	orrs	r3, r1
  32:	6901      	ldr	r1, [r0, #16]
  34:	430b      	orrs	r3, r1
  36:	6941      	ldr	r1, [r0, #20]
  38:	430b      	orrs	r3, r1
  3a:	6013      	str	r3, [r2, #0]
  3c:	4770      	bx	lr
  3e:	bf00      	nop
  40:	50050000 	.word	0x50050000

00000044 <dci_enable>:
  44:	4a02      	ldr	r2, [pc, #8]	; (50 <dci_enable+0xc>)
  46:	6813      	ldr	r3, [r2, #0]
  48:	f443 4380 	orr.w	r3, r3, #16384	; 0x4000
  4c:	6013      	str	r3, [r2, #0]
  4e:	4770      	bx	lr
  50:	50050000 	.word	0x50050000

00000054 <dci_disable>:
  54:	4a02      	ldr	r2, [pc, #8]	; (60 <dci_disable+0xc>)
  56:	6813      	ldr	r3, [r2, #0]
  58:	f423 4380 	bic.w	r3, r3, #16384	; 0x4000
  5c:	6013      	str	r3, [r2, #0]
  5e:	4770      	bx	lr
  60:	50050000 	.word	0x50050000

00000064 <dci_capture_enable>:
  64:	4a02      	ldr	r2, [pc, #8]	; (70 <dci_capture_enable+0xc>)
  66:	6813      	ldr	r3, [r2, #0]
  68:	f043 0301 	orr.w	r3, r3, #1
  6c:	6013      	str	r3, [r2, #0]
  6e:	4770      	bx	lr
  70:	50050000 	.word	0x50050000

00000074 <dci_capture_disable>:
  74:	4a02      	ldr	r2, [pc, #8]	; (80 <dci_capture_disable+0xc>)
  76:	6813      	ldr	r3, [r2, #0]
  78:	f023 0301 	bic.w	r3, r3, #1
  7c:	6013      	str	r3, [r2, #0]
  7e:	4770      	bx	lr
  80:	50050000 	.word	0x50050000

00000084 <dci_jpeg_enable>:
  84:	4a02      	ldr	r2, [pc, #8]	; (90 <dci_jpeg_enable+0xc>)
  86:	6813      	ldr	r3, [r2, #0]
  88:	f043 0308 	orr.w	r3, r3, #8
  8c:	6013      	str	r3, [r2, #0]
  8e:	4770      	bx	lr
  90:	50050000 	.word	0x50050000

00000094 <dci_jpeg_disable>:
  94:	4a02      	ldr	r2, [pc, #8]	; (a0 <dci_jpeg_disable+0xc>)
  96:	6813      	ldr	r3, [r2, #0]
  98:	f023 0308 	bic.w	r3, r3, #8
  9c:	6013      	str	r3, [r2, #0]
  9e:	4770      	bx	lr
  a0:	50050000 	.word	0x50050000

000000a4 <dci_crop_window_enable>:
  a4:	4a02      	ldr	r2, [pc, #8]	; (b0 <dci_crop_window_enable+0xc>)
  a6:	6813      	ldr	r3, [r2, #0]
  a8:	f043 0304 	orr.w	r3, r3, #4
  ac:	6013      	str	r3, [r2, #0]
  ae:	4770      	bx	lr
  b0:	50050000 	.word	0x50050000

000000b4 <dci_crop_window_disable>:
  b4:	4a02      	ldr	r2, [pc, #8]	; (c0 <dci_crop_window_disable+0xc>)
  b6:	6813      	ldr	r3, [r2, #0]
  b8:	f023 0304 	bic.w	r3, r3, #4
  bc:	6013      	str	r3, [r2, #0]
  be:	4770      	bx	lr
  c0:	50050000 	.word	0x50050000

000000c4 <dci_crop_window_config>:
  c4:	ea40 4001 	orr.w	r0, r0, r1, lsl #16
  c8:	4902      	ldr	r1, [pc, #8]	; (d4 <dci_crop_window_config+0x10>)
  ca:	ea42 4203 	orr.w	r2, r2, r3, lsl #16
  ce:	6208      	str	r0, [r1, #32]
  d0:	624a      	str	r2, [r1, #36]	; 0x24
  d2:	4770      	bx	lr
  d4:	50050000 	.word	0x50050000

000000d8 <dci_embedded_sync_enable>:
  d8:	4a02      	ldr	r2, [pc, #8]	; (e4 <dci_embedded_sync_enable+0xc>)
  da:	6813      	ldr	r3, [r2, #0]
  dc:	f043 0310 	orr.w	r3, r3, #16
  e0:	6013      	str	r3, [r2, #0]
  e2:	4770      	bx	lr
  e4:	50050000 	.word	0x50050000

000000e8 <dci_embedded_sync_disable>:
  e8:	4a02      	ldr	r2, [pc, #8]	; (f4 <dci_embedded_sync_disable+0xc>)
  ea:	6813      	ldr	r3, [r2, #0]
  ec:	f023 0310 	bic.w	r3, r3, #16
  f0:	6013      	str	r3, [r2, #0]
  f2:	4770      	bx	lr
  f4:	50050000 	.word	0x50050000

000000f8 <dci_sync_codes_config>:
  f8:	061b      	lsls	r3, r3, #24
  fa:	ea43 4302 	orr.w	r3, r3, r2, lsl #16
  fe:	4303      	orrs	r3, r0
 100:	4a02      	ldr	r2, [pc, #8]	; (10c <dci_sync_codes_config+0x14>)
 102:	ea43 2301 	orr.w	r3, r3, r1, lsl #8
 106:	6193      	str	r3, [r2, #24]
 108:	4770      	bx	lr
 10a:	bf00      	nop
 10c:	50050000 	.word	0x50050000

00000110 <dci_sync_codes_unmask_config>:
 110:	061b      	lsls	r3, r3, #24
 112:	ea43 4302 	orr.w	r3, r3, r2, lsl #16
 116:	4303      	orrs	r3, r0
 118:	4a02      	ldr	r2, [pc, #8]	; (124 <dci_sync_codes_unmask_config+0x14>)
 11a:	ea43 2301 	orr.w	r3, r3, r1, lsl #8
 11e:	61d3      	str	r3, [r2, #28]
 120:	4770      	bx	lr
 122:	bf00      	nop
 124:	50050000 	.word	0x50050000

00000128 <dci_data_read>:
 128:	4b01      	ldr	r3, [pc, #4]	; (130 <dci_data_read+0x8>)
 12a:	6a98      	ldr	r0, [r3, #40]	; 0x28
 12c:	4770      	bx	lr
 12e:	bf00      	nop
 130:	50050000 	.word	0x50050000

00000134 <dci_flag_get>:
 134:	4b04      	ldr	r3, [pc, #16]	; (148 <dci_flag_get+0x14>)
 136:	2800      	cmp	r0, #0
 138:	bfb4      	ite	lt
 13a:	689b      	ldrlt	r3, [r3, #8]
 13c:	685b      	ldrge	r3, [r3, #4]
 13e:	4203      	tst	r3, r0
 140:	bf14      	ite	ne
 142:	2001      	movne	r0, #1
 144:	2000      	moveq	r0, #0
 146:	4770      	bx	lr
 148:	50050000 	.word	0x50050000

0000014c <dci_interrupt_enable>:
 14c:	4a02      	ldr	r2, [pc, #8]	; (158 <dci_interrupt_enable+0xc>)
 14e:	68d3      	ldr	r3, [r2, #12]
 150:	4303      	orrs	r3, r0
 152:	60d3      	str	r3, [r2, #12]
 154:	4770      	bx	lr
 156:	bf00      	nop
 158:	50050000 	.word	0x50050000

0000015c <dci_interrupt_disable>:
 15c:	4a02      	ldr	r2, [pc, #8]	; (168 <dci_interrupt_disable+0xc>)
 15e:	68d3      	ldr	r3, [r2, #12]
 160:	ea23 0300 	bic.w	r3, r3, r0
 164:	60d3      	str	r3, [r2, #12]
 166:	4770      	bx	lr
 168:	50050000 	.word	0x50050000

0000016c <dci_interrupt_flag_get>:
 16c:	4b03      	ldr	r3, [pc, #12]	; (17c <dci_interrupt_flag_get+0x10>)
 16e:	691b      	ldr	r3, [r3, #16]
 170:	4203      	tst	r3, r0
 172:	bf14      	ite	ne
 174:	2001      	movne	r0, #1
 176:	2000      	moveq	r0, #0
 178:	4770      	bx	lr
 17a:	bf00      	nop
 17c:	50050000 	.word	0x50050000

00000180 <dci_interrupt_flag_clear>:
 180:	4a02      	ldr	r2, [pc, #8]	; (18c <dci_interrupt_flag_clear+0xc>)
 182:	6953      	ldr	r3, [r2, #20]
 184:	4303      	orrs	r3, r0
 186:	6153      	str	r3, [r2, #20]
 188:	4770      	bx	lr
 18a:	bf00      	nop
 18c:	50050000 	.word	0x50050000

gd32f20x_dma.o:     file format elf32-littlearm


Disassembly of section .text:

00000000 <dma_deinit>:
   0:	2314      	movs	r3, #20
   2:	fb03 0301 	mla	r3, r3, r1, r0
   6:	689a      	ldr	r2, [r3, #8]
   8:	b530      	push	{r4, r5, lr}
   a:	f022 0201 	bic.w	r2, r2, #1
   e:	609a      	str	r2, [r3, #8]
  10:	2200      	movs	r2, #0
  12:	609a      	str	r2, [r3, #8]
  14:	60da      	str	r2, [r3, #12]
  16:	611a      	str	r2, [r3, #16]
  18:	615a      	str	r2, [r3, #20]
  1a:	230f      	movs	r3, #15
  1c:	6844      	ldr	r4, [r0, #4]
  1e:	008d      	lsls	r5, r1, #2
  20:	40ab      	lsls	r3, r5
  22:	4323      	orrs	r3, r4
  24:	6043      	str	r3, [r0, #4]
  26:	4b04      	ldr	r3, [pc, #16]	; (38 <dma_deinit+0x38>)
  28:	4298      	cmp	r0, r3
  2a:	d103      	bne.n	34 <dma_deinit+0x34>
  2c:	2905      	cmp	r1, #5
  2e:	bf08      	it	eq
  30:	f8c3 2300 	streq.w	r2, [r3, #768]	; 0x300
  34:	bd30      	pop	{r4, r5, pc}
  36:	bf00      	nop
  38:	40020400 	.word	0x40020400

0000003c <dma_struct_para_init>:
  3c:	2300      	movs	r3, #0
  3e:	e9c0 3300 	strd	r3, r3, [r0]
  42:	e9c0 3302 	strd	r3, r3, [r0, #8]
  46:	e9c0 3304 	strd	r3, r3, [r0, #16]
  4a:	8303      	strh	r3, [r0, #24]
  4c:	7683      	strb	r3, [r0, #26]
  4e:	4770      	bx	lr

00000050 <dma_init>:
  50:	2314      	movs	r3, #20
  52:	fb03 0101 	mla	r1, r3, r1, r0
  56:	6813      	ldr	r3, [r2, #0]
  58:	b510      	push	{r4, lr}
  5a:	610b      	str	r3, [r1, #16]
  5c:	6893      	ldr	r3, [r2, #8]
  5e:	614b      	str	r3, [r1, #20]
  60:	8a13      	ldrh	r3, [r2, #16]
  62:	60cb      	str	r3, [r1, #12]
  64:	68d4      	ldr	r4, [r2, #12]
  66:	6853      	ldr	r3, [r2, #4]
  68:	6888      	ldr	r0, [r1, #8]
  6a:	4323      	orrs	r3, r4
  6c:	6954      	ldr	r4, [r2, #20]
  6e:	f420 507c 	bic.w	r0, r0, #16128	; 0x3f00
  72:	4323      	orrs	r3, r4
  74:	4303      	orrs	r3, r0
  76:	608b      	str	r3, [r1, #8]
  78:	7e13      	ldrb	r3, [r2, #24]
  7a:	2b01      	cmp	r3, #1
  7c:	688b      	ldr	r3, [r1, #8]
  7e:	bf0c      	ite	eq
  80:	f043 0340 	orreq.w	r3, r3, #64	; 0x40
  84:	f023 0340 	bicne.w	r3, r3, #64	; 0x40
  88:	608b      	str	r3, [r1, #8]
  8a:	7e53      	ldrb	r3, [r2, #25]
  8c:	2b01      	cmp	r3, #1
  8e:	688b      	ldr	r3, [r1, #8]
  90:	bf0c      	ite	eq
  92:	f043 0380 	orreq.w	r3, r3, #128	; 0x80
  96:	f023 0380 	bicne.w	r3, r3, #128	; 0x80
  9a:	608b      	str	r3, [r1, #8]
  9c:	7e93      	ldrb	r3, [r2, #26]
  9e:	b923      	cbnz	r3, aa <dma_init+0x5a>
  a0:	688b      	ldr	r3, [r1, #8]
  a2:	f023 0310 	bic.w	r3, r3, #16
  a6:	608b      	str	r3, [r1, #8]
  a8:	bd10      	pop	{r4, pc}
  aa:	688b      	ldr	r3, [r1, #8]
  ac:	f043 0310 	orr.w	r3, r3, #16
  b0:	e7f9      	b.n	a6 <dma_init+0x56>

000000b2 <dma_circulation_enable>:
  b2:	2314      	movs	r3, #20
  b4:	4359      	muls	r1, r3
  b6:	3008      	adds	r0, #8
  b8:	580b      	ldr	r3, [r1, r0]
  ba:	f043 0320 	orr.w	r3, r3, #32
  be:	500b      	str	r3, [r1, r0]
  c0:	4770      	bx	lr

000000c2 <dma_circulation_disable>:
  c2:	2314      	movs	r3, #20
  c4:	4359      	muls	r1, r3
  c6:	3008      	adds	r0, #8
  c8:	580b      	ldr	r3, [r1, r0]
  ca:	f023 0320 	bic.w	r3, r3, #32
  ce:	500b      	str	r3, [r1, r0]
  d0:	4770      	bx	lr

000000d2 <dma_memory_to_memory_enable>:
  d2:	2314      	movs	r3, #20
  d4:	4359      	muls	r1, r3
  d6:	3008      	adds	r0, #8
  d8:	580b      	ldr	r3, [r1, r0]
  da:	f443 4380 	orr.w	r3, r3, #16384	; 0x4000
  de:	500b      	str	r3, [r1, r0]
  e0:	4770      	bx	lr

000000e2 <dma_memory_to_memory_disable>:
  e2:	2314      	movs	r3, #20
  e4:	4359      	muls	r1, r3
  e6:	3008      	adds	r0, #8
  e8:	580b      	ldr	r3, [r1, r0]
  ea:	f423 4380 	bic.w	r3, r3, #16384	; 0x4000
  ee:	500b      	str	r3, [r1, r0]
  f0:	4770      	bx	lr

000000f2 <dma_channel_enable>:
  f2:	2314      	movs	r3, #20
  f4:	4359      	muls	r1, r3
  f6:	3008      	adds	r0, #8
  f8:	580b      	ldr	r3, [r1, r0]
  fa:	f043 0301 	orr.w	r3, r3, #1
  fe:	500b      	str	r3, [r1, r0]
 100:	4770      	bx	lr

00000102 <dma_channel_disable>:
 102:	2314      	movs	r3, #20
 104:	4359      	muls	r1, r3
 106:	3008      	adds	r0, #8
 108:	580b      	ldr	r3, [r1, r0]
 10a:	f023 0301 	bic.w	r3, r3, #1
 10e:	500b      	str	r3, [r1, r0]
 110:	4770      	bx	lr

00000112 <dma_periph_address_config>:
 112:	2314      	movs	r3, #20
 114:	4359      	muls	r1, r3
 116:	3010      	adds	r0, #16
 118:	500a      	str	r2, [r1, r0]
 11a:	4770      	bx	lr

0000011c <dma_memory_address_config>:
 11c:	2314      	movs	r3, #20
 11e:	4359      	muls	r1, r3
 120:	4418      	add	r0, r3
 122:	500a      	str	r2, [r1, r0]
 124:	4770      	bx	lr

00000126 <dma_transfer_number_config>:
 126:	2314      	movs	r3, #20
 128:	4359      	muls	r1, r3
 12a:	300c      	adds	r0, #12
 12c:	b292      	uxth	r2, r2
 12e:	500a      	str	r2, [r1, r0]
 130:	4770      	bx	lr

00000132 <dma_transfer_number_get>:
 132:	2314      	movs	r3, #20
 134:	4359      	muls	r1, r3
 136:	300c      	adds	r0, #12
 138:	5808      	ldr	r0, [r1, r0]
 13a:	4770      	bx	lr

0000013c <dma_priority_config>:
 13c:	2314      	movs	r3, #20
 13e:	4359      	muls	r1, r3
 140:	3008      	adds	r0, #8
 142:	580b      	ldr	r3, [r1, r0]
 144:	f423 5340 	bic.w	r3, r3, #12288	; 0x3000
 148:	4313      	orrs	r3, r2
 14a:	500b      	str	r3, [r1, r0]
 14c:	4770      	bx	lr

0000014e <dma_memory_width_config>:
 14e:	2314      	movs	r3, #20
 150:	4359      	muls	r1, r3
 152:	3008      	adds	r0, #8
 154:	580b      	ldr	r3, [r1, r0]
 156:	f423 6340 	bic.w	r3, r3, #3072	; 0xc00
 15a:	4313      	orrs	r3, r2
 15c:	500b      	str	r3, [r1, r0]
 15e:	4770      	bx	lr

00000160 <dma_periph_width_config>:
 160:	2314      	movs	r3, #20
 162:	4359      	muls	r1, r3
 164:	3008      	adds	r0, #8
 166:	580b      	ldr	r3, [r1, r0]
 168:	f423 7340 	bic.w	r3, r3, #768	; 0x300
 16c:	4313      	orrs	r3, r2
 16e:	500b      	str	r3, [r1, r0]
 170:	4770      	bx	lr

00000172 <dma_memory_increase_enable>:
 172:	2314      	movs	r3, #20
 174:	4359      	muls	r1, r3
 176:	3008      	adds	r0, #8
 178:	580b      	ldr	r3, [r1, r0]
 17a:	f043 0380 	orr.w	r3, r3, #128	; 0x80
 17e:	500b      	str	r3, [r1, r0]
 180:	4770      	bx	lr

00000182 <dma_memory_increase_disable>:
 182:	2314      	movs	r3, #20
 184:	4359      	muls	r1, r3
 186:	3008      	adds	r0, #8
 188:	580b      	ldr	r3, [r1, r0]
 18a:	f023 0380 	bic.w	r3, r3, #128	; 0x80
 18e:	500b      	str	r3, [r1, r0]
 190:	4770      	bx	lr

00000192 <dma_periph_increase_enable>:
 192:	2314      	movs	r3, #20
 194:	4359      	muls	r1, r3
 196:	3008      	adds	r0, #8
 198:	580b      	ldr	r3, [r1, r0]
 19a:	f043 0340 	orr.w	r3, r3, #64	; 0x40
 19e:	500b      	str	r3, [r1, r0]
 1a0:	4770      	bx	lr

000001a2 <dma_periph_increase_disable>:
 1a2:	2314      	movs	r3, #20
 1a4:	4359      	muls	r1, r3
 1a6:	3008      	adds	r0, #8
 1a8:	580b      	ldr	r3, [r1, r0]
 1aa:	f023 0340 	bic.w	r3, r3, #64	; 0x40
 1ae:	500b      	str	r3, [r1, r0]
 1b0:	4770      	bx	lr

000001b2 <dma_transfer_direction_config>:
 1b2:	2314      	movs	r3, #20
 1b4:	4359      	muls	r1, r3
 1b6:	3008      	adds	r0, #8
 1b8:	580b      	ldr	r3, [r1, r0]
 1ba:	b91a      	cbnz	r2, 1c4 <dma_transfer_direction_config+0x12>
 1bc:	f023 0310 	bic.w	r3, r3, #16
 1c0:	500b      	str	r3, [r1, r0]
 1c2:	4770      	bx	lr
 1c4:	f043 0310 	orr.w	r3, r3, #16
 1c8:	e7fa      	b.n	1c0 <dma_transfer_direction_config+0xe>

000001ca <dma_flag_get>:
 1ca:	6803      	ldr	r3, [r0, #0]
 1cc:	0089      	lsls	r1, r1, #2
 1ce:	408a      	lsls	r2, r1
 1d0:	421a      	tst	r2, r3
 1d2:	bf14      	ite	ne
 1d4:	2001      	movne	r0, #1
 1d6:	2000      	moveq	r0, #0
 1d8:	4770      	bx	lr

000001da <dma_flag_clear>:
 1da:	6843      	ldr	r3, [r0, #4]
 1dc:	0089      	lsls	r1, r1, #2
 1de:	408a      	lsls	r2, r1
 1e0:	431a      	orrs	r2, r3
 1e2:	6042      	str	r2, [r0, #4]
 1e4:	4770      	bx	lr

000001e6 <dma_interrupt_flag_get>:
 1e6:	3a01      	subs	r2, #1
 1e8:	b510      	push	{r4, lr}
 1ea:	4604      	mov	r4, r0
 1ec:	2a07      	cmp	r2, #7
 1ee:	d805      	bhi.n	1fc <dma_interrupt_flag_get+0x16>
 1f0:	e8df f002 	tbb	[pc, r2]
 1f4:	17040533 	.word	0x17040533
 1f8:	25040404 	.word	0x25040404
 1fc:	e7fe      	b.n	1fc <dma_interrupt_flag_get+0x16>
 1fe:	6803      	ldr	r3, [r0, #0]
 200:	2002      	movs	r0, #2
 202:	008a      	lsls	r2, r1, #2
 204:	4090      	lsls	r0, r2
 206:	4003      	ands	r3, r0
 208:	fa23 f002 	lsr.w	r0, r3, r2
 20c:	2314      	movs	r3, #20
 20e:	fb03 4301 	mla	r3, r3, r1, r4
 212:	689b      	ldr	r3, [r3, #8]
 214:	f003 0302 	and.w	r3, r3, #2
 218:	b110      	cbz	r0, 220 <dma_interrupt_flag_get+0x3a>
 21a:	1e18      	subs	r0, r3, #0
 21c:	bf18      	it	ne
 21e:	2001      	movne	r0, #1
 220:	bd10      	pop	{r4, pc}
 222:	2304      	movs	r3, #4
 224:	6800      	ldr	r0, [r0, #0]
 226:	008a      	lsls	r2, r1, #2
 228:	4093      	lsls	r3, r2
 22a:	4003      	ands	r3, r0
 22c:	fa23 f002 	lsr.w	r0, r3, r2
 230:	2314      	movs	r3, #20
 232:	fb03 4301 	mla	r3, r3, r1, r4
 236:	689b      	ldr	r3, [r3, #8]
 238:	f003 0304 	and.w	r3, r3, #4
 23c:	e7ec      	b.n	218 <dma_interrupt_flag_get+0x32>
 23e:	2308      	movs	r3, #8
 240:	6800      	ldr	r0, [r0, #0]
 242:	008a      	lsls	r2, r1, #2
 244:	4093      	lsls	r3, r2
 246:	4003      	ands	r3, r0
 248:	fa23 f002 	lsr.w	r0, r3, r2
 24c:	2314      	movs	r3, #20
 24e:	fb03 4301 	mla	r3, r3, r1, r4
 252:	689b      	ldr	r3, [r3, #8]
 254:	f003 0308 	and.w	r3, r3, #8
 258:	e7de      	b.n	218 <dma_interrupt_flag_get+0x32>
 25a:	230f      	movs	r3, #15
 25c:	6800      	ldr	r0, [r0, #0]
 25e:	008a      	lsls	r2, r1, #2
 260:	4093      	lsls	r3, r2
 262:	4003      	ands	r3, r0
 264:	fa23 f002 	lsr.w	r0, r3, r2
 268:	2314      	movs	r3, #20
 26a:	fb03 4101 	mla	r1, r3, r1, r4
 26e:	688b      	ldr	r3, [r1, #8]
 270:	f003 030e 	and.w	r3, r3, #14
 274:	e7d0      	b.n	218 <dma_interrupt_flag_get+0x32>

00000276 <dma_interrupt_flag_clear>:
 276:	f7ff bffe 	b.w	1da <dma_flag_clear>

0000027a <dma_interrupt_enable>:
 27a:	2314      	movs	r3, #20
 27c:	4359      	muls	r1, r3
 27e:	3008      	adds	r0, #8
 280:	580b      	ldr	r3, [r1, r0]
 282:	4313      	orrs	r3, r2
 284:	500b      	str	r3, [r1, r0]
 286:	4770      	bx	lr

00000288 <dma_interrupt_disable>:
 288:	2314      	movs	r3, #20
 28a:	4359      	muls	r1, r3
 28c:	3008      	adds	r0, #8
 28e:	580b      	ldr	r3, [r1, r0]
 290:	ea23 0302 	bic.w	r3, r3, r2
 294:	500b      	str	r3, [r1, r0]
 296:	4770      	bx	lr

00000298 <dma_1_channel_5_fulldata_transfer_enable>:
 298:	4a03      	ldr	r2, [pc, #12]	; (2a8 <dma_1_channel_5_fulldata_transfer_enable+0x10>)
 29a:	f8d2 3700 	ldr.w	r3, [r2, #1792]	; 0x700
 29e:	f043 0320 	orr.w	r3, r3, #32
 2a2:	f8c2 3700 	str.w	r3, [r2, #1792]	; 0x700
 2a6:	4770      	bx	lr
 2a8:	40020000 	.word	0x40020000

000002ac <dma_1_channel_5_fulldata_transfer_disable>:
 2ac:	4a03      	ldr	r2, [pc, #12]	; (2bc <dma_1_channel_5_fulldata_transfer_disable+0x10>)
 2ae:	f8d2 3700 	ldr.w	r3, [r2, #1792]	; 0x700
 2b2:	f023 0320 	bic.w	r3, r3, #32
 2b6:	f8c2 3700 	str.w	r3, [r2, #1792]	; 0x700
 2ba:	4770      	bx	lr
 2bc:	40020000 	.word	0x40020000

gd32f20x_enet.o:     file format elf32-littlearm


Disassembly of section .text:

00000000 <enet_delay>:
       0:	2300      	movs	r3, #0
       2:	b082      	sub	sp, #8
       4:	9301      	str	r3, [sp, #4]
       6:	9001      	str	r0, [sp, #4]
       8:	9b01      	ldr	r3, [sp, #4]
       a:	b90b      	cbnz	r3, 10 <enet_delay+0x10>
       c:	b002      	add	sp, #8
       e:	4770      	bx	lr
      10:	9b01      	ldr	r3, [sp, #4]
      12:	3b01      	subs	r3, #1
      14:	9301      	str	r3, [sp, #4]
      16:	e7f7      	b.n	8 <enet_delay+0x8>

00000018 <enet_initpara_config>:
      18:	2880      	cmp	r0, #128	; 0x80
      1a:	d05c      	beq.n	d6 <enet_initpara_config+0xbe>
      1c:	d815      	bhi.n	4a <enet_initpara_config+0x32>
      1e:	2808      	cmp	r0, #8
      20:	d80c      	bhi.n	3c <enet_initpara_config+0x24>
      22:	2800      	cmp	r0, #0
      24:	f000 8087 	beq.w	136 <enet_initpara_config+0x11e>
      28:	3801      	subs	r0, #1
      2a:	2807      	cmp	r0, #7
      2c:	f200 8083 	bhi.w	136 <enet_initpara_config+0x11e>
      30:	e8df f000 	tbb	[pc, r0]
      34:	2e812720 	.word	0x2e812720
      38:	35818181 	.word	0x35818181
      3c:	2820      	cmp	r0, #32
      3e:	d03c      	beq.n	ba <enet_initpara_config+0xa2>
      40:	2840      	cmp	r0, #64	; 0x40
      42:	d041      	beq.n	c8 <enet_initpara_config+0xb0>
      44:	2810      	cmp	r0, #16
      46:	d031      	beq.n	ac <enet_initpara_config+0x94>
      48:	4770      	bx	lr
      4a:	f5b0 6f00 	cmp.w	r0, #2048	; 0x800
      4e:	d05e      	beq.n	10e <enet_initpara_config+0xf6>
      50:	d809      	bhi.n	66 <enet_initpara_config+0x4e>
      52:	f5b0 7f00 	cmp.w	r0, #512	; 0x200
      56:	d04c      	beq.n	f2 <enet_initpara_config+0xda>
      58:	f5b0 6f80 	cmp.w	r0, #1024	; 0x400
      5c:	d050      	beq.n	100 <enet_initpara_config+0xe8>
      5e:	f5b0 7f80 	cmp.w	r0, #256	; 0x100
      62:	d03f      	beq.n	e4 <enet_initpara_config+0xcc>
      64:	4770      	bx	lr
      66:	f5b0 5f80 	cmp.w	r0, #4096	; 0x1000
      6a:	d057      	beq.n	11c <enet_initpara_config+0x104>
      6c:	f5b0 5f00 	cmp.w	r0, #8192	; 0x2000
      70:	d05b      	beq.n	12a <enet_initpara_config+0x112>
      72:	4770      	bx	lr
      74:	4b30      	ldr	r3, [pc, #192]	; (138 <enet_initpara_config+0x120>)
      76:	681a      	ldr	r2, [r3, #0]
      78:	f042 0201 	orr.w	r2, r2, #1
      7c:	e9c3 2100 	strd	r2, r1, [r3]
      80:	4770      	bx	lr
      82:	4b2d      	ldr	r3, [pc, #180]	; (138 <enet_initpara_config+0x120>)
      84:	681a      	ldr	r2, [r3, #0]
      86:	6099      	str	r1, [r3, #8]
      88:	f042 0202 	orr.w	r2, r2, #2
      8c:	601a      	str	r2, [r3, #0]
      8e:	4770      	bx	lr
      90:	4b29      	ldr	r3, [pc, #164]	; (138 <enet_initpara_config+0x120>)
      92:	681a      	ldr	r2, [r3, #0]
      94:	60d9      	str	r1, [r3, #12]
      96:	f042 0204 	orr.w	r2, r2, #4
      9a:	601a      	str	r2, [r3, #0]
      9c:	4770      	bx	lr
      9e:	4b26      	ldr	r3, [pc, #152]	; (138 <enet_initpara_config+0x120>)
      a0:	681a      	ldr	r2, [r3, #0]
      a2:	6119      	str	r1, [r3, #16]
      a4:	f042 0208 	orr.w	r2, r2, #8
      a8:	601a      	str	r2, [r3, #0]
      aa:	4770      	bx	lr
      ac:	4b22      	ldr	r3, [pc, #136]	; (138 <enet_initpara_config+0x120>)
      ae:	681a      	ldr	r2, [r3, #0]
      b0:	6159      	str	r1, [r3, #20]
      b2:	f042 0210 	orr.w	r2, r2, #16
      b6:	601a      	str	r2, [r3, #0]
      b8:	4770      	bx	lr
      ba:	4b1f      	ldr	r3, [pc, #124]	; (138 <enet_initpara_config+0x120>)
      bc:	681a      	ldr	r2, [r3, #0]
      be:	6199      	str	r1, [r3, #24]
      c0:	f042 0220 	orr.w	r2, r2, #32
      c4:	601a      	str	r2, [r3, #0]
      c6:	4770      	bx	lr
      c8:	4b1b      	ldr	r3, [pc, #108]	; (138 <enet_initpara_config+0x120>)
      ca:	681a      	ldr	r2, [r3, #0]
      cc:	61d9      	str	r1, [r3, #28]
      ce:	f042 0240 	orr.w	r2, r2, #64	; 0x40
      d2:	601a      	str	r2, [r3, #0]
      d4:	4770      	bx	lr
      d6:	4b18      	ldr	r3, [pc, #96]	; (138 <enet_initpara_config+0x120>)
      d8:	681a      	ldr	r2, [r3, #0]
      da:	6219      	str	r1, [r3, #32]
      dc:	f042 0280 	orr.w	r2, r2, #128	; 0x80
      e0:	601a      	str	r2, [r3, #0]
      e2:	4770      	bx	lr
      e4:	4b14      	ldr	r3, [pc, #80]	; (138 <enet_initpara_config+0x120>)
      e6:	681a      	ldr	r2, [r3, #0]
      e8:	6259      	str	r1, [r3, #36]	; 0x24
      ea:	f442 7280 	orr.w	r2, r2, #256	; 0x100
      ee:	601a      	str	r2, [r3, #0]
      f0:	4770      	bx	lr
      f2:	4b11      	ldr	r3, [pc, #68]	; (138 <enet_initpara_config+0x120>)
      f4:	681a      	ldr	r2, [r3, #0]
      f6:	6299      	str	r1, [r3, #40]	; 0x28
      f8:	f442 7200 	orr.w	r2, r2, #512	; 0x200
      fc:	601a      	str	r2, [r3, #0]
      fe:	4770      	bx	lr
     100:	4b0d      	ldr	r3, [pc, #52]	; (138 <enet_initpara_config+0x120>)
     102:	681a      	ldr	r2, [r3, #0]
     104:	62d9      	str	r1, [r3, #44]	; 0x2c
     106:	f442 6280 	orr.w	r2, r2, #1024	; 0x400
     10a:	601a      	str	r2, [r3, #0]
     10c:	4770      	bx	lr
     10e:	4b0a      	ldr	r3, [pc, #40]	; (138 <enet_initpara_config+0x120>)
     110:	681a      	ldr	r2, [r3, #0]
     112:	6319      	str	r1, [r3, #48]	; 0x30
     114:	f442 6200 	orr.w	r2, r2, #2048	; 0x800
     118:	601a      	str	r2, [r3, #0]
     11a:	4770      	bx	lr
     11c:	4b06      	ldr	r3, [pc, #24]	; (138 <enet_initpara_config+0x120>)
     11e:	681a      	ldr	r2, [r3, #0]
     120:	6359      	str	r1, [r3, #52]	; 0x34
     122:	f442 5280 	orr.w	r2, r2, #4096	; 0x1000
     126:	601a      	str	r2, [r3, #0]
     128:	4770      	bx	lr
     12a:	4b03      	ldr	r3, [pc, #12]	; (138 <enet_initpara_config+0x120>)
     12c:	681a      	ldr	r2, [r3, #0]
     12e:	6399      	str	r1, [r3, #56]	; 0x38
     130:	f442 5200 	orr.w	r2, r2, #8192	; 0x2000
     134:	601a      	str	r2, [r3, #0]
     136:	4770      	bx	lr
     138:	00000000 	.word	0x00000000

0000013c <enet_software_reset>:
     13c:	4b07      	ldr	r3, [pc, #28]	; (15c <enet_software_reset+0x20>)
     13e:	681a      	ldr	r2, [r3, #0]
     140:	f042 0201 	orr.w	r2, r2, #1
     144:	601a      	str	r2, [r3, #0]
     146:	4a06      	ldr	r2, [pc, #24]	; (160 <enet_software_reset+0x24>)
     148:	6819      	ldr	r1, [r3, #0]
     14a:	07c9      	lsls	r1, r1, #31
     14c:	d501      	bpl.n	152 <enet_software_reset+0x16>
     14e:	3a01      	subs	r2, #1
     150:	d1fa      	bne.n	148 <enet_software_reset+0xc>
     152:	6818      	ldr	r0, [r3, #0]
     154:	43c0      	mvns	r0, r0
     156:	f000 0001 	and.w	r0, r0, #1
     15a:	4770      	bx	lr
     15c:	40029000 	.word	0x40029000
     160:	0004ffff 	.word	0x0004ffff

00000164 <enet_descriptors_chain_init>:
     164:	f5b0 0fe0 	cmp.w	r0, #7340032	; 0x700000
     168:	b530      	push	{r4, r5, lr}
     16a:	4a16      	ldr	r2, [pc, #88]	; (1c4 <enet_descriptors_chain_init+0x60>)
     16c:	4916      	ldr	r1, [pc, #88]	; (1c8 <enet_descriptors_chain_init+0x64>)
     16e:	d11b      	bne.n	1a8 <enet_descriptors_chain_init+0x44>
     170:	2400      	movs	r4, #0
     172:	f44f 1080 	mov.w	r0, #1048576	; 0x100000
     176:	f102 033c 	add.w	r3, r2, #60	; 0x3c
     17a:	610b      	str	r3, [r1, #16]
     17c:	4913      	ldr	r1, [pc, #76]	; (1cc <enet_descriptors_chain_init+0x68>)
     17e:	f8c2 30dc 	str.w	r3, [r2, #220]	; 0xdc
     182:	2500      	movs	r5, #0
     184:	e9c2 5539 	strd	r5, r5, [r2, #228]	; 0xe4
     188:	f103 0210 	add.w	r2, r3, #16
     18c:	f103 0550 	add.w	r5, r3, #80	; 0x50
     190:	42aa      	cmp	r2, r5
     192:	f842 1c08 	str.w	r1, [r2, #-8]
     196:	e942 0404 	strd	r0, r4, [r2, #-16]
     19a:	f201 51f4 	addw	r1, r1, #1524	; 0x5f4
     19e:	d00e      	beq.n	1be <enet_descriptors_chain_init+0x5a>
     1a0:	f842 2c04 	str.w	r2, [r2, #-4]
     1a4:	3210      	adds	r2, #16
     1a6:	e7f3      	b.n	190 <enet_descriptors_chain_init+0x2c>
     1a8:	f102 038c 	add.w	r3, r2, #140	; 0x8c
     1ac:	60cb      	str	r3, [r1, #12]
     1ae:	f244 54f4 	movw	r4, #17908	; 0x45f4
     1b2:	f04f 4000 	mov.w	r0, #2147483648	; 0x80000000
     1b6:	4906      	ldr	r1, [pc, #24]	; (1d0 <enet_descriptors_chain_init+0x6c>)
     1b8:	f8c2 30e0 	str.w	r3, [r2, #224]	; 0xe0
     1bc:	e7e1      	b.n	182 <enet_descriptors_chain_init+0x1e>
     1be:	64db      	str	r3, [r3, #76]	; 0x4c
     1c0:	bd30      	pop	{r4, r5, pc}
     1c2:	bf00      	nop
     1c4:	00000000 	.word	0x00000000
     1c8:	40029000 	.word	0x40029000
	...

000001d4 <enet_descriptors_ring_init>:
     1d4:	4a1b      	ldr	r2, [pc, #108]	; (244 <enet_descriptors_ring_init+0x70>)
     1d6:	b5f0      	push	{r4, r5, r6, r7, lr}
     1d8:	6813      	ldr	r3, [r2, #0]
     1da:	f5b0 0fe0 	cmp.w	r0, #7340032	; 0x700000
     1de:	f023 037c 	bic.w	r3, r3, #124	; 0x7c
     1e2:	6013      	str	r3, [r2, #0]
     1e4:	6813      	ldr	r3, [r2, #0]
     1e6:	4c18      	ldr	r4, [pc, #96]	; (248 <enet_descriptors_ring_init+0x74>)
     1e8:	6013      	str	r3, [r2, #0]
     1ea:	d11d      	bne.n	228 <enet_descriptors_ring_init+0x54>
     1ec:	2100      	movs	r1, #0
     1ee:	460d      	mov	r5, r1
     1f0:	f104 033c 	add.w	r3, r4, #60	; 0x3c
     1f4:	4e15      	ldr	r6, [pc, #84]	; (24c <enet_descriptors_ring_init+0x78>)
     1f6:	6113      	str	r3, [r2, #16]
     1f8:	f8c4 30dc 	str.w	r3, [r4, #220]	; 0xdc
     1fc:	2200      	movs	r2, #0
     1fe:	e9c4 2239 	strd	r2, r2, [r4, #228]	; 0xe4
     202:	f240 54f4 	movw	r4, #1524	; 0x5f4
     206:	fb04 6702 	mla	r7, r4, r2, r6
     20a:	2a04      	cmp	r2, #4
     20c:	e9c3 5100 	strd	r5, r1, [r3]
     210:	609f      	str	r7, [r3, #8]
     212:	d114      	bne.n	23e <enet_descriptors_ring_init+0x6a>
     214:	f5b0 0fe0 	cmp.w	r0, #7340032	; 0x700000
     218:	bf0b      	itete	eq
     21a:	f445 1500 	orreq.w	r5, r5, #2097152	; 0x200000
     21e:	f441 4100 	orrne.w	r1, r1, #32768	; 0x8000
     222:	601d      	streq	r5, [r3, #0]
     224:	6059      	strne	r1, [r3, #4]
     226:	bdf0      	pop	{r4, r5, r6, r7, pc}
     228:	f104 038c 	add.w	r3, r4, #140	; 0x8c
     22c:	60d3      	str	r3, [r2, #12]
     22e:	f240 51f4 	movw	r1, #1524	; 0x5f4
     232:	f04f 4500 	mov.w	r5, #2147483648	; 0x80000000
     236:	4e06      	ldr	r6, [pc, #24]	; (250 <enet_descriptors_ring_init+0x7c>)
     238:	f8c4 30e0 	str.w	r3, [r4, #224]	; 0xe0
     23c:	e7de      	b.n	1fc <enet_descriptors_ring_init+0x28>
     23e:	3201      	adds	r2, #1
     240:	3310      	adds	r3, #16
     242:	e7e0      	b.n	206 <enet_descriptors_ring_init+0x32>
     244:	40029000 	.word	0x40029000
	...

00000254 <enet_frame_receive>:
     254:	b510      	push	{r4, lr}
     256:	4c1f      	ldr	r4, [pc, #124]	; (2d4 <enet_frame_receive+0x80>)
     258:	f8d4 30e0 	ldr.w	r3, [r4, #224]	; 0xe0
     25c:	681b      	ldr	r3, [r3, #0]
     25e:	2b00      	cmp	r3, #0
     260:	db36      	blt.n	2d0 <enet_frame_receive+0x7c>
     262:	b980      	cbnz	r0, 286 <enet_frame_receive+0x32>
     264:	f04f 4300 	mov.w	r3, #2147483648	; 0x80000000
     268:	f8d4 20e0 	ldr.w	r2, [r4, #224]	; 0xe0
     26c:	6013      	str	r3, [r2, #0]
     26e:	4b1a      	ldr	r3, [pc, #104]	; (2d8 <enet_frame_receive+0x84>)
     270:	6959      	ldr	r1, [r3, #20]
     272:	0608      	lsls	r0, r1, #24
     274:	d41b      	bmi.n	2ae <enet_frame_receive+0x5a>
     276:	6853      	ldr	r3, [r2, #4]
     278:	0459      	lsls	r1, r3, #17
     27a:	d51d      	bpl.n	2b8 <enet_frame_receive+0x64>
     27c:	68d3      	ldr	r3, [r2, #12]
     27e:	2001      	movs	r0, #1
     280:	f8c4 30e0 	str.w	r3, [r4, #224]	; 0xe0
     284:	bd10      	pop	{r4, pc}
     286:	f403 4203 	and.w	r2, r3, #33536	; 0x8300
     28a:	f5b2 7f40 	cmp.w	r2, #768	; 0x300
     28e:	d11f      	bne.n	2d0 <enet_frame_receive+0x7c>
     290:	f3c3 430d 	ubfx	r3, r3, #16, #14
     294:	3b04      	subs	r3, #4
     296:	428b      	cmp	r3, r1
     298:	d81a      	bhi.n	2d0 <enet_frame_receive+0x7c>
     29a:	2200      	movs	r2, #0
     29c:	429a      	cmp	r2, r3
     29e:	f8d4 10e0 	ldr.w	r1, [r4, #224]	; 0xe0
     2a2:	d2df      	bcs.n	264 <enet_frame_receive+0x10>
     2a4:	6889      	ldr	r1, [r1, #8]
     2a6:	5c51      	ldrb	r1, [r2, r1]
     2a8:	5481      	strb	r1, [r0, r2]
     2aa:	3201      	adds	r2, #1
     2ac:	e7f6      	b.n	29c <enet_frame_receive+0x48>
     2ae:	2180      	movs	r1, #128	; 0x80
     2b0:	6159      	str	r1, [r3, #20]
     2b2:	2100      	movs	r1, #0
     2b4:	6099      	str	r1, [r3, #8]
     2b6:	e7de      	b.n	276 <enet_frame_receive+0x22>
     2b8:	f413 4f00 	tst.w	r3, #32768	; 0x8000
     2bc:	4b06      	ldr	r3, [pc, #24]	; (2d8 <enet_frame_receive+0x84>)
     2be:	d001      	beq.n	2c4 <enet_frame_receive+0x70>
     2c0:	68db      	ldr	r3, [r3, #12]
     2c2:	e7dc      	b.n	27e <enet_frame_receive+0x2a>
     2c4:	681b      	ldr	r3, [r3, #0]
     2c6:	3210      	adds	r2, #16
     2c8:	f3c3 0384 	ubfx	r3, r3, #2, #5
     2cc:	4413      	add	r3, r2
     2ce:	e7d6      	b.n	27e <enet_frame_receive+0x2a>
     2d0:	2000      	movs	r0, #0
     2d2:	e7d7      	b.n	284 <enet_frame_receive+0x30>
     2d4:	00000000 	.word	0x00000000
     2d8:	40029000 	.word	0x40029000

000002dc <enet_frame_transmit>:
     2dc:	b530      	push	{r4, r5, lr}
     2de:	4c20      	ldr	r4, [pc, #128]	; (360 <enet_frame_transmit+0x84>)
     2e0:	f8d4 30dc 	ldr.w	r3, [r4, #220]	; 0xdc
     2e4:	681b      	ldr	r3, [r3, #0]
     2e6:	2b00      	cmp	r3, #0
     2e8:	db37      	blt.n	35a <enet_frame_transmit+0x7e>
     2ea:	f240 53f4 	movw	r3, #1524	; 0x5f4
     2ee:	4299      	cmp	r1, r3
     2f0:	d833      	bhi.n	35a <enet_frame_transmit+0x7e>
     2f2:	bb00      	cbnz	r0, 336 <enet_frame_transmit+0x5a>
     2f4:	f8d4 30dc 	ldr.w	r3, [r4, #220]	; 0xdc
     2f8:	681a      	ldr	r2, [r3, #0]
     2fa:	6059      	str	r1, [r3, #4]
     2fc:	f042 4230 	orr.w	r2, r2, #2952790016	; 0xb0000000
     300:	4918      	ldr	r1, [pc, #96]	; (364 <enet_frame_transmit+0x88>)
     302:	601a      	str	r2, [r3, #0]
     304:	694a      	ldr	r2, [r1, #20]
     306:	6948      	ldr	r0, [r1, #20]
     308:	f002 0204 	and.w	r2, r2, #4
     30c:	f000 0020 	and.w	r0, r0, #32
     310:	4302      	orrs	r2, r0
     312:	d112      	bne.n	33a <enet_frame_transmit+0x5e>
     314:	681a      	ldr	r2, [r3, #0]
     316:	02d1      	lsls	r1, r2, #11
     318:	d513      	bpl.n	342 <enet_frame_transmit+0x66>
     31a:	68db      	ldr	r3, [r3, #12]
     31c:	2001      	movs	r0, #1
     31e:	f8c4 30dc 	str.w	r3, [r4, #220]	; 0xdc
     322:	bd30      	pop	{r4, r5, pc}
     324:	5cc5      	ldrb	r5, [r0, r3]
     326:	6892      	ldr	r2, [r2, #8]
     328:	549d      	strb	r5, [r3, r2]
     32a:	3301      	adds	r3, #1
     32c:	428b      	cmp	r3, r1
     32e:	f8d4 20dc 	ldr.w	r2, [r4, #220]	; 0xdc
     332:	d1f7      	bne.n	324 <enet_frame_transmit+0x48>
     334:	e7de      	b.n	2f4 <enet_frame_transmit+0x18>
     336:	2300      	movs	r3, #0
     338:	e7f8      	b.n	32c <enet_frame_transmit+0x50>
     33a:	614a      	str	r2, [r1, #20]
     33c:	2200      	movs	r2, #0
     33e:	604a      	str	r2, [r1, #4]
     340:	e7e8      	b.n	314 <enet_frame_transmit+0x38>
     342:	f412 1f00 	tst.w	r2, #2097152	; 0x200000
     346:	4a07      	ldr	r2, [pc, #28]	; (364 <enet_frame_transmit+0x88>)
     348:	bf05      	ittet	eq
     34a:	3310      	addeq	r3, #16
     34c:	6812      	ldreq	r2, [r2, #0]
     34e:	6913      	ldrne	r3, [r2, #16]
     350:	f3c2 0284 	ubfxeq	r2, r2, #2, #5
     354:	bf08      	it	eq
     356:	189b      	addeq	r3, r3, r2
     358:	e7e0      	b.n	31c <enet_frame_transmit+0x40>
     35a:	2000      	movs	r0, #0
     35c:	e7e1      	b.n	322 <enet_frame_transmit+0x46>
     35e:	bf00      	nop
     360:	00000000 	.word	0x00000000
     364:	40029000 	.word	0x40029000

00000368 <enet_transmit_checksum_config>:
     368:	6803      	ldr	r3, [r0, #0]
     36a:	f423 0340 	bic.w	r3, r3, #12582912	; 0xc00000
     36e:	430b      	orrs	r3, r1
     370:	6003      	str	r3, [r0, #0]
     372:	4770      	bx	lr

00000374 <enet_mac_address_set>:
     374:	888a      	ldrh	r2, [r1, #4]
     376:	4b03      	ldr	r3, [pc, #12]	; (384 <enet_mac_address_set+0x10>)
     378:	50c2      	str	r2, [r0, r3]
     37a:	680a      	ldr	r2, [r1, #0]
     37c:	3304      	adds	r3, #4
     37e:	50c2      	str	r2, [r0, r3]
     380:	4770      	bx	lr
     382:	bf00      	nop
     384:	40028040 	.word	0x40028040

00000388 <enet_mac_address_get>:
     388:	4b09      	ldr	r3, [pc, #36]	; (3b0 <enet_mac_address_get+0x28>)
     38a:	58c2      	ldr	r2, [r0, r3]
     38c:	700a      	strb	r2, [r1, #0]
     38e:	58c2      	ldr	r2, [r0, r3]
     390:	0a12      	lsrs	r2, r2, #8
     392:	704a      	strb	r2, [r1, #1]
     394:	58c2      	ldr	r2, [r0, r3]
     396:	0c12      	lsrs	r2, r2, #16
     398:	708a      	strb	r2, [r1, #2]
     39a:	58c3      	ldr	r3, [r0, r3]
     39c:	0e1b      	lsrs	r3, r3, #24
     39e:	70cb      	strb	r3, [r1, #3]
     3a0:	4b04      	ldr	r3, [pc, #16]	; (3b4 <enet_mac_address_get+0x2c>)
     3a2:	58c2      	ldr	r2, [r0, r3]
     3a4:	710a      	strb	r2, [r1, #4]
     3a6:	58c3      	ldr	r3, [r0, r3]
     3a8:	0a1b      	lsrs	r3, r3, #8
     3aa:	714b      	strb	r3, [r1, #5]
     3ac:	4770      	bx	lr
     3ae:	bf00      	nop
     3b0:	40028044 	.word	0x40028044
     3b4:	40028040 	.word	0x40028040

000003b8 <enet_flag_get>:
     3b8:	0983      	lsrs	r3, r0, #6
     3ba:	f103 4380 	add.w	r3, r3, #1073741824	; 0x40000000
     3be:	f503 3320 	add.w	r3, r3, #163840	; 0x28000
     3c2:	681b      	ldr	r3, [r3, #0]
     3c4:	f000 001f 	and.w	r0, r0, #31
     3c8:	fa23 f000 	lsr.w	r0, r3, r0
     3cc:	f000 0001 	and.w	r0, r0, #1
     3d0:	4770      	bx	lr

000003d2 <enet_flag_clear>:
     3d2:	2201      	movs	r2, #1
     3d4:	0983      	lsrs	r3, r0, #6
     3d6:	f103 4380 	add.w	r3, r3, #1073741824	; 0x40000000
     3da:	f000 001f 	and.w	r0, r0, #31
     3de:	f503 3320 	add.w	r3, r3, #163840	; 0x28000
     3e2:	4082      	lsls	r2, r0
     3e4:	601a      	str	r2, [r3, #0]
     3e6:	4770      	bx	lr

000003e8 <enet_interrupt_enable>:
     3e8:	2201      	movs	r2, #1
     3ea:	f000 011f 	and.w	r1, r0, #31
     3ee:	408a      	lsls	r2, r1
     3f0:	f241 011c 	movw	r1, #4124	; 0x101c
     3f4:	ebb1 1f90 	cmp.w	r1, r0, lsr #6
     3f8:	ea4f 1390 	mov.w	r3, r0, lsr #6
     3fc:	d104      	bne.n	408 <enet_interrupt_enable+0x20>
     3fe:	4907      	ldr	r1, [pc, #28]	; (41c <enet_interrupt_enable+0x34>)
     400:	69cb      	ldr	r3, [r1, #28]
     402:	4313      	orrs	r3, r2
     404:	61cb      	str	r3, [r1, #28]
     406:	4770      	bx	lr
     408:	f103 4380 	add.w	r3, r3, #1073741824	; 0x40000000
     40c:	f503 3320 	add.w	r3, r3, #163840	; 0x28000
     410:	6819      	ldr	r1, [r3, #0]
     412:	ea21 0202 	bic.w	r2, r1, r2
     416:	601a      	str	r2, [r3, #0]
     418:	4770      	bx	lr
     41a:	bf00      	nop
     41c:	40029000 	.word	0x40029000

00000420 <enet_interrupt_disable>:
     420:	2201      	movs	r2, #1
     422:	f000 011f 	and.w	r1, r0, #31
     426:	408a      	lsls	r2, r1
     428:	f241 011c 	movw	r1, #4124	; 0x101c
     42c:	ebb1 1f90 	cmp.w	r1, r0, lsr #6
     430:	ea4f 1390 	mov.w	r3, r0, lsr #6
     434:	d105      	bne.n	442 <enet_interrupt_disable+0x22>
     436:	4907      	ldr	r1, [pc, #28]	; (454 <enet_interrupt_disable+0x34>)
     438:	69cb      	ldr	r3, [r1, #28]
     43a:	ea23 0302 	bic.w	r3, r3, r2
     43e:	61cb      	str	r3, [r1, #28]
     440:	4770      	bx	lr
     442:	f103 4380 	add.w	r3, r3, #1073741824	; 0x40000000
     446:	f503 3320 	add.w	r3, r3, #163840	; 0x28000
     44a:	6819      	ldr	r1, [r3, #0]
     44c:	430a      	orrs	r2, r1
     44e:	601a      	str	r2, [r3, #0]
     450:	4770      	bx	lr
     452:	bf00      	nop
     454:	40029000 	.word	0x40029000

00000458 <enet_interrupt_flag_get>:
     458:	f7ff bffe 	b.w	3b8 <enet_flag_get>

0000045c <enet_interrupt_flag_clear>:
     45c:	f7ff bffe 	b.w	3d2 <enet_flag_clear>

00000460 <enet_rx_enable>:
     460:	4a05      	ldr	r2, [pc, #20]	; (478 <enet_rx_enable+0x18>)
     462:	6813      	ldr	r3, [r2, #0]
     464:	f043 0304 	orr.w	r3, r3, #4
     468:	6013      	str	r3, [r2, #0]
     46a:	f502 5280 	add.w	r2, r2, #4096	; 0x1000
     46e:	6993      	ldr	r3, [r2, #24]
     470:	f043 0302 	orr.w	r3, r3, #2
     474:	6193      	str	r3, [r2, #24]
     476:	4770      	bx	lr
     478:	40028000 	.word	0x40028000

0000047c <enet_rx_disable>:
     47c:	4a05      	ldr	r2, [pc, #20]	; (494 <enet_rx_disable+0x18>)
     47e:	6993      	ldr	r3, [r2, #24]
     480:	f023 0302 	bic.w	r3, r3, #2
     484:	6193      	str	r3, [r2, #24]
     486:	f5a2 5280 	sub.w	r2, r2, #4096	; 0x1000
     48a:	6813      	ldr	r3, [r2, #0]
     48c:	f023 0304 	bic.w	r3, r3, #4
     490:	6013      	str	r3, [r2, #0]
     492:	4770      	bx	lr
     494:	40029000 	.word	0x40029000

00000498 <enet_registers_get>:
     498:	4402      	add	r2, r0
     49a:	2a36      	cmp	r2, #54	; 0x36
     49c:	bf28      	it	cs
     49e:	2236      	movcs	r2, #54	; 0x36
     4a0:	b510      	push	{r4, lr}
     4a2:	4c07      	ldr	r4, [pc, #28]	; (4c0 <enet_registers_get+0x28>)
     4a4:	4290      	cmp	r0, r2
     4a6:	d300      	bcc.n	4aa <enet_registers_get+0x12>
     4a8:	bd10      	pop	{r4, pc}
     4aa:	f834 3010 	ldrh.w	r3, [r4, r0, lsl #1]
     4ae:	3001      	adds	r0, #1
     4b0:	f103 4380 	add.w	r3, r3, #1073741824	; 0x40000000
     4b4:	f503 3320 	add.w	r3, r3, #163840	; 0x28000
     4b8:	681b      	ldr	r3, [r3, #0]
     4ba:	f841 3b04 	str.w	r3, [r1], #4
     4be:	e7f1      	b.n	4a4 <enet_registers_get+0xc>
     4c0:	00000000 	.word	0x00000000

000004c4 <enet_address_filter_enable>:
     4c4:	4a02      	ldr	r2, [pc, #8]	; (4d0 <enet_address_filter_enable+0xc>)
     4c6:	5883      	ldr	r3, [r0, r2]
     4c8:	f043 4300 	orr.w	r3, r3, #2147483648	; 0x80000000
     4cc:	5083      	str	r3, [r0, r2]
     4ce:	4770      	bx	lr
     4d0:	40028040 	.word	0x40028040

000004d4 <enet_address_filter_disable>:
     4d4:	4a02      	ldr	r2, [pc, #8]	; (4e0 <enet_address_filter_disable+0xc>)
     4d6:	5883      	ldr	r3, [r0, r2]
     4d8:	f023 4300 	bic.w	r3, r3, #2147483648	; 0x80000000
     4dc:	5083      	str	r3, [r0, r2]
     4de:	4770      	bx	lr
     4e0:	40028040 	.word	0x40028040

000004e4 <enet_address_filter_config>:
     4e4:	b510      	push	{r4, lr}
     4e6:	4c04      	ldr	r4, [pc, #16]	; (4f8 <enet_address_filter_config+0x14>)
     4e8:	4311      	orrs	r1, r2
     4ea:	5903      	ldr	r3, [r0, r4]
     4ec:	f023 43fe 	bic.w	r3, r3, #2130706432	; 0x7f000000
     4f0:	4319      	orrs	r1, r3
     4f2:	5101      	str	r1, [r0, r4]
     4f4:	bd10      	pop	{r4, pc}
     4f6:	bf00      	nop
     4f8:	40028040 	.word	0x40028040

000004fc <enet_phy_write_read>:
     4fc:	b530      	push	{r4, r5, lr}
     4fe:	4604      	mov	r4, r0
     500:	4d13      	ldr	r5, [pc, #76]	; (550 <enet_phy_write_read+0x54>)
     502:	0192      	lsls	r2, r2, #6
     504:	6928      	ldr	r0, [r5, #16]
     506:	f402 62f8 	and.w	r2, r2, #1984	; 0x7c0
     50a:	f420 407f 	bic.w	r0, r0, #65280	; 0xff00
     50e:	f020 00c3 	bic.w	r0, r0, #195	; 0xc3
     512:	4302      	orrs	r2, r0
     514:	02c9      	lsls	r1, r1, #11
     516:	b289      	uxth	r1, r1
     518:	2c02      	cmp	r4, #2
     51a:	ea42 0204 	orr.w	r2, r2, r4
     51e:	ea42 0201 	orr.w	r2, r2, r1
     522:	bf08      	it	eq
     524:	8819      	ldrheq	r1, [r3, #0]
     526:	f042 0201 	orr.w	r2, r2, #1
     52a:	bf08      	it	eq
     52c:	6169      	streq	r1, [r5, #20]
     52e:	612a      	str	r2, [r5, #16]
     530:	4907      	ldr	r1, [pc, #28]	; (550 <enet_phy_write_read+0x54>)
     532:	4a08      	ldr	r2, [pc, #32]	; (554 <enet_phy_write_read+0x58>)
     534:	6908      	ldr	r0, [r1, #16]
     536:	07c0      	lsls	r0, r0, #31
     538:	d501      	bpl.n	53e <enet_phy_write_read+0x42>
     53a:	3a01      	subs	r2, #1
     53c:	d1fa      	bne.n	534 <enet_phy_write_read+0x38>
     53e:	690a      	ldr	r2, [r1, #16]
     540:	43d2      	mvns	r2, r2
     542:	f002 0001 	and.w	r0, r2, #1
     546:	b90c      	cbnz	r4, 54c <enet_phy_write_read+0x50>
     548:	694a      	ldr	r2, [r1, #20]
     54a:	801a      	strh	r2, [r3, #0]
     54c:	bd30      	pop	{r4, r5, pc}
     54e:	bf00      	nop
     550:	40028000 	.word	0x40028000
     554:	0004ffff 	.word	0x0004ffff

00000558 <enet_phy_config>:
     558:	b537      	push	{r0, r1, r2, r4, r5, lr}
     55a:	4d22      	ldr	r5, [pc, #136]	; (5e4 <enet_phy_config+0x8c>)
     55c:	2001      	movs	r0, #1
     55e:	692c      	ldr	r4, [r5, #16]
     560:	f7ff fffe 	bl	0 <rcu_clock_freq_get>
     564:	4b20      	ldr	r3, [pc, #128]	; (5e8 <enet_phy_config+0x90>)
     566:	4a21      	ldr	r2, [pc, #132]	; (5ec <enet_phy_config+0x94>)
     568:	4403      	add	r3, r0
     56a:	4293      	cmp	r3, r2
     56c:	f024 041c 	bic.w	r4, r4, #28
     570:	d21f      	bcs.n	5b2 <enet_phy_config+0x5a>
     572:	f044 0408 	orr.w	r4, r4, #8
     576:	f44f 4300 	mov.w	r3, #32768	; 0x8000
     57a:	612c      	str	r4, [r5, #16]
     57c:	2200      	movs	r2, #0
     57e:	f8ad 3006 	strh.w	r3, [sp, #6]
     582:	2101      	movs	r1, #1
     584:	2002      	movs	r0, #2
     586:	f10d 0306 	add.w	r3, sp, #6
     58a:	f7ff fffe 	bl	4fc <enet_phy_write_read>
     58e:	b310      	cbz	r0, 5d6 <enet_phy_config+0x7e>
     590:	2200      	movs	r2, #0
     592:	4817      	ldr	r0, [pc, #92]	; (5f0 <enet_phy_config+0x98>)
     594:	f7ff fd34 	bl	0 <enet_delay>
     598:	2101      	movs	r1, #1
     59a:	4610      	mov	r0, r2
     59c:	f10d 0306 	add.w	r3, sp, #6
     5a0:	f7ff fffe 	bl	4fc <enet_phy_write_read>
     5a4:	b1b8      	cbz	r0, 5d6 <enet_phy_config+0x7e>
     5a6:	f8bd 0006 	ldrh.w	r0, [sp, #6]
     5aa:	43c0      	mvns	r0, r0
     5ac:	f3c0 30c0 	ubfx	r0, r0, #15, #1
     5b0:	e012      	b.n	5d8 <enet_phy_config+0x80>
     5b2:	4b10      	ldr	r3, [pc, #64]	; (5f4 <enet_phy_config+0x9c>)
     5b4:	4a10      	ldr	r2, [pc, #64]	; (5f8 <enet_phy_config+0xa0>)
     5b6:	4403      	add	r3, r0
     5b8:	4293      	cmp	r3, r2
     5ba:	d802      	bhi.n	5c2 <enet_phy_config+0x6a>
     5bc:	f044 040c 	orr.w	r4, r4, #12
     5c0:	e7d9      	b.n	576 <enet_phy_config+0x1e>
     5c2:	4b0e      	ldr	r3, [pc, #56]	; (5fc <enet_phy_config+0xa4>)
     5c4:	4a0e      	ldr	r2, [pc, #56]	; (600 <enet_phy_config+0xa8>)
     5c6:	4403      	add	r3, r0
     5c8:	4293      	cmp	r3, r2
     5ca:	d3d4      	bcc.n	576 <enet_phy_config+0x1e>
     5cc:	4b0d      	ldr	r3, [pc, #52]	; (604 <enet_phy_config+0xac>)
     5ce:	4a0e      	ldr	r2, [pc, #56]	; (608 <enet_phy_config+0xb0>)
     5d0:	4403      	add	r3, r0
     5d2:	4293      	cmp	r3, r2
     5d4:	d902      	bls.n	5dc <enet_phy_config+0x84>
     5d6:	2000      	movs	r0, #0
     5d8:	b003      	add	sp, #12
     5da:	bd30      	pop	{r4, r5, pc}
     5dc:	f044 0404 	orr.w	r4, r4, #4
     5e0:	e7c9      	b.n	576 <enet_phy_config+0x1e>
     5e2:	bf00      	nop
     5e4:	40028000 	.word	0x40028000
     5e8:	feced300 	.word	0xfeced300
     5ec:	00e4e1c0 	.word	0x00e4e1c0
     5f0:	0004ffff 	.word	0x0004ffff
     5f4:	fde9f140 	.word	0xfde9f140
     5f8:	017d783f 	.word	0x017d783f
     5fc:	fc6c7900 	.word	0xfc6c7900
     600:	02625a00 	.word	0x02625a00
     604:	fa0a1f00 	.word	0xfa0a1f00
     608:	01312d00 	.word	0x01312d00

0000060c <enet_init>:
     60c:	2300      	movs	r3, #0
     60e:	b5f7      	push	{r0, r1, r2, r4, r5, r6, r7, lr}
     610:	4604      	mov	r4, r0
     612:	460d      	mov	r5, r1
     614:	4616      	mov	r6, r2
     616:	f8ad 3006 	strh.w	r3, [sp, #6]
     61a:	f7ff fffe 	bl	558 <enet_phy_config>
     61e:	2800      	cmp	r0, #0
     620:	d039      	beq.n	696 <enet_init+0x8a>
     622:	4ba4      	ldr	r3, [pc, #656]	; (8b4 <enet_init+0x2a8>)
     624:	4aa4      	ldr	r2, [pc, #656]	; (8b8 <enet_init+0x2ac>)
     626:	6819      	ldr	r1, [r3, #0]
     628:	f44f 50a8 	mov.w	r0, #5376	; 0x1500
     62c:	400a      	ands	r2, r1
     62e:	601a      	str	r2, [r3, #0]
     630:	2200      	movs	r2, #0
     632:	605a      	str	r2, [r3, #4]
     634:	609a      	str	r2, [r3, #8]
     636:	60da      	str	r2, [r3, #12]
     638:	6999      	ldr	r1, [r3, #24]
     63a:	2c01      	cmp	r4, #1
     63c:	f021 01be 	bic.w	r1, r1, #190	; 0xbe
     640:	ea4f 4101 	mov.w	r1, r1, lsl #16
     644:	ea4f 4111 	mov.w	r1, r1, lsr #16
     648:	f041 0180 	orr.w	r1, r1, #128	; 0x80
     64c:	6199      	str	r1, [r3, #24]
     64e:	499b      	ldr	r1, [pc, #620]	; (8bc <enet_init+0x2b0>)
     650:	f8c1 0080 	str.w	r0, [r1, #128]	; 0x80
     654:	61da      	str	r2, [r3, #28]
     656:	6988      	ldr	r0, [r1, #24]
     658:	4b99      	ldr	r3, [pc, #612]	; (8c0 <enet_init+0x2b4>)
     65a:	ea03 0300 	and.w	r3, r3, r0
     65e:	f043 7308 	orr.w	r3, r3, #35651584	; 0x2200000
     662:	618b      	str	r3, [r1, #24]
     664:	680b      	ldr	r3, [r1, #0]
     666:	4b97      	ldr	r3, [pc, #604]	; (8c4 <enet_init+0x2b8>)
     668:	600b      	str	r3, [r1, #0]
     66a:	d01e      	beq.n	6aa <enet_init+0x9e>
     66c:	08e3      	lsrs	r3, r4, #3
     66e:	0861      	lsrs	r1, r4, #1
     670:	f401 5100 	and.w	r1, r1, #8192	; 0x2000
     674:	f403 7380 	and.w	r3, r3, #256	; 0x100
     678:	430b      	orrs	r3, r1
     67a:	f8ad 3006 	strh.w	r3, [sp, #6]
     67e:	2101      	movs	r1, #1
     680:	2002      	movs	r0, #2
     682:	f10d 0306 	add.w	r3, sp, #6
     686:	f7ff fffe 	bl	4fc <enet_phy_write_read>
     68a:	b158      	cbz	r0, 6a4 <enet_init+0x98>
     68c:	f06f 407f 	mvn.w	r0, #4278190080	; 0xff000000
     690:	f7ff fcb6 	bl	0 <enet_delay>
     694:	e04f      	b.n	736 <enet_init+0x12a>
     696:	488c      	ldr	r0, [pc, #560]	; (8c8 <enet_init+0x2bc>)
     698:	f7ff fcb2 	bl	0 <enet_delay>
     69c:	f7ff fffe 	bl	558 <enet_phy_config>
     6a0:	2800      	cmp	r0, #0
     6a2:	d1be      	bne.n	622 <enet_init+0x16>
     6a4:	2000      	movs	r0, #0
     6a6:	b003      	add	sp, #12
     6a8:	bdf0      	pop	{r4, r5, r6, r7, pc}
     6aa:	4614      	mov	r4, r2
     6ac:	4f87      	ldr	r7, [pc, #540]	; (8cc <enet_init+0x2c0>)
     6ae:	2201      	movs	r2, #1
     6b0:	2000      	movs	r0, #0
     6b2:	4611      	mov	r1, r2
     6b4:	f10d 0306 	add.w	r3, sp, #6
     6b8:	f7ff fffe 	bl	4fc <enet_phy_write_read>
     6bc:	f8bd 2006 	ldrh.w	r2, [sp, #6]
     6c0:	3401      	adds	r4, #1
     6c2:	f002 0204 	and.w	r2, r2, #4
     6c6:	f8ad 2006 	strh.w	r2, [sp, #6]
     6ca:	b912      	cbnz	r2, 6d2 <enet_init+0xc6>
     6cc:	42bc      	cmp	r4, r7
     6ce:	d1ee      	bne.n	6ae <enet_init+0xa2>
     6d0:	e7e8      	b.n	6a4 <enet_init+0x98>
     6d2:	42bc      	cmp	r4, r7
     6d4:	d0e6      	beq.n	6a4 <enet_init+0x98>
     6d6:	f44f 5280 	mov.w	r2, #4096	; 0x1000
     6da:	2101      	movs	r1, #1
     6dc:	f8ad 2006 	strh.w	r2, [sp, #6]
     6e0:	2002      	movs	r0, #2
     6e2:	2200      	movs	r2, #0
     6e4:	f7ff fffe 	bl	4fc <enet_phy_write_read>
     6e8:	2800      	cmp	r0, #0
     6ea:	d0db      	beq.n	6a4 <enet_init+0x98>
     6ec:	2400      	movs	r4, #0
     6ee:	4f77      	ldr	r7, [pc, #476]	; (8cc <enet_init+0x2c0>)
     6f0:	2201      	movs	r2, #1
     6f2:	2000      	movs	r0, #0
     6f4:	4611      	mov	r1, r2
     6f6:	f10d 0306 	add.w	r3, sp, #6
     6fa:	f7ff fffe 	bl	4fc <enet_phy_write_read>
     6fe:	f8bd 2006 	ldrh.w	r2, [sp, #6]
     702:	3401      	adds	r4, #1
     704:	f002 0220 	and.w	r2, r2, #32
     708:	f8ad 2006 	strh.w	r2, [sp, #6]
     70c:	b912      	cbnz	r2, 714 <enet_init+0x108>
     70e:	42bc      	cmp	r4, r7
     710:	d1ee      	bne.n	6f0 <enet_init+0xe4>
     712:	e7c7      	b.n	6a4 <enet_init+0x98>
     714:	42bc      	cmp	r4, r7
     716:	d0c5      	beq.n	6a4 <enet_init+0x98>
     718:	2101      	movs	r1, #1
     71a:	2210      	movs	r2, #16
     71c:	2000      	movs	r0, #0
     71e:	f7ff fffe 	bl	4fc <enet_phy_write_read>
     722:	f8bd 3006 	ldrh.w	r3, [sp, #6]
     726:	f3c3 0480 	ubfx	r4, r3, #2, #1
     72a:	0799      	lsls	r1, r3, #30
     72c:	ea4f 24c4 	mov.w	r4, r4, lsl #11
     730:	d401      	bmi.n	736 <enet_init+0x12a>
     732:	f444 4480 	orr.w	r4, r4, #16384	; 0x4000
     736:	4b5f      	ldr	r3, [pc, #380]	; (8b4 <enet_init+0x2a8>)
     738:	681a      	ldr	r2, [r3, #0]
     73a:	f422 42b0 	bic.w	r2, r2, #22528	; 0x5800
     73e:	4314      	orrs	r4, r2
     740:	056a      	lsls	r2, r5, #21
     742:	601c      	str	r4, [r3, #0]
     744:	d50b      	bpl.n	75e <enet_init+0x152>
     746:	681a      	ldr	r2, [r3, #0]
     748:	f005 6580 	and.w	r5, r5, #67108864	; 0x4000000
     74c:	f442 6280 	orr.w	r2, r2, #1024	; 0x400
     750:	601a      	str	r2, [r3, #0]
     752:	4a5a      	ldr	r2, [pc, #360]	; (8bc <enet_init+0x2b0>)
     754:	6993      	ldr	r3, [r2, #24]
     756:	f023 6380 	bic.w	r3, r3, #67108864	; 0x4000000
     75a:	431d      	orrs	r5, r3
     75c:	6195      	str	r5, [r2, #24]
     75e:	4955      	ldr	r1, [pc, #340]	; (8b4 <enet_init+0x2a8>)
     760:	684b      	ldr	r3, [r1, #4]
     762:	431e      	orrs	r6, r3
     764:	4b5a      	ldr	r3, [pc, #360]	; (8d0 <enet_init+0x2c4>)
     766:	604e      	str	r6, [r1, #4]
     768:	681a      	ldr	r2, [r3, #0]
     76a:	07d7      	lsls	r7, r2, #31
     76c:	d510      	bpl.n	790 <enet_init+0x184>
     76e:	685a      	ldr	r2, [r3, #4]
     770:	680c      	ldr	r4, [r1, #0]
     772:	f002 0080 	and.w	r0, r2, #128	; 0x80
     776:	f024 0480 	bic.w	r4, r4, #128	; 0x80
     77a:	4320      	orrs	r0, r4
     77c:	6008      	str	r0, [r1, #0]
     77e:	484f      	ldr	r0, [pc, #316]	; (8bc <enet_init+0x2b0>)
     780:	0892      	lsrs	r2, r2, #2
     782:	6981      	ldr	r1, [r0, #24]
     784:	f002 02c0 	and.w	r2, r2, #192	; 0xc0
     788:	f021 01c0 	bic.w	r1, r1, #192	; 0xc0
     78c:	430a      	orrs	r2, r1
     78e:	6182      	str	r2, [r0, #24]
     790:	681a      	ldr	r2, [r3, #0]
     792:	0796      	lsls	r6, r2, #30
     794:	d508      	bpl.n	7a8 <enet_init+0x19c>
     796:	4949      	ldr	r1, [pc, #292]	; (8bc <enet_init+0x2b0>)
     798:	6898      	ldr	r0, [r3, #8]
     79a:	680a      	ldr	r2, [r1, #0]
     79c:	f022 7240 	bic.w	r2, r2, #50331648	; 0x3000000
     7a0:	f422 3280 	bic.w	r2, r2, #65536	; 0x10000
     7a4:	4302      	orrs	r2, r0
     7a6:	600a      	str	r2, [r1, #0]
     7a8:	681a      	ldr	r2, [r3, #0]
     7aa:	0755      	lsls	r5, r2, #29
     7ac:	d508      	bpl.n	7c0 <enet_init+0x1b4>
     7ae:	4943      	ldr	r1, [pc, #268]	; (8bc <enet_init+0x2b0>)
     7b0:	68d8      	ldr	r0, [r3, #12]
     7b2:	680a      	ldr	r2, [r1, #0]
     7b4:	f422 027e 	bic.w	r2, r2, #16646144	; 0xfe0000
     7b8:	f422 527c 	bic.w	r2, r2, #16128	; 0x3f00
     7bc:	4302      	orrs	r2, r0
     7be:	600a      	str	r2, [r1, #0]
     7c0:	681a      	ldr	r2, [r3, #0]
     7c2:	0714      	lsls	r4, r2, #28
     7c4:	d508      	bpl.n	7d8 <enet_init+0x1cc>
     7c6:	493d      	ldr	r1, [pc, #244]	; (8bc <enet_init+0x2b0>)
     7c8:	6918      	ldr	r0, [r3, #16]
     7ca:	680a      	ldr	r2, [r1, #0]
     7cc:	f422 4240 	bic.w	r2, r2, #49152	; 0xc000
     7d0:	f022 0202 	bic.w	r2, r2, #2
     7d4:	4302      	orrs	r2, r0
     7d6:	600a      	str	r2, [r1, #0]
     7d8:	681a      	ldr	r2, [r3, #0]
     7da:	06d0      	lsls	r0, r2, #27
     7dc:	d506      	bpl.n	7ec <enet_init+0x1e0>
     7de:	4937      	ldr	r1, [pc, #220]	; (8bc <enet_init+0x2b0>)
     7e0:	4a3c      	ldr	r2, [pc, #240]	; (8d4 <enet_init+0x2c8>)
     7e2:	6988      	ldr	r0, [r1, #24]
     7e4:	4002      	ands	r2, r0
     7e6:	6958      	ldr	r0, [r3, #20]
     7e8:	4302      	orrs	r2, r0
     7ea:	618a      	str	r2, [r1, #24]
     7ec:	681a      	ldr	r2, [r3, #0]
     7ee:	0691      	lsls	r1, r2, #26
     7f0:	d508      	bpl.n	804 <enet_init+0x1f8>
     7f2:	4932      	ldr	r1, [pc, #200]	; (8bc <enet_init+0x2b0>)
     7f4:	6998      	ldr	r0, [r3, #24]
     7f6:	698a      	ldr	r2, [r1, #24]
     7f8:	f022 7280 	bic.w	r2, r2, #16777216	; 0x1000000
     7fc:	f022 0204 	bic.w	r2, r2, #4
     800:	4302      	orrs	r2, r0
     802:	618a      	str	r2, [r1, #24]
     804:	681a      	ldr	r2, [r3, #0]
     806:	0652      	lsls	r2, r2, #25
     808:	d506      	bpl.n	818 <enet_init+0x20c>
     80a:	492a      	ldr	r1, [pc, #168]	; (8b4 <enet_init+0x2a8>)
     80c:	69d8      	ldr	r0, [r3, #28]
     80e:	69ca      	ldr	r2, [r1, #28]
     810:	0c52      	lsrs	r2, r2, #17
     812:	0452      	lsls	r2, r2, #17
     814:	4302      	orrs	r2, r0
     816:	61ca      	str	r2, [r1, #28]
     818:	681a      	ldr	r2, [r3, #0]
     81a:	0617      	lsls	r7, r2, #24
     81c:	d517      	bpl.n	84e <enet_init+0x242>
     81e:	4c25      	ldr	r4, [pc, #148]	; (8b4 <enet_init+0x2a8>)
     820:	6a1a      	ldr	r2, [r3, #32]
     822:	69a0      	ldr	r0, [r4, #24]
     824:	f422 417f 	bic.w	r1, r2, #65280	; 0xff00
     828:	f020 00be 	bic.w	r0, r0, #190	; 0xbe
     82c:	0400      	lsls	r0, r0, #16
     82e:	0c00      	lsrs	r0, r0, #16
     830:	f021 0141 	bic.w	r1, r1, #65	; 0x41
     834:	4301      	orrs	r1, r0
     836:	4821      	ldr	r0, [pc, #132]	; (8bc <enet_init+0x2b0>)
     838:	61a1      	str	r1, [r4, #24]
     83a:	f8d0 1080 	ldr.w	r1, [r0, #128]	; 0x80
     83e:	0a12      	lsrs	r2, r2, #8
     840:	f021 0177 	bic.w	r1, r1, #119	; 0x77
     844:	f002 0277 	and.w	r2, r2, #119	; 0x77
     848:	430a      	orrs	r2, r1
     84a:	f8c0 2080 	str.w	r2, [r0, #128]	; 0x80
     84e:	681a      	ldr	r2, [r3, #0]
     850:	05d6      	lsls	r6, r2, #23
     852:	bf42      	ittt	mi
     854:	6a59      	ldrmi	r1, [r3, #36]	; 0x24
     856:	4a17      	ldrmi	r2, [pc, #92]	; (8b4 <enet_init+0x2a8>)
     858:	6091      	strmi	r1, [r2, #8]
     85a:	681a      	ldr	r2, [r3, #0]
     85c:	0595      	lsls	r5, r2, #22
     85e:	bf42      	ittt	mi
     860:	4a14      	ldrmi	r2, [pc, #80]	; (8b4 <enet_init+0x2a8>)
     862:	6a99      	ldrmi	r1, [r3, #40]	; 0x28
     864:	60d1      	strmi	r1, [r2, #12]
     866:	681a      	ldr	r2, [r3, #0]
     868:	0554      	lsls	r4, r2, #21
     86a:	d508      	bpl.n	87e <enet_init+0x272>
     86c:	4911      	ldr	r1, [pc, #68]	; (8b4 <enet_init+0x2a8>)
     86e:	6ad8      	ldr	r0, [r3, #44]	; 0x2c
     870:	684a      	ldr	r2, [r1, #4]
     872:	f422 62fb 	bic.w	r2, r2, #2008	; 0x7d8
     876:	f022 0206 	bic.w	r2, r2, #6
     87a:	4302      	orrs	r2, r0
     87c:	604a      	str	r2, [r1, #4]
     87e:	681a      	ldr	r2, [r3, #0]
     880:	0510      	lsls	r0, r2, #20
     882:	d508      	bpl.n	896 <enet_init+0x28a>
     884:	490b      	ldr	r1, [pc, #44]	; (8b4 <enet_init+0x2a8>)
     886:	6b18      	ldr	r0, [r3, #48]	; 0x30
     888:	680a      	ldr	r2, [r1, #0]
     88a:	f422 3291 	bic.w	r2, r2, #74240	; 0x12200
     88e:	f022 0270 	bic.w	r2, r2, #112	; 0x70
     892:	4302      	orrs	r2, r0
     894:	600a      	str	r2, [r1, #0]
     896:	681a      	ldr	r2, [r3, #0]
     898:	04d1      	lsls	r1, r2, #19
     89a:	d506      	bpl.n	8aa <enet_init+0x29e>
     89c:	4905      	ldr	r1, [pc, #20]	; (8b4 <enet_init+0x2a8>)
     89e:	6b58      	ldr	r0, [r3, #52]	; 0x34
     8a0:	680a      	ldr	r2, [r1, #0]
     8a2:	f422 0240 	bic.w	r2, r2, #12582912	; 0xc00000
     8a6:	4302      	orrs	r2, r0
     8a8:	600a      	str	r2, [r1, #0]
     8aa:	681a      	ldr	r2, [r3, #0]
     8ac:	0492      	lsls	r2, r2, #18
     8ae:	d413      	bmi.n	8d8 <enet_init+0x2cc>
     8b0:	2001      	movs	r0, #1
     8b2:	e6f8      	b.n	6a6 <enet_init+0x9a>
     8b4:	40028000 	.word	0x40028000
     8b8:	fd30810f 	.word	0xfd30810f
     8bc:	40029000 	.word	0x40029000
     8c0:	f8de3f23 	.word	0xf8de3f23
     8c4:	02c16000 	.word	0x02c16000
     8c8:	008fffff 	.word	0x008fffff
     8cc:	0004ffff 	.word	0x0004ffff
     8d0:	00000000 	.word	0x00000000
     8d4:	fdde3fe7 	.word	0xfdde3fe7
     8d8:	4903      	ldr	r1, [pc, #12]	; (8e8 <enet_init+0x2dc>)
     8da:	6b9b      	ldr	r3, [r3, #56]	; 0x38
     8dc:	680a      	ldr	r2, [r1, #0]
     8de:	f422 2260 	bic.w	r2, r2, #917504	; 0xe0000
     8e2:	4313      	orrs	r3, r2
     8e4:	600b      	str	r3, [r1, #0]
     8e6:	e7e3      	b.n	8b0 <enet_init+0x2a4>
     8e8:	40028000 	.word	0x40028000

000008ec <enet_phyloopback_enable>:
     8ec:	b513      	push	{r0, r1, r4, lr}
     8ee:	2400      	movs	r4, #0
     8f0:	f10d 0306 	add.w	r3, sp, #6
     8f4:	4622      	mov	r2, r4
     8f6:	2101      	movs	r1, #1
     8f8:	4620      	mov	r0, r4
     8fa:	f8ad 4006 	strh.w	r4, [sp, #6]
     8fe:	f7ff fffe 	bl	4fc <enet_phy_write_read>
     902:	f8bd 2006 	ldrh.w	r2, [sp, #6]
     906:	2101      	movs	r1, #1
     908:	f442 4280 	orr.w	r2, r2, #16384	; 0x4000
     90c:	f8ad 2006 	strh.w	r2, [sp, #6]
     910:	2002      	movs	r0, #2
     912:	4622      	mov	r2, r4
     914:	f7ff fffe 	bl	4fc <enet_phy_write_read>
     918:	b002      	add	sp, #8
     91a:	bd10      	pop	{r4, pc}

0000091c <enet_phyloopback_disable>:
     91c:	b513      	push	{r0, r1, r4, lr}
     91e:	2400      	movs	r4, #0
     920:	f10d 0306 	add.w	r3, sp, #6
     924:	4622      	mov	r2, r4
     926:	2101      	movs	r1, #1
     928:	4620      	mov	r0, r4
     92a:	f8ad 4006 	strh.w	r4, [sp, #6]
     92e:	f7ff fffe 	bl	4fc <enet_phy_write_read>
     932:	f8bd 2006 	ldrh.w	r2, [sp, #6]
     936:	2101      	movs	r1, #1
     938:	f422 4280 	bic.w	r2, r2, #16384	; 0x4000
     93c:	f8ad 2006 	strh.w	r2, [sp, #6]
     940:	2002      	movs	r0, #2
     942:	4622      	mov	r2, r4
     944:	f7ff fffe 	bl	4fc <enet_phy_write_read>
     948:	b002      	add	sp, #8
     94a:	bd10      	pop	{r4, pc}

0000094c <enet_forward_feature_enable>:
     94c:	4a07      	ldr	r2, [pc, #28]	; (96c <enet_forward_feature_enable+0x20>)
     94e:	f420 7340 	bic.w	r3, r0, #768	; 0x300
     952:	6811      	ldr	r1, [r2, #0]
     954:	430b      	orrs	r3, r1
     956:	6013      	str	r3, [r2, #0]
     958:	f502 5280 	add.w	r2, r2, #4096	; 0x1000
     95c:	4b04      	ldr	r3, [pc, #16]	; (970 <enet_forward_feature_enable+0x24>)
     95e:	6991      	ldr	r1, [r2, #24]
     960:	ea03 0090 	and.w	r0, r3, r0, lsr #2
     964:	4308      	orrs	r0, r1
     966:	6190      	str	r0, [r2, #24]
     968:	4770      	bx	lr
     96a:	bf00      	nop
     96c:	40028000 	.word	0x40028000
     970:	3fffffdf 	.word	0x3fffffdf

00000974 <enet_forward_feature_disable>:
     974:	4a07      	ldr	r2, [pc, #28]	; (994 <enet_forward_feature_disable+0x20>)
     976:	f420 7140 	bic.w	r1, r0, #768	; 0x300
     97a:	6813      	ldr	r3, [r2, #0]
     97c:	ea23 0301 	bic.w	r3, r3, r1
     980:	4905      	ldr	r1, [pc, #20]	; (998 <enet_forward_feature_disable+0x24>)
     982:	6013      	str	r3, [r2, #0]
     984:	4a05      	ldr	r2, [pc, #20]	; (99c <enet_forward_feature_disable+0x28>)
     986:	698b      	ldr	r3, [r1, #24]
     988:	ea02 0290 	and.w	r2, r2, r0, lsr #2
     98c:	ea23 0302 	bic.w	r3, r3, r2
     990:	618b      	str	r3, [r1, #24]
     992:	4770      	bx	lr
     994:	40028000 	.word	0x40028000
     998:	40029000 	.word	0x40029000
     99c:	3fffffdf 	.word	0x3fffffdf

000009a0 <enet_fliter_feature_enable>:
     9a0:	4a02      	ldr	r2, [pc, #8]	; (9ac <enet_fliter_feature_enable+0xc>)
     9a2:	6853      	ldr	r3, [r2, #4]
     9a4:	4303      	orrs	r3, r0
     9a6:	6053      	str	r3, [r2, #4]
     9a8:	4770      	bx	lr
     9aa:	bf00      	nop
     9ac:	40028000 	.word	0x40028000

000009b0 <enet_fliter_feature_disable>:
     9b0:	4a02      	ldr	r2, [pc, #8]	; (9bc <enet_fliter_feature_disable+0xc>)
     9b2:	6853      	ldr	r3, [r2, #4]
     9b4:	ea23 0300 	bic.w	r3, r3, r0
     9b8:	6053      	str	r3, [r2, #4]
     9ba:	4770      	bx	lr
     9bc:	40028000 	.word	0x40028000

000009c0 <enet_pauseframe_generate>:
     9c0:	4b05      	ldr	r3, [pc, #20]	; (9d8 <enet_pauseframe_generate+0x18>)
     9c2:	699a      	ldr	r2, [r3, #24]
     9c4:	07d2      	lsls	r2, r2, #31
     9c6:	bf5d      	ittte	pl
     9c8:	699a      	ldrpl	r2, [r3, #24]
     9ca:	2001      	movpl	r0, #1
     9cc:	f042 0201 	orrpl.w	r2, r2, #1
     9d0:	2000      	movmi	r0, #0
     9d2:	bf58      	it	pl
     9d4:	619a      	strpl	r2, [r3, #24]
     9d6:	4770      	bx	lr
     9d8:	40028000 	.word	0x40028000

000009dc <enet_pauseframe_detect_config>:
     9dc:	4b04      	ldr	r3, [pc, #16]	; (9f0 <enet_pauseframe_detect_config+0x14>)
     9de:	699a      	ldr	r2, [r3, #24]
     9e0:	f022 0208 	bic.w	r2, r2, #8
     9e4:	619a      	str	r2, [r3, #24]
     9e6:	699a      	ldr	r2, [r3, #24]
     9e8:	4302      	orrs	r2, r0
     9ea:	619a      	str	r2, [r3, #24]
     9ec:	4770      	bx	lr
     9ee:	bf00      	nop
     9f0:	40028000 	.word	0x40028000

000009f4 <enet_pauseframe_config>:
     9f4:	4a06      	ldr	r2, [pc, #24]	; (a10 <enet_pauseframe_config+0x1c>)
     9f6:	6993      	ldr	r3, [r2, #24]
     9f8:	f023 0330 	bic.w	r3, r3, #48	; 0x30
     9fc:	041b      	lsls	r3, r3, #16
     9fe:	0c1b      	lsrs	r3, r3, #16
     a00:	6193      	str	r3, [r2, #24]
     a02:	6993      	ldr	r3, [r2, #24]
     a04:	430b      	orrs	r3, r1
     a06:	ea43 4300 	orr.w	r3, r3, r0, lsl #16
     a0a:	6193      	str	r3, [r2, #24]
     a0c:	4770      	bx	lr
     a0e:	bf00      	nop
     a10:	40028000 	.word	0x40028000

00000a14 <enet_flowcontrol_threshold_config>:
     a14:	4b02      	ldr	r3, [pc, #8]	; (a20 <enet_flowcontrol_threshold_config+0xc>)
     a16:	4308      	orrs	r0, r1
     a18:	0a00      	lsrs	r0, r0, #8
     a1a:	f8c3 0080 	str.w	r0, [r3, #128]	; 0x80
     a1e:	4770      	bx	lr
     a20:	40029000 	.word	0x40029000

00000a24 <enet_flowcontrol_feature_enable>:
     a24:	4b07      	ldr	r3, [pc, #28]	; (a44 <enet_flowcontrol_feature_enable+0x20>)
     a26:	f010 0f80 	tst.w	r0, #128	; 0x80
     a2a:	bf18      	it	ne
     a2c:	699a      	ldrne	r2, [r3, #24]
     a2e:	f020 0080 	bic.w	r0, r0, #128	; 0x80
     a32:	bf1c      	itt	ne
     a34:	f022 0280 	bicne.w	r2, r2, #128	; 0x80
     a38:	619a      	strne	r2, [r3, #24]
     a3a:	699a      	ldr	r2, [r3, #24]
     a3c:	4310      	orrs	r0, r2
     a3e:	6198      	str	r0, [r3, #24]
     a40:	4770      	bx	lr
     a42:	bf00      	nop
     a44:	40028000 	.word	0x40028000

00000a48 <enet_flowcontrol_feature_disable>:
     a48:	4b07      	ldr	r3, [pc, #28]	; (a68 <enet_flowcontrol_feature_disable+0x20>)
     a4a:	f010 0f80 	tst.w	r0, #128	; 0x80
     a4e:	bf18      	it	ne
     a50:	699a      	ldrne	r2, [r3, #24]
     a52:	f020 0080 	bic.w	r0, r0, #128	; 0x80
     a56:	bf1c      	itt	ne
     a58:	f042 0280 	orrne.w	r2, r2, #128	; 0x80
     a5c:	619a      	strne	r2, [r3, #24]
     a5e:	699a      	ldr	r2, [r3, #24]
     a60:	ea22 0200 	bic.w	r2, r2, r0
     a64:	619a      	str	r2, [r3, #24]
     a66:	4770      	bx	lr
     a68:	40028000 	.word	0x40028000

00000a6c <enet_dmaprocess_state_get>:
     a6c:	4b01      	ldr	r3, [pc, #4]	; (a74 <enet_dmaprocess_state_get+0x8>)
     a6e:	695b      	ldr	r3, [r3, #20]
     a70:	4018      	ands	r0, r3
     a72:	4770      	bx	lr
     a74:	40029000 	.word	0x40029000

00000a78 <enet_dmaprocess_resume>:
     a78:	2200      	movs	r2, #0
     a7a:	4b03      	ldr	r3, [pc, #12]	; (a88 <enet_dmaprocess_resume+0x10>)
     a7c:	f5b0 0fe0 	cmp.w	r0, #7340032	; 0x700000
     a80:	bf0c      	ite	eq
     a82:	605a      	streq	r2, [r3, #4]
     a84:	609a      	strne	r2, [r3, #8]
     a86:	4770      	bx	lr
     a88:	40029000 	.word	0x40029000

00000a8c <enet_rxprocess_check_recovery>:
     a8c:	4b06      	ldr	r3, [pc, #24]	; (aa8 <enet_rxprocess_check_recovery+0x1c>)
     a8e:	4a07      	ldr	r2, [pc, #28]	; (aac <enet_rxprocess_check_recovery+0x20>)
     a90:	f8d3 10e0 	ldr.w	r1, [r3, #224]	; 0xe0
     a94:	6cd0      	ldr	r0, [r2, #76]	; 0x4c
     a96:	4281      	cmp	r1, r0
     a98:	d005      	beq.n	aa6 <enet_rxprocess_check_recovery+0x1a>
     a9a:	6809      	ldr	r1, [r1, #0]
     a9c:	2900      	cmp	r1, #0
     a9e:	bfbc      	itt	lt
     aa0:	6cd2      	ldrlt	r2, [r2, #76]	; 0x4c
     aa2:	f8c3 20e0 	strlt.w	r2, [r3, #224]	; 0xe0
     aa6:	4770      	bx	lr
     aa8:	00000000 	.word	0x00000000
     aac:	40029000 	.word	0x40029000

00000ab0 <enet_txfifo_flush>:
     ab0:	4a07      	ldr	r2, [pc, #28]	; (ad0 <enet_txfifo_flush+0x20>)
     ab2:	6993      	ldr	r3, [r2, #24]
     ab4:	f443 1380 	orr.w	r3, r3, #1048576	; 0x100000
     ab8:	6193      	str	r3, [r2, #24]
     aba:	4b06      	ldr	r3, [pc, #24]	; (ad4 <enet_txfifo_flush+0x24>)
     abc:	6990      	ldr	r0, [r2, #24]
     abe:	f410 1080 	ands.w	r0, r0, #1048576	; 0x100000
     ac2:	d001      	beq.n	ac8 <enet_txfifo_flush+0x18>
     ac4:	3b01      	subs	r3, #1
     ac6:	d1f9      	bne.n	abc <enet_txfifo_flush+0xc>
     ac8:	fab0 f080 	clz	r0, r0
     acc:	0940      	lsrs	r0, r0, #5
     ace:	4770      	bx	lr
     ad0:	40029000 	.word	0x40029000
     ad4:	0004ffff 	.word	0x0004ffff

00000ad8 <enet_tx_enable>:
     ad8:	4a06      	ldr	r2, [pc, #24]	; (af4 <enet_tx_enable+0x1c>)
     ada:	b508      	push	{r3, lr}
     adc:	6813      	ldr	r3, [r2, #0]
     ade:	f043 0308 	orr.w	r3, r3, #8
     ae2:	6013      	str	r3, [r2, #0]
     ae4:	f7ff fffe 	bl	ab0 <enet_txfifo_flush>
     ae8:	4a03      	ldr	r2, [pc, #12]	; (af8 <enet_tx_enable+0x20>)
     aea:	6993      	ldr	r3, [r2, #24]
     aec:	f443 5300 	orr.w	r3, r3, #8192	; 0x2000
     af0:	6193      	str	r3, [r2, #24]
     af2:	bd08      	pop	{r3, pc}
     af4:	40028000 	.word	0x40028000
     af8:	40029000 	.word	0x40029000

00000afc <enet_enable>:
     afc:	b508      	push	{r3, lr}
     afe:	f7ff fffe 	bl	ad8 <enet_tx_enable>
     b02:	e8bd 4008 	ldmia.w	sp!, {r3, lr}
     b06:	f7ff bffe 	b.w	460 <enet_rx_enable>

00000b0a <enet_tx_disable>:
     b0a:	4a07      	ldr	r2, [pc, #28]	; (b28 <enet_tx_disable+0x1e>)
     b0c:	b508      	push	{r3, lr}
     b0e:	6993      	ldr	r3, [r2, #24]
     b10:	f423 5300 	bic.w	r3, r3, #8192	; 0x2000
     b14:	6193      	str	r3, [r2, #24]
     b16:	f7ff fffe 	bl	ab0 <enet_txfifo_flush>
     b1a:	4a04      	ldr	r2, [pc, #16]	; (b2c <enet_tx_disable+0x22>)
     b1c:	6813      	ldr	r3, [r2, #0]
     b1e:	f023 0308 	bic.w	r3, r3, #8
     b22:	6013      	str	r3, [r2, #0]
     b24:	bd08      	pop	{r3, pc}
     b26:	bf00      	nop
     b28:	40029000 	.word	0x40029000
     b2c:	40028000 	.word	0x40028000

00000b30 <enet_disable>:
     b30:	b508      	push	{r3, lr}
     b32:	f7ff fffe 	bl	b0a <enet_tx_disable>
     b36:	e8bd 4008 	ldmia.w	sp!, {r3, lr}
     b3a:	f7ff bffe 	b.w	47c <enet_rx_disable>

00000b3e <enet_current_desc_address_get>:
     b3e:	f100 4080 	add.w	r0, r0, #1073741824	; 0x40000000
     b42:	f500 3020 	add.w	r0, r0, #163840	; 0x28000
     b46:	6800      	ldr	r0, [r0, #0]
     b48:	4770      	bx	lr

00000b4a <enet_desc_information_get>:
     b4a:	2905      	cmp	r1, #5
     b4c:	d818      	bhi.n	b80 <enet_desc_information_get+0x36>
     b4e:	e8df f001 	tbb	[pc, r1]
     b52:	1113      	.short	0x1113
     b54:	11070309 	.word	0x11070309
     b58:	6840      	ldr	r0, [r0, #4]
     b5a:	f3c0 000c 	ubfx	r0, r0, #0, #13
     b5e:	4770      	bx	lr
     b60:	88c0      	ldrh	r0, [r0, #6]
     b62:	e7fa      	b.n	b5a <enet_desc_information_get+0x10>
     b64:	8840      	ldrh	r0, [r0, #2]
     b66:	f3c0 000d 	ubfx	r0, r0, #0, #14
     b6a:	2804      	cmp	r0, #4
     b6c:	bf38      	it	cc
     b6e:	2004      	movcc	r0, #4
     b70:	3804      	subs	r0, #4
     b72:	4770      	bx	lr
     b74:	6880      	ldr	r0, [r0, #8]
     b76:	4770      	bx	lr
     b78:	6800      	ldr	r0, [r0, #0]
     b7a:	f3c0 00c3 	ubfx	r0, r0, #3, #4
     b7e:	4770      	bx	lr
     b80:	f04f 30ff 	mov.w	r0, #4294967295	; 0xffffffff
     b84:	4770      	bx	lr

00000b86 <enet_missed_frame_counter_get>:
     b86:	4b04      	ldr	r3, [pc, #16]	; (b98 <enet_missed_frame_counter_get+0x12>)
     b88:	6a1b      	ldr	r3, [r3, #32]
     b8a:	f3c3 424a 	ubfx	r2, r3, #17, #11
     b8e:	b29b      	uxth	r3, r3
     b90:	6002      	str	r2, [r0, #0]
     b92:	600b      	str	r3, [r1, #0]
     b94:	4770      	bx	lr
     b96:	bf00      	nop
     b98:	40029000 	.word	0x40029000

00000b9c <enet_desc_flag_get>:
     b9c:	6803      	ldr	r3, [r0, #0]
     b9e:	4219      	tst	r1, r3
     ba0:	bf14      	ite	ne
     ba2:	2001      	movne	r0, #1
     ba4:	2000      	moveq	r0, #0
     ba6:	4770      	bx	lr

00000ba8 <enet_desc_flag_set>:
     ba8:	6803      	ldr	r3, [r0, #0]
     baa:	430b      	orrs	r3, r1
     bac:	6003      	str	r3, [r0, #0]
     bae:	4770      	bx	lr

00000bb0 <enet_desc_flag_clear>:
     bb0:	6803      	ldr	r3, [r0, #0]
     bb2:	ea23 0301 	bic.w	r3, r3, r1
     bb6:	6003      	str	r3, [r0, #0]
     bb8:	4770      	bx	lr

00000bba <enet_desc_receive_complete_bit_enable>:
     bba:	6843      	ldr	r3, [r0, #4]
     bbc:	f023 4300 	bic.w	r3, r3, #2147483648	; 0x80000000
     bc0:	6043      	str	r3, [r0, #4]
     bc2:	4770      	bx	lr

00000bc4 <enet_desc_receive_complete_bit_disable>:
     bc4:	6843      	ldr	r3, [r0, #4]
     bc6:	f043 4300 	orr.w	r3, r3, #2147483648	; 0x80000000
     bca:	6043      	str	r3, [r0, #4]
     bcc:	4770      	bx	lr

00000bce <enet_rxframe_drop>:
     bce:	f04f 4300 	mov.w	r3, #2147483648	; 0x80000000
     bd2:	4a17      	ldr	r2, [pc, #92]	; (c30 <enet_rxframe_drop+0x62>)
     bd4:	f8d2 10e0 	ldr.w	r1, [r2, #224]	; 0xe0
     bd8:	6848      	ldr	r0, [r1, #4]
     bda:	600b      	str	r3, [r1, #0]
     bdc:	f410 4f80 	tst.w	r0, #16384	; 0x4000
     be0:	f8d2 30e4 	ldr.w	r3, [r2, #228]	; 0xe4
     be4:	d00c      	beq.n	c00 <enet_rxframe_drop+0x32>
     be6:	b13b      	cbz	r3, bf8 <enet_rxframe_drop+0x2a>
     be8:	68d9      	ldr	r1, [r3, #12]
     bea:	f8c2 10e0 	str.w	r1, [r2, #224]	; 0xe0
     bee:	6819      	ldr	r1, [r3, #0]
     bf0:	b1d9      	cbz	r1, c2a <enet_rxframe_drop+0x5c>
     bf2:	f8c2 10e4 	str.w	r1, [r2, #228]	; 0xe4
     bf6:	4770      	bx	lr
     bf8:	68cb      	ldr	r3, [r1, #12]
     bfa:	f8c2 30e0 	str.w	r3, [r2, #224]	; 0xe0
     bfe:	4770      	bx	lr
     c00:	f410 4f00 	tst.w	r0, #32768	; 0x8000
     c04:	480b      	ldr	r0, [pc, #44]	; (c34 <enet_rxframe_drop+0x66>)
     c06:	d007      	beq.n	c18 <enet_rxframe_drop+0x4a>
     c08:	68c1      	ldr	r1, [r0, #12]
     c0a:	f8c2 10e0 	str.w	r1, [r2, #224]	; 0xe0
     c0e:	b113      	cbz	r3, c16 <enet_rxframe_drop+0x48>
     c10:	681b      	ldr	r3, [r3, #0]
     c12:	f8c2 30e4 	str.w	r3, [r2, #228]	; 0xe4
     c16:	4770      	bx	lr
     c18:	6800      	ldr	r0, [r0, #0]
     c1a:	3110      	adds	r1, #16
     c1c:	f3c0 0084 	ubfx	r0, r0, #2, #5
     c20:	4401      	add	r1, r0
     c22:	f8c2 10e0 	str.w	r1, [r2, #224]	; 0xe0
     c26:	2b00      	cmp	r3, #0
     c28:	d0f5      	beq.n	c16 <enet_rxframe_drop+0x48>
     c2a:	3310      	adds	r3, #16
     c2c:	e7f1      	b.n	c12 <enet_rxframe_drop+0x44>
     c2e:	bf00      	nop
     c30:	00000000 	.word	0x00000000
     c34:	40029000 	.word	0x40029000

00000c38 <enet_rxframe_size_get>:
     c38:	b508      	push	{r3, lr}
     c3a:	4b0c      	ldr	r3, [pc, #48]	; (c6c <enet_rxframe_size_get+0x34>)
     c3c:	f8d3 30e0 	ldr.w	r3, [r3, #224]	; 0xe0
     c40:	6818      	ldr	r0, [r3, #0]
     c42:	2800      	cmp	r0, #0
     c44:	db10      	blt.n	c68 <enet_rxframe_size_get+0x30>
     c46:	f400 4303 	and.w	r3, r0, #33536	; 0x8300
     c4a:	f5b3 7f40 	cmp.w	r3, #768	; 0x300
     c4e:	d003      	beq.n	c58 <enet_rxframe_size_get+0x20>
     c50:	f7ff fffe 	bl	bce <enet_rxframe_drop>
     c54:	2001      	movs	r0, #1
     c56:	bd08      	pop	{r3, pc}
     c58:	f000 0321 	and.w	r3, r0, #33	; 0x21
     c5c:	2b21      	cmp	r3, #33	; 0x21
     c5e:	d0f7      	beq.n	c50 <enet_rxframe_size_get+0x18>
     c60:	f3c0 400d 	ubfx	r0, r0, #16, #14
     c64:	3804      	subs	r0, #4
     c66:	e7f6      	b.n	c56 <enet_rxframe_size_get+0x1e>
     c68:	2000      	movs	r0, #0
     c6a:	e7f4      	b.n	c56 <enet_rxframe_size_get+0x1e>
     c6c:	00000000 	.word	0x00000000

00000c70 <enet_dma_feature_enable>:
     c70:	4a02      	ldr	r2, [pc, #8]	; (c7c <enet_dma_feature_enable+0xc>)
     c72:	6993      	ldr	r3, [r2, #24]
     c74:	4303      	orrs	r3, r0
     c76:	6193      	str	r3, [r2, #24]
     c78:	4770      	bx	lr
     c7a:	bf00      	nop
     c7c:	40029000 	.word	0x40029000

00000c80 <enet_dma_feature_disable>:
     c80:	4a02      	ldr	r2, [pc, #8]	; (c8c <enet_dma_feature_disable+0xc>)
     c82:	6993      	ldr	r3, [r2, #24]
     c84:	ea23 0300 	bic.w	r3, r3, r0
     c88:	6193      	str	r3, [r2, #24]
     c8a:	4770      	bx	lr
     c8c:	40029000 	.word	0x40029000

00000c90 <enet_ptp_normal_descriptors_chain_init>:
     c90:	f5b0 0fe0 	cmp.w	r0, #7340032	; 0x700000
     c94:	b5f0      	push	{r4, r5, r6, r7, lr}
     c96:	4a1c      	ldr	r2, [pc, #112]	; (d08 <enet_ptp_normal_descriptors_chain_init+0x78>)
     c98:	481c      	ldr	r0, [pc, #112]	; (d0c <enet_ptp_normal_descriptors_chain_init+0x7c>)
     c9a:	d122      	bne.n	ce2 <enet_ptp_normal_descriptors_chain_init+0x52>
     c9c:	2700      	movs	r7, #0
     c9e:	f04f 7604 	mov.w	r6, #34603008	; 0x2100000
     ca2:	f102 033c 	add.w	r3, r2, #60	; 0x3c
     ca6:	6103      	str	r3, [r0, #16]
     ca8:	4819      	ldr	r0, [pc, #100]	; (d10 <enet_ptp_normal_descriptors_chain_init+0x80>)
     caa:	f8c2 30dc 	str.w	r3, [r2, #220]	; 0xdc
     cae:	f8c2 10e8 	str.w	r1, [r2, #232]	; 0xe8
     cb2:	4604      	mov	r4, r0
     cb4:	f103 0210 	add.w	r2, r3, #16
     cb8:	f101 0508 	add.w	r5, r1, #8
     cbc:	f103 0e50 	add.w	lr, r3, #80	; 0x50
     cc0:	4572      	cmp	r2, lr
     cc2:	e942 6704 	strd	r6, r7, [r2, #-16]
     cc6:	f842 4c08 	str.w	r4, [r2, #-8]
     cca:	f204 5cf4 	addw	ip, r4, #1524	; 0x5f4
     cce:	f105 0510 	add.w	r5, r5, #16
     cd2:	d011      	beq.n	cf8 <enet_ptp_normal_descriptors_chain_init+0x68>
     cd4:	f842 2c04 	str.w	r2, [r2, #-4]
     cd8:	e945 4204 	strd	r4, r2, [r5, #-16]
     cdc:	4664      	mov	r4, ip
     cde:	3210      	adds	r2, #16
     ce0:	e7ee      	b.n	cc0 <enet_ptp_normal_descriptors_chain_init+0x30>
     ce2:	f102 038c 	add.w	r3, r2, #140	; 0x8c
     ce6:	60c3      	str	r3, [r0, #12]
     ce8:	f244 57f4 	movw	r7, #17908	; 0x45f4
     cec:	f04f 4600 	mov.w	r6, #2147483648	; 0x80000000
     cf0:	e9c2 3138 	strd	r3, r1, [r2, #224]	; 0xe0
     cf4:	4807      	ldr	r0, [pc, #28]	; (d14 <enet_ptp_normal_descriptors_chain_init+0x84>)
     cf6:	e7dc      	b.n	cb2 <enet_ptp_normal_descriptors_chain_init+0x22>
     cf8:	f500 50be 	add.w	r0, r0, #6080	; 0x17c0
     cfc:	3010      	adds	r0, #16
     cfe:	64db      	str	r3, [r3, #76]	; 0x4c
     d00:	e9c1 0312 	strd	r0, r3, [r1, #72]	; 0x48
     d04:	6409      	str	r1, [r1, #64]	; 0x40
     d06:	bdf0      	pop	{r4, r5, r6, r7, pc}
     d08:	00000000 	.word	0x00000000
     d0c:	40029000 	.word	0x40029000
	...

00000d18 <enet_ptp_normal_descriptors_ring_init>:
     d18:	b5f0      	push	{r4, r5, r6, r7, lr}
     d1a:	4c21      	ldr	r4, [pc, #132]	; (da0 <enet_ptp_normal_descriptors_ring_init+0x88>)
     d1c:	f5b0 0fe0 	cmp.w	r0, #7340032	; 0x700000
     d20:	6823      	ldr	r3, [r4, #0]
     d22:	4a20      	ldr	r2, [pc, #128]	; (da4 <enet_ptp_normal_descriptors_ring_init+0x8c>)
     d24:	f023 037c 	bic.w	r3, r3, #124	; 0x7c
     d28:	6023      	str	r3, [r4, #0]
     d2a:	6823      	ldr	r3, [r4, #0]
     d2c:	6023      	str	r3, [r4, #0]
     d2e:	d11d      	bne.n	d6c <enet_ptp_normal_descriptors_ring_init+0x54>
     d30:	f102 033c 	add.w	r3, r2, #60	; 0x3c
     d34:	6123      	str	r3, [r4, #16]
     d36:	f04f 7500 	mov.w	r5, #33554432	; 0x2000000
     d3a:	2400      	movs	r4, #0
     d3c:	f8df c068 	ldr.w	ip, [pc, #104]	; da8 <enet_ptp_normal_descriptors_ring_init+0x90>
     d40:	f8c2 30dc 	str.w	r3, [r2, #220]	; 0xdc
     d44:	f8c2 10e8 	str.w	r1, [r2, #232]	; 0xe8
     d48:	460a      	mov	r2, r1
     d4a:	2600      	movs	r6, #0
     d4c:	f240 5ef4 	movw	lr, #1524	; 0x5f4
     d50:	fb0e c706 	mla	r7, lr, r6, ip
     d54:	2e04      	cmp	r6, #4
     d56:	e9c3 5400 	strd	r5, r4, [r3]
     d5a:	609f      	str	r7, [r3, #8]
     d5c:	d012      	beq.n	d84 <enet_ptp_normal_descriptors_ring_init+0x6c>
     d5e:	6097      	str	r7, [r2, #8]
     d60:	68df      	ldr	r7, [r3, #12]
     d62:	3601      	adds	r6, #1
     d64:	60d7      	str	r7, [r2, #12]
     d66:	3310      	adds	r3, #16
     d68:	3210      	adds	r2, #16
     d6a:	e7f1      	b.n	d50 <enet_ptp_normal_descriptors_ring_init+0x38>
     d6c:	f102 038c 	add.w	r3, r2, #140	; 0x8c
     d70:	60e3      	str	r3, [r4, #12]
     d72:	f04f 4500 	mov.w	r5, #2147483648	; 0x80000000
     d76:	f240 54f4 	movw	r4, #1524	; 0x5f4
     d7a:	e9c2 3138 	strd	r3, r1, [r2, #224]	; 0xe0
     d7e:	f8df c02c 	ldr.w	ip, [pc, #44]	; dac <enet_ptp_normal_descriptors_ring_init+0x94>
     d82:	e7e1      	b.n	d48 <enet_ptp_normal_descriptors_ring_init+0x30>
     d84:	f5b0 0fe0 	cmp.w	r0, #7340032	; 0x700000
     d88:	bf0b      	itete	eq
     d8a:	f445 1500 	orreq.w	r5, r5, #2097152	; 0x200000
     d8e:	f444 4400 	orrne.w	r4, r4, #32768	; 0x8000
     d92:	601d      	streq	r5, [r3, #0]
     d94:	605c      	strne	r4, [r3, #4]
     d96:	6097      	str	r7, [r2, #8]
     d98:	68db      	ldr	r3, [r3, #12]
     d9a:	60d3      	str	r3, [r2, #12]
     d9c:	6409      	str	r1, [r1, #64]	; 0x40
     d9e:	bdf0      	pop	{r4, r5, r6, r7, pc}
     da0:	40029000 	.word	0x40029000
	...

00000db0 <enet_ptpframe_receive_normal_mode>:
     db0:	b530      	push	{r4, r5, lr}
     db2:	4c2a      	ldr	r4, [pc, #168]	; (e5c <enet_ptpframe_receive_normal_mode+0xac>)
     db4:	f8d4 30e0 	ldr.w	r3, [r4, #224]	; 0xe0
     db8:	681b      	ldr	r3, [r3, #0]
     dba:	2b00      	cmp	r3, #0
     dbc:	db4b      	blt.n	e56 <enet_ptpframe_receive_normal_mode+0xa6>
     dbe:	b9e8      	cbnz	r0, dfc <enet_ptpframe_receive_normal_mode+0x4c>
     dc0:	f8d4 30e0 	ldr.w	r3, [r4, #224]	; 0xe0
     dc4:	6899      	ldr	r1, [r3, #8]
     dc6:	6011      	str	r1, [r2, #0]
     dc8:	68d9      	ldr	r1, [r3, #12]
     dca:	6051      	str	r1, [r2, #4]
     dcc:	f8d4 20e4 	ldr.w	r2, [r4, #228]	; 0xe4
     dd0:	6891      	ldr	r1, [r2, #8]
     dd2:	6099      	str	r1, [r3, #8]
     dd4:	68d1      	ldr	r1, [r2, #12]
     dd6:	60d9      	str	r1, [r3, #12]
     dd8:	f04f 4100 	mov.w	r1, #2147483648	; 0x80000000
     ddc:	6019      	str	r1, [r3, #0]
     dde:	4920      	ldr	r1, [pc, #128]	; (e60 <enet_ptpframe_receive_normal_mode+0xb0>)
     de0:	6948      	ldr	r0, [r1, #20]
     de2:	0605      	lsls	r5, r0, #24
     de4:	d41e      	bmi.n	e24 <enet_ptpframe_receive_normal_mode+0x74>
     de6:	6859      	ldr	r1, [r3, #4]
     de8:	0448      	lsls	r0, r1, #17
     dea:	d520      	bpl.n	e2e <enet_ptpframe_receive_normal_mode+0x7e>
     dec:	68d3      	ldr	r3, [r2, #12]
     dee:	f8c4 30e0 	str.w	r3, [r4, #224]	; 0xe0
     df2:	6813      	ldr	r3, [r2, #0]
     df4:	bb1b      	cbnz	r3, e3e <enet_ptpframe_receive_normal_mode+0x8e>
     df6:	f102 0310 	add.w	r3, r2, #16
     dfa:	e020      	b.n	e3e <enet_ptpframe_receive_normal_mode+0x8e>
     dfc:	f403 4503 	and.w	r5, r3, #33536	; 0x8300
     e00:	f5b5 7f40 	cmp.w	r5, #768	; 0x300
     e04:	d127      	bne.n	e56 <enet_ptpframe_receive_normal_mode+0xa6>
     e06:	f3c3 430d 	ubfx	r3, r3, #16, #14
     e0a:	3b04      	subs	r3, #4
     e0c:	428b      	cmp	r3, r1
     e0e:	d822      	bhi.n	e56 <enet_ptpframe_receive_normal_mode+0xa6>
     e10:	2100      	movs	r1, #0
     e12:	4299      	cmp	r1, r3
     e14:	f8d4 50e4 	ldr.w	r5, [r4, #228]	; 0xe4
     e18:	d2d2      	bcs.n	dc0 <enet_ptpframe_receive_normal_mode+0x10>
     e1a:	68ad      	ldr	r5, [r5, #8]
     e1c:	5d4d      	ldrb	r5, [r1, r5]
     e1e:	5445      	strb	r5, [r0, r1]
     e20:	3101      	adds	r1, #1
     e22:	e7f6      	b.n	e12 <enet_ptpframe_receive_normal_mode+0x62>
     e24:	2080      	movs	r0, #128	; 0x80
     e26:	6148      	str	r0, [r1, #20]
     e28:	2000      	movs	r0, #0
     e2a:	6088      	str	r0, [r1, #8]
     e2c:	e7db      	b.n	de6 <enet_ptpframe_receive_normal_mode+0x36>
     e2e:	f411 4f00 	tst.w	r1, #32768	; 0x8000
     e32:	490b      	ldr	r1, [pc, #44]	; (e60 <enet_ptpframe_receive_normal_mode+0xb0>)
     e34:	d007      	beq.n	e46 <enet_ptpframe_receive_normal_mode+0x96>
     e36:	68cb      	ldr	r3, [r1, #12]
     e38:	f8c4 30e0 	str.w	r3, [r4, #224]	; 0xe0
     e3c:	6813      	ldr	r3, [r2, #0]
     e3e:	2001      	movs	r0, #1
     e40:	f8c4 30e4 	str.w	r3, [r4, #228]	; 0xe4
     e44:	bd30      	pop	{r4, r5, pc}
     e46:	6809      	ldr	r1, [r1, #0]
     e48:	3310      	adds	r3, #16
     e4a:	f3c1 0184 	ubfx	r1, r1, #2, #5
     e4e:	440b      	add	r3, r1
     e50:	f8c4 30e0 	str.w	r3, [r4, #224]	; 0xe0
     e54:	e7cf      	b.n	df6 <enet_ptpframe_receive_normal_mode+0x46>
     e56:	2000      	movs	r0, #0
     e58:	e7f4      	b.n	e44 <enet_ptpframe_receive_normal_mode+0x94>
     e5a:	bf00      	nop
     e5c:	00000000 	.word	0x00000000
     e60:	40029000 	.word	0x40029000

00000e64 <enet_ptpframe_transmit_normal_mode>:
     e64:	b570      	push	{r4, r5, r6, lr}
     e66:	4c2e      	ldr	r4, [pc, #184]	; (f20 <enet_ptpframe_transmit_normal_mode+0xbc>)
     e68:	f8d4 30dc 	ldr.w	r3, [r4, #220]	; 0xdc
     e6c:	681b      	ldr	r3, [r3, #0]
     e6e:	2b00      	cmp	r3, #0
     e70:	da01      	bge.n	e76 <enet_ptpframe_transmit_normal_mode+0x12>
     e72:	2000      	movs	r0, #0
     e74:	bd70      	pop	{r4, r5, r6, pc}
     e76:	f240 53f4 	movw	r3, #1524	; 0x5f4
     e7a:	4299      	cmp	r1, r3
     e7c:	d8f9      	bhi.n	e72 <enet_ptpframe_transmit_normal_mode+0xe>
     e7e:	2800      	cmp	r0, #0
     e80:	d136      	bne.n	ef0 <enet_ptpframe_transmit_normal_mode+0x8c>
     e82:	f8d4 30dc 	ldr.w	r3, [r4, #220]	; 0xdc
     e86:	4827      	ldr	r0, [pc, #156]	; (f24 <enet_ptpframe_transmit_normal_mode+0xc0>)
     e88:	6059      	str	r1, [r3, #4]
     e8a:	6819      	ldr	r1, [r3, #0]
     e8c:	f041 4130 	orr.w	r1, r1, #2952790016	; 0xb0000000
     e90:	6019      	str	r1, [r3, #0]
     e92:	6941      	ldr	r1, [r0, #20]
     e94:	6945      	ldr	r5, [r0, #20]
     e96:	f001 0104 	and.w	r1, r1, #4
     e9a:	f005 0520 	and.w	r5, r5, #32
     e9e:	4329      	orrs	r1, r5
     ea0:	d128      	bne.n	ef4 <enet_ptpframe_transmit_normal_mode+0x90>
     ea2:	6819      	ldr	r1, [r3, #0]
     ea4:	b142      	cbz	r2, eb8 <enet_ptpframe_transmit_normal_mode+0x54>
     ea6:	038e      	lsls	r6, r1, #14
     ea8:	d5e3      	bpl.n	e72 <enet_ptpframe_transmit_normal_mode+0xe>
     eaa:	f421 3100 	bic.w	r1, r1, #131072	; 0x20000
     eae:	6019      	str	r1, [r3, #0]
     eb0:	6899      	ldr	r1, [r3, #8]
     eb2:	6011      	str	r1, [r2, #0]
     eb4:	68d9      	ldr	r1, [r3, #12]
     eb6:	6051      	str	r1, [r2, #4]
     eb8:	f8d4 20e8 	ldr.w	r2, [r4, #232]	; 0xe8
     ebc:	6891      	ldr	r1, [r2, #8]
     ebe:	68d0      	ldr	r0, [r2, #12]
     ec0:	6099      	str	r1, [r3, #8]
     ec2:	6819      	ldr	r1, [r3, #0]
     ec4:	60d8      	str	r0, [r3, #12]
     ec6:	02cd      	lsls	r5, r1, #11
     ec8:	d518      	bpl.n	efc <enet_ptpframe_transmit_normal_mode+0x98>
     eca:	6813      	ldr	r3, [r2, #0]
     ecc:	f8c4 00dc 	str.w	r0, [r4, #220]	; 0xdc
     ed0:	b90b      	cbnz	r3, ed6 <enet_ptpframe_transmit_normal_mode+0x72>
     ed2:	f102 0310 	add.w	r3, r2, #16
     ed6:	2001      	movs	r0, #1
     ed8:	f8c4 30e8 	str.w	r3, [r4, #232]	; 0xe8
     edc:	e7ca      	b.n	e74 <enet_ptpframe_transmit_normal_mode+0x10>
     ede:	f8d4 50e8 	ldr.w	r5, [r4, #232]	; 0xe8
     ee2:	5cc6      	ldrb	r6, [r0, r3]
     ee4:	68ad      	ldr	r5, [r5, #8]
     ee6:	555e      	strb	r6, [r3, r5]
     ee8:	3301      	adds	r3, #1
     eea:	428b      	cmp	r3, r1
     eec:	d1f7      	bne.n	ede <enet_ptpframe_transmit_normal_mode+0x7a>
     eee:	e7c8      	b.n	e82 <enet_ptpframe_transmit_normal_mode+0x1e>
     ef0:	2300      	movs	r3, #0
     ef2:	e7fa      	b.n	eea <enet_ptpframe_transmit_normal_mode+0x86>
     ef4:	6141      	str	r1, [r0, #20]
     ef6:	2100      	movs	r1, #0
     ef8:	6041      	str	r1, [r0, #4]
     efa:	e7d2      	b.n	ea2 <enet_ptpframe_transmit_normal_mode+0x3e>
     efc:	f411 1f00 	tst.w	r1, #2097152	; 0x200000
     f00:	4908      	ldr	r1, [pc, #32]	; (f24 <enet_ptpframe_transmit_normal_mode+0xc0>)
     f02:	d004      	beq.n	f0e <enet_ptpframe_transmit_normal_mode+0xaa>
     f04:	690b      	ldr	r3, [r1, #16]
     f06:	f8c4 30dc 	str.w	r3, [r4, #220]	; 0xdc
     f0a:	6813      	ldr	r3, [r2, #0]
     f0c:	e7e3      	b.n	ed6 <enet_ptpframe_transmit_normal_mode+0x72>
     f0e:	6809      	ldr	r1, [r1, #0]
     f10:	3310      	adds	r3, #16
     f12:	f3c1 0184 	ubfx	r1, r1, #2, #5
     f16:	440b      	add	r3, r1
     f18:	f8c4 30dc 	str.w	r3, [r4, #220]	; 0xdc
     f1c:	e7d9      	b.n	ed2 <enet_ptpframe_transmit_normal_mode+0x6e>
     f1e:	bf00      	nop
     f20:	00000000 	.word	0x00000000
     f24:	40029000 	.word	0x40029000

00000f28 <enet_wum_filter_register_pointer_reset>:
     f28:	4a02      	ldr	r2, [pc, #8]	; (f34 <enet_wum_filter_register_pointer_reset+0xc>)
     f2a:	6ad3      	ldr	r3, [r2, #44]	; 0x2c
     f2c:	f043 4300 	orr.w	r3, r3, #2147483648	; 0x80000000
     f30:	62d3      	str	r3, [r2, #44]	; 0x2c
     f32:	4770      	bx	lr
     f34:	40028000 	.word	0x40028000

00000f38 <enet_wum_filter_config>:
     f38:	4a04      	ldr	r2, [pc, #16]	; (f4c <enet_wum_filter_config+0x14>)
     f3a:	1f03      	subs	r3, r0, #4
     f3c:	301c      	adds	r0, #28
     f3e:	f853 1f04 	ldr.w	r1, [r3, #4]!
     f42:	4283      	cmp	r3, r0
     f44:	6291      	str	r1, [r2, #40]	; 0x28
     f46:	d1fa      	bne.n	f3e <enet_wum_filter_config+0x6>
     f48:	4770      	bx	lr
     f4a:	bf00      	nop
     f4c:	40028000 	.word	0x40028000

00000f50 <enet_wum_feature_enable>:
     f50:	4a02      	ldr	r2, [pc, #8]	; (f5c <enet_wum_feature_enable+0xc>)
     f52:	6ad3      	ldr	r3, [r2, #44]	; 0x2c
     f54:	4303      	orrs	r3, r0
     f56:	62d3      	str	r3, [r2, #44]	; 0x2c
     f58:	4770      	bx	lr
     f5a:	bf00      	nop
     f5c:	40028000 	.word	0x40028000

00000f60 <enet_wum_feature_disable>:
     f60:	4a02      	ldr	r2, [pc, #8]	; (f6c <enet_wum_feature_disable+0xc>)
     f62:	6ad3      	ldr	r3, [r2, #44]	; 0x2c
     f64:	ea23 0300 	bic.w	r3, r3, r0
     f68:	62d3      	str	r3, [r2, #44]	; 0x2c
     f6a:	4770      	bx	lr
     f6c:	40028000 	.word	0x40028000

00000f70 <enet_msc_counters_reset>:
     f70:	4a03      	ldr	r2, [pc, #12]	; (f80 <enet_msc_counters_reset+0x10>)
     f72:	f8d2 3100 	ldr.w	r3, [r2, #256]	; 0x100
     f76:	f043 0301 	orr.w	r3, r3, #1
     f7a:	f8c2 3100 	str.w	r3, [r2, #256]	; 0x100
     f7e:	4770      	bx	lr
     f80:	40028000 	.word	0x40028000

00000f84 <enet_msc_feature_enable>:
     f84:	4a03      	ldr	r2, [pc, #12]	; (f94 <enet_msc_feature_enable+0x10>)
     f86:	f8d2 3100 	ldr.w	r3, [r2, #256]	; 0x100
     f8a:	4303      	orrs	r3, r0
     f8c:	f8c2 3100 	str.w	r3, [r2, #256]	; 0x100
     f90:	4770      	bx	lr
     f92:	bf00      	nop
     f94:	40028000 	.word	0x40028000

00000f98 <enet_msc_feature_disable>:
     f98:	4a03      	ldr	r2, [pc, #12]	; (fa8 <enet_msc_feature_disable+0x10>)
     f9a:	f8d2 3100 	ldr.w	r3, [r2, #256]	; 0x100
     f9e:	ea23 0300 	bic.w	r3, r3, r0
     fa2:	f8c2 3100 	str.w	r3, [r2, #256]	; 0x100
     fa6:	4770      	bx	lr
     fa8:	40028000 	.word	0x40028000

00000fac <enet_msc_counters_get>:
     fac:	f100 4080 	add.w	r0, r0, #1073741824	; 0x40000000
     fb0:	f500 3020 	add.w	r0, r0, #163840	; 0x28000
     fb4:	6800      	ldr	r0, [r0, #0]
     fb6:	4770      	bx	lr

00000fb8 <enet_ptp_subsecond_2_nanosecond>:
     fb8:	4b03      	ldr	r3, [pc, #12]	; (fc8 <enet_ptp_subsecond_2_nanosecond+0x10>)
     fba:	fba0 0303 	umull	r0, r3, r0, r3
     fbe:	0fc0      	lsrs	r0, r0, #31
     fc0:	ea40 0043 	orr.w	r0, r0, r3, lsl #1
     fc4:	4770      	bx	lr
     fc6:	bf00      	nop
     fc8:	3b9aca00 	.word	0x3b9aca00

00000fcc <enet_ptp_nanosecond_2_subsecond>:
     fcc:	4601      	mov	r1, r0
     fce:	b508      	push	{r3, lr}
     fd0:	a303      	add	r3, pc, #12	; (adr r3, fe0 <enet_ptp_nanosecond_2_subsecond+0x14>)
     fd2:	e9d3 2300 	ldrd	r2, r3, [r3]
     fd6:	07c0      	lsls	r0, r0, #31
     fd8:	0849      	lsrs	r1, r1, #1
     fda:	f7ff fffe 	bl	0 <__aeabi_uldivmod>
     fde:	bd08      	pop	{r3, pc}
     fe0:	3b9aca00 	.word	0x3b9aca00
     fe4:	00000000 	.word	0x00000000

00000fe8 <enet_ptp_feature_enable>:
     fe8:	4a03      	ldr	r2, [pc, #12]	; (ff8 <enet_ptp_feature_enable+0x10>)
     fea:	f8d2 3700 	ldr.w	r3, [r2, #1792]	; 0x700
     fee:	4303      	orrs	r3, r0
     ff0:	f8c2 3700 	str.w	r3, [r2, #1792]	; 0x700
     ff4:	4770      	bx	lr
     ff6:	bf00      	nop
     ff8:	40028000 	.word	0x40028000

00000ffc <enet_ptp_feature_disable>:
     ffc:	4a03      	ldr	r2, [pc, #12]	; (100c <enet_ptp_feature_disable+0x10>)
     ffe:	f8d2 3700 	ldr.w	r3, [r2, #1792]	; 0x700
    1002:	ea23 0300 	bic.w	r3, r3, r0
    1006:	f8c2 3700 	str.w	r3, [r2, #1792]	; 0x700
    100a:	4770      	bx	lr
    100c:	40028000 	.word	0x40028000

00001010 <enet_ptp_timestamp_function_config>:
    1010:	2808      	cmp	r0, #8
    1012:	d026      	beq.n	1062 <enet_ptp_timestamp_function_config+0x52>
    1014:	2820      	cmp	r0, #32
    1016:	d00d      	beq.n	1034 <enet_ptp_timestamp_function_config+0x24>
    1018:	2804      	cmp	r0, #4
    101a:	d13c      	bne.n	1096 <enet_ptp_timestamp_function_config+0x86>
    101c:	2300      	movs	r3, #0
    101e:	4a24      	ldr	r2, [pc, #144]	; (10b0 <enet_ptp_timestamp_function_config+0xa0>)
    1020:	4924      	ldr	r1, [pc, #144]	; (10b4 <enet_ptp_timestamp_function_config+0xa4>)
    1022:	f8d2 0700 	ldr.w	r0, [r2, #1792]	; 0x700
    1026:	3301      	adds	r3, #1
    1028:	f010 0004 	ands.w	r0, r0, #4
    102c:	d02c      	beq.n	1088 <enet_ptp_timestamp_function_config+0x78>
    102e:	428b      	cmp	r3, r1
    1030:	d1f7      	bne.n	1022 <enet_ptp_timestamp_function_config+0x12>
    1032:	e00a      	b.n	104a <enet_ptp_timestamp_function_config+0x3a>
    1034:	2300      	movs	r3, #0
    1036:	4a1e      	ldr	r2, [pc, #120]	; (10b0 <enet_ptp_timestamp_function_config+0xa0>)
    1038:	491e      	ldr	r1, [pc, #120]	; (10b4 <enet_ptp_timestamp_function_config+0xa4>)
    103a:	f8d2 0700 	ldr.w	r0, [r2, #1792]	; 0x700
    103e:	3301      	adds	r3, #1
    1040:	f010 0020 	ands.w	r0, r0, #32
    1044:	d003      	beq.n	104e <enet_ptp_timestamp_function_config+0x3e>
    1046:	428b      	cmp	r3, r1
    1048:	d1f7      	bne.n	103a <enet_ptp_timestamp_function_config+0x2a>
    104a:	2000      	movs	r0, #0
    104c:	4770      	bx	lr
    104e:	428b      	cmp	r3, r1
    1050:	d02d      	beq.n	10ae <enet_ptp_timestamp_function_config+0x9e>
    1052:	f8d2 3700 	ldr.w	r3, [r2, #1792]	; 0x700
    1056:	f043 0320 	orr.w	r3, r3, #32
    105a:	f8c2 3700 	str.w	r3, [r2, #1792]	; 0x700
    105e:	2001      	movs	r0, #1
    1060:	4770      	bx	lr
    1062:	2300      	movs	r3, #0
    1064:	4a12      	ldr	r2, [pc, #72]	; (10b0 <enet_ptp_timestamp_function_config+0xa0>)
    1066:	4913      	ldr	r1, [pc, #76]	; (10b4 <enet_ptp_timestamp_function_config+0xa4>)
    1068:	f8d2 0700 	ldr.w	r0, [r2, #1792]	; 0x700
    106c:	3301      	adds	r3, #1
    106e:	f010 000c 	ands.w	r0, r0, #12
    1072:	d002      	beq.n	107a <enet_ptp_timestamp_function_config+0x6a>
    1074:	428b      	cmp	r3, r1
    1076:	d1f7      	bne.n	1068 <enet_ptp_timestamp_function_config+0x58>
    1078:	e7e7      	b.n	104a <enet_ptp_timestamp_function_config+0x3a>
    107a:	428b      	cmp	r3, r1
    107c:	d017      	beq.n	10ae <enet_ptp_timestamp_function_config+0x9e>
    107e:	f8d2 3700 	ldr.w	r3, [r2, #1792]	; 0x700
    1082:	f043 0308 	orr.w	r3, r3, #8
    1086:	e7e8      	b.n	105a <enet_ptp_timestamp_function_config+0x4a>
    1088:	428b      	cmp	r3, r1
    108a:	d010      	beq.n	10ae <enet_ptp_timestamp_function_config+0x9e>
    108c:	f8d2 3700 	ldr.w	r3, [r2, #1792]	; 0x700
    1090:	f043 0304 	orr.w	r3, r3, #4
    1094:	e7e1      	b.n	105a <enet_ptp_timestamp_function_config+0x4a>
    1096:	4b06      	ldr	r3, [pc, #24]	; (10b0 <enet_ptp_timestamp_function_config+0xa0>)
    1098:	f020 4100 	bic.w	r1, r0, #2147483648	; 0x80000000
    109c:	f8d3 2700 	ldr.w	r2, [r3, #1792]	; 0x700
    10a0:	2800      	cmp	r0, #0
    10a2:	bfb4      	ite	lt
    10a4:	430a      	orrlt	r2, r1
    10a6:	438a      	bicge	r2, r1
    10a8:	f8c3 2700 	str.w	r2, [r3, #1792]	; 0x700
    10ac:	e7d7      	b.n	105e <enet_ptp_timestamp_function_config+0x4e>
    10ae:	4770      	bx	lr
    10b0:	40028000 	.word	0x40028000
    10b4:	0004ffff 	.word	0x0004ffff

000010b8 <enet_ptp_subsecond_increment_config>:
    10b8:	4b02      	ldr	r3, [pc, #8]	; (10c4 <enet_ptp_subsecond_increment_config+0xc>)
    10ba:	b2c0      	uxtb	r0, r0
    10bc:	f8c3 0704 	str.w	r0, [r3, #1796]	; 0x704
    10c0:	4770      	bx	lr
    10c2:	bf00      	nop
    10c4:	40028000 	.word	0x40028000

000010c8 <enet_ptp_timestamp_addend_config>:
    10c8:	4b01      	ldr	r3, [pc, #4]	; (10d0 <enet_ptp_timestamp_addend_config+0x8>)
    10ca:	f8c3 0718 	str.w	r0, [r3, #1816]	; 0x718
    10ce:	4770      	bx	lr
    10d0:	40028000 	.word	0x40028000

000010d4 <enet_ptp_timestamp_update_config>:
    10d4:	4b04      	ldr	r3, [pc, #16]	; (10e8 <enet_ptp_timestamp_update_config+0x14>)
    10d6:	f022 4200 	bic.w	r2, r2, #2147483648	; 0x80000000
    10da:	4302      	orrs	r2, r0
    10dc:	f8c3 1710 	str.w	r1, [r3, #1808]	; 0x710
    10e0:	f8c3 2714 	str.w	r2, [r3, #1812]	; 0x714
    10e4:	4770      	bx	lr
    10e6:	bf00      	nop
    10e8:	40028000 	.word	0x40028000

000010ec <enet_ptp_expected_time_config>:
    10ec:	4b02      	ldr	r3, [pc, #8]	; (10f8 <enet_ptp_expected_time_config+0xc>)
    10ee:	f8c3 071c 	str.w	r0, [r3, #1820]	; 0x71c
    10f2:	f8c3 1720 	str.w	r1, [r3, #1824]	; 0x720
    10f6:	4770      	bx	lr
    10f8:	40028000 	.word	0x40028000

000010fc <enet_ptp_system_time_get>:
    10fc:	4b08      	ldr	r3, [pc, #32]	; (1120 <enet_ptp_system_time_get+0x24>)
    10fe:	f8d3 1708 	ldr.w	r1, [r3, #1800]	; 0x708
    1102:	f8d3 270c 	ldr.w	r2, [r3, #1804]	; 0x70c
    1106:	6001      	str	r1, [r0, #0]
    1108:	4906      	ldr	r1, [pc, #24]	; (1124 <enet_ptp_system_time_get+0x28>)
    110a:	f022 4300 	bic.w	r3, r2, #2147483648	; 0x80000000
    110e:	fba3 3101 	umull	r3, r1, r3, r1
    1112:	0fdb      	lsrs	r3, r3, #31
    1114:	ea43 0341 	orr.w	r3, r3, r1, lsl #1
    1118:	0fd2      	lsrs	r2, r2, #31
    111a:	6043      	str	r3, [r0, #4]
    111c:	6082      	str	r2, [r0, #8]
    111e:	4770      	bx	lr
    1120:	40028000 	.word	0x40028000
    1124:	3b9aca00 	.word	0x3b9aca00

00001128 <enet_ptp_finecorrection_adjfreq>:
    1128:	4b02      	ldr	r3, [pc, #8]	; (1134 <enet_ptp_finecorrection_adjfreq+0xc>)
    112a:	f8c3 0718 	str.w	r0, [r3, #1816]	; 0x718
    112e:	2020      	movs	r0, #32
    1130:	f7ff bffe 	b.w	1010 <enet_ptp_timestamp_function_config>
    1134:	40028000 	.word	0x40028000

00001138 <enet_ptp_flag_get>:
    1138:	4b03      	ldr	r3, [pc, #12]	; (1148 <enet_ptp_flag_get+0x10>)
    113a:	f8d3 3700 	ldr.w	r3, [r3, #1792]	; 0x700
    113e:	4203      	tst	r3, r0
    1140:	bf14      	ite	ne
    1142:	2001      	movne	r0, #1
    1144:	2000      	moveq	r0, #0
    1146:	4770      	bx	lr
    1148:	40028000 	.word	0x40028000

0000114c <enet_ptp_start>:
    114c:	e92d 41f0 	stmdb	sp!, {r4, r5, r6, r7, r8, lr}
    1150:	4605      	mov	r5, r0
    1152:	f640 7009 	movw	r0, #3849	; 0xf09
    1156:	4614      	mov	r4, r2
    1158:	461f      	mov	r7, r3
    115a:	f8dd 8018 	ldr.w	r8, [sp, #24]
    115e:	460e      	mov	r6, r1
    1160:	f7ff fffe 	bl	420 <enet_interrupt_disable>
    1164:	2001      	movs	r0, #1
    1166:	f7ff fffe 	bl	fe8 <enet_ptp_feature_enable>
    116a:	4a10      	ldr	r2, [pc, #64]	; (11ac <enet_ptp_start+0x60>)
    116c:	fa5f f388 	uxtb.w	r3, r8
    1170:	f8c2 3704 	str.w	r3, [r2, #1796]	; 0x704
    1174:	4b0e      	ldr	r3, [pc, #56]	; (11b0 <enet_ptp_start+0x64>)
    1176:	429d      	cmp	r5, r3
    1178:	d109      	bne.n	118e <enet_ptp_start+0x42>
    117a:	2020      	movs	r0, #32
    117c:	f8c2 7718 	str.w	r7, [r2, #1816]	; 0x718
    1180:	f7ff fffe 	bl	1010 <enet_ptp_timestamp_function_config>
    1184:	2020      	movs	r0, #32
    1186:	f7ff fffe 	bl	1138 <enet_ptp_flag_get>
    118a:	2801      	cmp	r0, #1
    118c:	d0fa      	beq.n	1184 <enet_ptp_start+0x38>
    118e:	4628      	mov	r0, r5
    1190:	f7ff fffe 	bl	1010 <enet_ptp_timestamp_function_config>
    1194:	4b05      	ldr	r3, [pc, #20]	; (11ac <enet_ptp_start+0x60>)
    1196:	f024 4400 	bic.w	r4, r4, #2147483648	; 0x80000000
    119a:	f8c3 6710 	str.w	r6, [r3, #1808]	; 0x710
    119e:	2004      	movs	r0, #4
    11a0:	f8c3 4714 	str.w	r4, [r3, #1812]	; 0x714
    11a4:	e8bd 41f0 	ldmia.w	sp!, {r4, r5, r6, r7, r8, lr}
    11a8:	f7ff bffe 	b.w	1010 <enet_ptp_timestamp_function_config>
    11ac:	40028000 	.word	0x40028000
    11b0:	80000002 	.word	0x80000002

000011b4 <enet_ptp_coarsecorrection_systime_update>:
    11b4:	b538      	push	{r3, r4, r5, lr}
    11b6:	e9d0 1501 	ldrd	r1, r5, [r0, #4]
    11ba:	6803      	ldr	r3, [r0, #0]
    11bc:	4c12      	ldr	r4, [pc, #72]	; (1208 <enet_ptp_coarsecorrection_systime_update+0x54>)
    11be:	07c8      	lsls	r0, r1, #31
    11c0:	f8c4 3710 	str.w	r3, [r4, #1808]	; 0x710
    11c4:	0849      	lsrs	r1, r1, #1
    11c6:	a30e      	add	r3, pc, #56	; (adr r3, 1200 <enet_ptp_coarsecorrection_systime_update+0x4c>)
    11c8:	e9d3 2300 	ldrd	r2, r3, [r3]
    11cc:	f7ff fffe 	bl	0 <__aeabi_uldivmod>
    11d0:	f020 4000 	bic.w	r0, r0, #2147483648	; 0x80000000
    11d4:	4328      	orrs	r0, r5
    11d6:	f8c4 0714 	str.w	r0, [r4, #1812]	; 0x714
    11da:	2008      	movs	r0, #8
    11dc:	f7ff fffe 	bl	1010 <enet_ptp_timestamp_function_config>
    11e0:	2008      	movs	r0, #8
    11e2:	f7ff fffe 	bl	1138 <enet_ptp_flag_get>
    11e6:	2801      	cmp	r0, #1
    11e8:	d0fa      	beq.n	11e0 <enet_ptp_coarsecorrection_systime_update+0x2c>
    11ea:	f04f 33ff 	mov.w	r3, #4294967295	; 0xffffffff
    11ee:	2020      	movs	r0, #32
    11f0:	f8c4 3718 	str.w	r3, [r4, #1816]	; 0x718
    11f4:	e8bd 4038 	ldmia.w	sp!, {r3, r4, r5, lr}
    11f8:	f7ff bffe 	b.w	1010 <enet_ptp_timestamp_function_config>
    11fc:	f3af 8000 	nop.w
    1200:	3b9aca00 	.word	0x3b9aca00
    1204:	00000000 	.word	0x00000000
    1208:	40028000 	.word	0x40028000

0000120c <enet_ptp_finecorrection_settime>:
    120c:	b538      	push	{r3, r4, r5, lr}
    120e:	e9d0 1501 	ldrd	r1, r5, [r0, #4]
    1212:	6803      	ldr	r3, [r0, #0]
    1214:	4c0e      	ldr	r4, [pc, #56]	; (1250 <enet_ptp_finecorrection_settime+0x44>)
    1216:	07c8      	lsls	r0, r1, #31
    1218:	f8c4 3710 	str.w	r3, [r4, #1808]	; 0x710
    121c:	0849      	lsrs	r1, r1, #1
    121e:	a30a      	add	r3, pc, #40	; (adr r3, 1248 <enet_ptp_finecorrection_settime+0x3c>)
    1220:	e9d3 2300 	ldrd	r2, r3, [r3]
    1224:	f7ff fffe 	bl	0 <__aeabi_uldivmod>
    1228:	f020 4000 	bic.w	r0, r0, #2147483648	; 0x80000000
    122c:	4328      	orrs	r0, r5
    122e:	f8c4 0714 	str.w	r0, [r4, #1812]	; 0x714
    1232:	2004      	movs	r0, #4
    1234:	f7ff fffe 	bl	1010 <enet_ptp_timestamp_function_config>
    1238:	2004      	movs	r0, #4
    123a:	f7ff fffe 	bl	1138 <enet_ptp_flag_get>
    123e:	2801      	cmp	r0, #1
    1240:	d0fa      	beq.n	1238 <enet_ptp_finecorrection_settime+0x2c>
    1242:	bd38      	pop	{r3, r4, r5, pc}
    1244:	f3af 8000 	nop.w
    1248:	3b9aca00 	.word	0x3b9aca00
    124c:	00000000 	.word	0x00000000
    1250:	40028000 	.word	0x40028000

00001254 <enet_initpara_reset>:
    1254:	2200      	movs	r2, #0
    1256:	4b08      	ldr	r3, [pc, #32]	; (1278 <enet_initpara_reset+0x24>)
    1258:	e9c3 2200 	strd	r2, r2, [r3]
    125c:	e9c3 2202 	strd	r2, r2, [r3, #8]
    1260:	e9c3 2204 	strd	r2, r2, [r3, #16]
    1264:	e9c3 2206 	strd	r2, r2, [r3, #24]
    1268:	e9c3 2208 	strd	r2, r2, [r3, #32]
    126c:	e9c3 220a 	strd	r2, r2, [r3, #40]	; 0x28
    1270:	e9c3 220c 	strd	r2, r2, [r3, #48]	; 0x30
    1274:	639a      	str	r2, [r3, #56]	; 0x38
    1276:	4770      	bx	lr
    1278:	00000000 	.word	0x00000000

0000127c <enet_deinit>:
    127c:	b508      	push	{r3, lr}
    127e:	f640 200e 	movw	r0, #2574	; 0xa0e
    1282:	f7ff fffe 	bl	0 <rcu_periph_reset_enable>
    1286:	f640 200e 	movw	r0, #2574	; 0xa0e
    128a:	f7ff fffe 	bl	0 <rcu_periph_reset_disable>
    128e:	e8bd 4008 	ldmia.w	sp!, {r3, lr}
    1292:	f7ff bffe 	b.w	1254 <enet_initpara_reset>
    1296:	bf00      	nop

gd32f20x_exmc.o:     file format elf32-littlearm


Disassembly of section .text:

00000000 <exmc_norsram_deinit>:
   0:	f243 03da 	movw	r3, #12506	; 0x30da
   4:	f100 50a0 	add.w	r0, r0, #335544320	; 0x14000000
   8:	00c0      	lsls	r0, r0, #3
   a:	6003      	str	r3, [r0, #0]
   c:	f06f 4370 	mvn.w	r3, #4026531840	; 0xf0000000
  10:	6043      	str	r3, [r0, #4]
  12:	f8c0 3104 	str.w	r3, [r0, #260]	; 0x104
  16:	4770      	bx	lr

00000018 <exmc_norsram_struct_para_init>:
  18:	2300      	movs	r3, #0
  1a:	2201      	movs	r2, #1
  1c:	b530      	push	{r4, r5, lr}
  1e:	210f      	movs	r1, #15
  20:	24ff      	movs	r4, #255	; 0xff
  22:	f04f 6570 	mov.w	r5, #251658240	; 0xf000000
  26:	f44f 0c70 	mov.w	ip, #15728640	; 0xf00000
  2a:	e9c0 320b 	strd	r3, r2, [r0, #44]	; 0x2c
  2e:	e9c0 2305 	strd	r2, r3, [r0, #20]
  32:	6102      	str	r2, [r0, #16]
  34:	6b42      	ldr	r2, [r0, #52]	; 0x34
  36:	e9c0 3309 	strd	r3, r3, [r0, #36]	; 0x24
  3a:	e9c0 3307 	strd	r3, r3, [r0, #28]
  3e:	e9c0 3302 	strd	r3, r3, [r0, #8]
  42:	6003      	str	r3, [r0, #0]
  44:	6043      	str	r3, [r0, #4]
  46:	e9c2 1105 	strd	r1, r1, [r2, #20]
  4a:	e9c2 1403 	strd	r1, r4, [r2, #12]
  4e:	6013      	str	r3, [r2, #0]
  50:	e9c2 5c01 	strd	r5, ip, [r2, #4]
  54:	6b82      	ldr	r2, [r0, #56]	; 0x38
  56:	e9c2 1105 	strd	r1, r1, [r2, #20]
  5a:	e9c2 1403 	strd	r1, r4, [r2, #12]
  5e:	6013      	str	r3, [r2, #0]
  60:	bd30      	pop	{r4, r5, pc}

00000062 <exmc_norsram_init>:
  62:	6802      	ldr	r2, [r0, #0]
  64:	b5f0      	push	{r4, r5, r6, r7, lr}
  66:	f102 52a0 	add.w	r2, r2, #335544320	; 0x14000000
  6a:	00d2      	lsls	r2, r2, #3
  6c:	6813      	ldr	r3, [r2, #0]
  6e:	4d38      	ldr	r5, [pc, #224]	; (150 <exmc_norsram_init+0xee>)
  70:	6ac4      	ldr	r4, [r0, #44]	; 0x2c
  72:	401d      	ands	r5, r3
  74:	6a83      	ldr	r3, [r0, #40]	; 0x28
  76:	6a06      	ldr	r6, [r0, #32]
  78:	4323      	orrs	r3, r4
  7a:	4333      	orrs	r3, r6
  7c:	6986      	ldr	r6, [r0, #24]
  7e:	6881      	ldr	r1, [r0, #8]
  80:	4333      	orrs	r3, r6
  82:	6846      	ldr	r6, [r0, #4]
  84:	2c08      	cmp	r4, #8
  86:	ea43 0306 	orr.w	r3, r3, r6
  8a:	6b06      	ldr	r6, [r0, #48]	; 0x30
  8c:	ea43 0346 	orr.w	r3, r3, r6, lsl #1
  90:	6a46      	ldr	r6, [r0, #36]	; 0x24
  92:	ea43 2306 	orr.w	r3, r3, r6, lsl #8
  96:	69c6      	ldr	r6, [r0, #28]
  98:	ea43 2386 	orr.w	r3, r3, r6, lsl #10
  9c:	6946      	ldr	r6, [r0, #20]
  9e:	ea43 3306 	orr.w	r3, r3, r6, lsl #12
  a2:	6906      	ldr	r6, [r0, #16]
  a4:	ea43 3346 	orr.w	r3, r3, r6, lsl #13
  a8:	68c6      	ldr	r6, [r0, #12]
  aa:	ea43 3381 	orr.w	r3, r3, r1, lsl #14
  ae:	ea43 33c6 	orr.w	r3, r3, r6, lsl #15
  b2:	6b46      	ldr	r6, [r0, #52]	; 0x34
  b4:	ea43 0305 	orr.w	r3, r3, r5
  b8:	e9d6 7501 	ldrd	r7, r5, [r6, #4]
  bc:	ea45 0507 	orr.w	r5, r5, r7
  c0:	6837      	ldr	r7, [r6, #0]
  c2:	bf08      	it	eq
  c4:	f043 0340 	orreq.w	r3, r3, #64	; 0x40
  c8:	433d      	orrs	r5, r7
  ca:	69b7      	ldr	r7, [r6, #24]
  cc:	2901      	cmp	r1, #1
  ce:	f107 37ff 	add.w	r7, r7, #4294967295	; 0xffffffff
  d2:	f007 070f 	and.w	r7, r7, #15
  d6:	ea45 0507 	orr.w	r5, r5, r7
  da:	6977      	ldr	r7, [r6, #20]
  dc:	f107 37ff 	add.w	r7, r7, #4294967295	; 0xffffffff
  e0:	ea4f 1707 	mov.w	r7, r7, lsl #4
  e4:	b2ff      	uxtb	r7, r7
  e6:	ea45 0507 	orr.w	r5, r5, r7
  ea:	6937      	ldr	r7, [r6, #16]
  ec:	68f6      	ldr	r6, [r6, #12]
  ee:	f107 37ff 	add.w	r7, r7, #4294967295	; 0xffffffff
  f2:	ea4f 2707 	mov.w	r7, r7, lsl #8
  f6:	f106 36ff 	add.w	r6, r6, #4294967295	; 0xffffffff
  fa:	b2bf      	uxth	r7, r7
  fc:	ea4f 4606 	mov.w	r6, r6, lsl #16
 100:	ea45 0507 	orr.w	r5, r5, r7
 104:	f406 2670 	and.w	r6, r6, #983040	; 0xf0000
 108:	ea45 0506 	orr.w	r5, r5, r6
 10c:	d11d      	bne.n	14a <exmc_norsram_init+0xe8>
 10e:	6b86      	ldr	r6, [r0, #56]	; 0x38
 110:	69b1      	ldr	r1, [r6, #24]
 112:	6834      	ldr	r4, [r6, #0]
 114:	3901      	subs	r1, #1
 116:	f001 010f 	and.w	r1, r1, #15
 11a:	4321      	orrs	r1, r4
 11c:	6974      	ldr	r4, [r6, #20]
 11e:	3c01      	subs	r4, #1
 120:	0124      	lsls	r4, r4, #4
 122:	b2e4      	uxtb	r4, r4
 124:	4321      	orrs	r1, r4
 126:	6934      	ldr	r4, [r6, #16]
 128:	3c01      	subs	r4, #1
 12a:	0224      	lsls	r4, r4, #8
 12c:	b2a4      	uxth	r4, r4
 12e:	4321      	orrs	r1, r4
 130:	6013      	str	r3, [r2, #0]
 132:	6803      	ldr	r3, [r0, #0]
 134:	00db      	lsls	r3, r3, #3
 136:	f103 4320 	add.w	r3, r3, #2684354560	; 0xa0000000
 13a:	605d      	str	r5, [r3, #4]
 13c:	6803      	ldr	r3, [r0, #0]
 13e:	00db      	lsls	r3, r3, #3
 140:	f103 4320 	add.w	r3, r3, #2684354560	; 0xa0000000
 144:	f8c3 1104 	str.w	r1, [r3, #260]	; 0x104
 148:	bdf0      	pop	{r4, r5, r6, r7, pc}
 14a:	f06f 4170 	mvn.w	r1, #4026531840	; 0xf0000000
 14e:	e7ef      	b.n	130 <exmc_norsram_init+0xce>
 150:	fff70081 	.word	0xfff70081

00000154 <exmc_norsram_enable>:
 154:	f100 50a0 	add.w	r0, r0, #335544320	; 0x14000000
 158:	00c0      	lsls	r0, r0, #3
 15a:	6803      	ldr	r3, [r0, #0]
 15c:	f043 0301 	orr.w	r3, r3, #1
 160:	6003      	str	r3, [r0, #0]
 162:	4770      	bx	lr

00000164 <exmc_norsram_disable>:
 164:	f100 50a0 	add.w	r0, r0, #335544320	; 0x14000000
 168:	00c0      	lsls	r0, r0, #3
 16a:	6803      	ldr	r3, [r0, #0]
 16c:	f023 0301 	bic.w	r3, r3, #1
 170:	6003      	str	r3, [r0, #0]
 172:	4770      	bx	lr

00000174 <exmc_nand_deinit>:
 174:	2308      	movs	r3, #8
 176:	f100 60a0 	add.w	r0, r0, #83886080	; 0x5000000
 17a:	3002      	adds	r0, #2
 17c:	0140      	lsls	r0, r0, #5
 17e:	6003      	str	r3, [r0, #0]
 180:	2342      	movs	r3, #66	; 0x42
 182:	6043      	str	r3, [r0, #4]
 184:	f04f 33ff 	mov.w	r3, #4294967295	; 0xffffffff
 188:	6083      	str	r3, [r0, #8]
 18a:	60c3      	str	r3, [r0, #12]
 18c:	4770      	bx	lr

0000018e <exmc_nand_struct_para_init>:
 18e:	2301      	movs	r3, #1
 190:	6003      	str	r3, [r0, #0]
 192:	2300      	movs	r3, #0
 194:	e9c0 3305 	strd	r3, r3, [r0, #20]
 198:	e9c0 3302 	strd	r3, r3, [r0, #8]
 19c:	6103      	str	r3, [r0, #16]
 19e:	6043      	str	r3, [r0, #4]
 1a0:	23fc      	movs	r3, #252	; 0xfc
 1a2:	69c2      	ldr	r2, [r0, #28]
 1a4:	e9c2 3302 	strd	r3, r3, [r2, #8]
 1a8:	e9c2 3300 	strd	r3, r3, [r2]
 1ac:	6a02      	ldr	r2, [r0, #32]
 1ae:	e9c2 3302 	strd	r3, r3, [r2, #8]
 1b2:	e9c2 3300 	strd	r3, r3, [r2]
 1b6:	4770      	bx	lr

000001b8 <exmc_nand_init>:
 1b8:	6943      	ldr	r3, [r0, #20]
 1ba:	6842      	ldr	r2, [r0, #4]
 1bc:	b530      	push	{r4, r5, lr}
 1be:	431a      	orrs	r2, r3
 1c0:	6903      	ldr	r3, [r0, #16]
 1c2:	69c4      	ldr	r4, [r0, #28]
 1c4:	ea42 1283 	orr.w	r2, r2, r3, lsl #6
 1c8:	68c3      	ldr	r3, [r0, #12]
 1ca:	6a05      	ldr	r5, [r0, #32]
 1cc:	431a      	orrs	r2, r3
 1ce:	6883      	ldr	r3, [r0, #8]
 1d0:	431a      	orrs	r2, r3
 1d2:	6983      	ldr	r3, [r0, #24]
 1d4:	ea42 0243 	orr.w	r2, r2, r3, lsl #1
 1d8:	68e3      	ldr	r3, [r4, #12]
 1da:	f042 0208 	orr.w	r2, r2, #8
 1de:	1e59      	subs	r1, r3, #1
 1e0:	6863      	ldr	r3, [r4, #4]
 1e2:	b2c9      	uxtb	r1, r1
 1e4:	041b      	lsls	r3, r3, #16
 1e6:	f403 037f 	and.w	r3, r3, #16711680	; 0xff0000
 1ea:	4319      	orrs	r1, r3
 1ec:	6823      	ldr	r3, [r4, #0]
 1ee:	3b01      	subs	r3, #1
 1f0:	ea41 6103 	orr.w	r1, r1, r3, lsl #24
 1f4:	68a3      	ldr	r3, [r4, #8]
 1f6:	686c      	ldr	r4, [r5, #4]
 1f8:	3b01      	subs	r3, #1
 1fa:	021b      	lsls	r3, r3, #8
 1fc:	b29b      	uxth	r3, r3
 1fe:	4319      	orrs	r1, r3
 200:	68eb      	ldr	r3, [r5, #12]
 202:	0424      	lsls	r4, r4, #16
 204:	3b01      	subs	r3, #1
 206:	f404 047f 	and.w	r4, r4, #16711680	; 0xff0000
 20a:	b2db      	uxtb	r3, r3
 20c:	4323      	orrs	r3, r4
 20e:	682c      	ldr	r4, [r5, #0]
 210:	3c01      	subs	r4, #1
 212:	ea43 6304 	orr.w	r3, r3, r4, lsl #24
 216:	68ac      	ldr	r4, [r5, #8]
 218:	3c01      	subs	r4, #1
 21a:	0224      	lsls	r4, r4, #8
 21c:	b2a4      	uxth	r4, r4
 21e:	4323      	orrs	r3, r4
 220:	6804      	ldr	r4, [r0, #0]
 222:	f104 64a0 	add.w	r4, r4, #83886080	; 0x5000000
 226:	3402      	adds	r4, #2
 228:	0164      	lsls	r4, r4, #5
 22a:	6022      	str	r2, [r4, #0]
 22c:	6802      	ldr	r2, [r0, #0]
 22e:	0152      	lsls	r2, r2, #5
 230:	f102 4220 	add.w	r2, r2, #2684354560	; 0xa0000000
 234:	6491      	str	r1, [r2, #72]	; 0x48
 236:	6802      	ldr	r2, [r0, #0]
 238:	0152      	lsls	r2, r2, #5
 23a:	f102 4220 	add.w	r2, r2, #2684354560	; 0xa0000000
 23e:	64d3      	str	r3, [r2, #76]	; 0x4c
 240:	bd30      	pop	{r4, r5, pc}

00000242 <exmc_nand_enable>:
 242:	f100 60a0 	add.w	r0, r0, #83886080	; 0x5000000
 246:	3002      	adds	r0, #2
 248:	0140      	lsls	r0, r0, #5
 24a:	6803      	ldr	r3, [r0, #0]
 24c:	f043 0304 	orr.w	r3, r3, #4
 250:	6003      	str	r3, [r0, #0]
 252:	4770      	bx	lr

00000254 <exmc_nand_disable>:
 254:	f100 60a0 	add.w	r0, r0, #83886080	; 0x5000000
 258:	3002      	adds	r0, #2
 25a:	0140      	lsls	r0, r0, #5
 25c:	6803      	ldr	r3, [r0, #0]
 25e:	f023 0304 	bic.w	r3, r3, #4
 262:	6003      	str	r3, [r0, #0]
 264:	4770      	bx	lr

00000266 <exmc_nand_ecc_config>:
 266:	f100 60a0 	add.w	r0, r0, #83886080	; 0x5000000
 26a:	3002      	adds	r0, #2
 26c:	0140      	lsls	r0, r0, #5
 26e:	6803      	ldr	r3, [r0, #0]
 270:	2901      	cmp	r1, #1
 272:	bf0c      	ite	eq
 274:	f043 0340 	orreq.w	r3, r3, #64	; 0x40
 278:	f023 0340 	bicne.w	r3, r3, #64	; 0x40
 27c:	6003      	str	r3, [r0, #0]
 27e:	4770      	bx	lr

00000280 <exmc_ecc_get>:
 280:	0140      	lsls	r0, r0, #5
 282:	f100 4020 	add.w	r0, r0, #2684354560	; 0xa0000000
 286:	6d40      	ldr	r0, [r0, #84]	; 0x54
 288:	4770      	bx	lr

0000028a <exmc_pccard_deinit>:
 28a:	f04f 4320 	mov.w	r3, #2684354560	; 0xa0000000
 28e:	2208      	movs	r2, #8
 290:	f8c3 20a0 	str.w	r2, [r3, #160]	; 0xa0
 294:	2243      	movs	r2, #67	; 0x43
 296:	f8c3 20a4 	str.w	r2, [r3, #164]	; 0xa4
 29a:	f04f 32ff 	mov.w	r2, #4294967295	; 0xffffffff
 29e:	f8c3 20a8 	str.w	r2, [r3, #168]	; 0xa8
 2a2:	f8c3 20ac 	str.w	r2, [r3, #172]	; 0xac
 2a6:	f8c3 20b0 	str.w	r2, [r3, #176]	; 0xb0
 2aa:	4770      	bx	lr

000002ac <exmc_pccard_init>:
 2ac:	e9d0 2300 	ldrd	r2, r3, [r0]
 2b0:	4313      	orrs	r3, r2
 2b2:	6882      	ldr	r2, [r0, #8]
 2b4:	b510      	push	{r4, lr}
 2b6:	ea43 0342 	orr.w	r3, r3, r2, lsl #1
 2ba:	f04f 4220 	mov.w	r2, #2684354560	; 0xa0000000
 2be:	68c4      	ldr	r4, [r0, #12]
 2c0:	f043 0310 	orr.w	r3, r3, #16
 2c4:	f8c2 30a0 	str.w	r3, [r2, #160]	; 0xa0
 2c8:	68e3      	ldr	r3, [r4, #12]
 2ca:	6861      	ldr	r1, [r4, #4]
 2cc:	3b01      	subs	r3, #1
 2ce:	0409      	lsls	r1, r1, #16
 2d0:	f401 017f 	and.w	r1, r1, #16711680	; 0xff0000
 2d4:	b2db      	uxtb	r3, r3
 2d6:	430b      	orrs	r3, r1
 2d8:	6821      	ldr	r1, [r4, #0]
 2da:	3901      	subs	r1, #1
 2dc:	ea43 6301 	orr.w	r3, r3, r1, lsl #24
 2e0:	68a1      	ldr	r1, [r4, #8]
 2e2:	6904      	ldr	r4, [r0, #16]
 2e4:	3901      	subs	r1, #1
 2e6:	0209      	lsls	r1, r1, #8
 2e8:	b289      	uxth	r1, r1
 2ea:	430b      	orrs	r3, r1
 2ec:	f8c2 30a8 	str.w	r3, [r2, #168]	; 0xa8
 2f0:	68e3      	ldr	r3, [r4, #12]
 2f2:	6861      	ldr	r1, [r4, #4]
 2f4:	3b01      	subs	r3, #1
 2f6:	0409      	lsls	r1, r1, #16
 2f8:	f401 017f 	and.w	r1, r1, #16711680	; 0xff0000
 2fc:	b2db      	uxtb	r3, r3
 2fe:	430b      	orrs	r3, r1
 300:	6821      	ldr	r1, [r4, #0]
 302:	6940      	ldr	r0, [r0, #20]
 304:	3901      	subs	r1, #1
 306:	ea43 6301 	orr.w	r3, r3, r1, lsl #24
 30a:	68a1      	ldr	r1, [r4, #8]
 30c:	3901      	subs	r1, #1
 30e:	0209      	lsls	r1, r1, #8
 310:	b289      	uxth	r1, r1
 312:	430b      	orrs	r3, r1
 314:	f8c2 30ac 	str.w	r3, [r2, #172]	; 0xac
 318:	68c3      	ldr	r3, [r0, #12]
 31a:	6841      	ldr	r1, [r0, #4]
 31c:	3b01      	subs	r3, #1
 31e:	0409      	lsls	r1, r1, #16
 320:	f401 017f 	and.w	r1, r1, #16711680	; 0xff0000
 324:	b2db      	uxtb	r3, r3
 326:	430b      	orrs	r3, r1
 328:	6801      	ldr	r1, [r0, #0]
 32a:	ea43 6301 	orr.w	r3, r3, r1, lsl #24
 32e:	6881      	ldr	r1, [r0, #8]
 330:	3901      	subs	r1, #1
 332:	0209      	lsls	r1, r1, #8
 334:	b289      	uxth	r1, r1
 336:	430b      	orrs	r3, r1
 338:	f8c2 30b0 	str.w	r3, [r2, #176]	; 0xb0
 33c:	bd10      	pop	{r4, pc}

0000033e <exmc_pccard_struct_para_init>:
 33e:	2300      	movs	r3, #0
 340:	e9c0 3301 	strd	r3, r3, [r0, #4]
 344:	6003      	str	r3, [r0, #0]
 346:	23fc      	movs	r3, #252	; 0xfc
 348:	68c2      	ldr	r2, [r0, #12]
 34a:	e9c2 3302 	strd	r3, r3, [r2, #8]
 34e:	e9c2 3300 	strd	r3, r3, [r2]
 352:	6902      	ldr	r2, [r0, #16]
 354:	e9c2 3302 	strd	r3, r3, [r2, #8]
 358:	e9c2 3300 	strd	r3, r3, [r2]
 35c:	6942      	ldr	r2, [r0, #20]
 35e:	e9c2 3302 	strd	r3, r3, [r2, #8]
 362:	e9c2 3300 	strd	r3, r3, [r2]
 366:	4770      	bx	lr

00000368 <exmc_pccard_enable>:
 368:	f04f 4220 	mov.w	r2, #2684354560	; 0xa0000000
 36c:	f8d2 30a0 	ldr.w	r3, [r2, #160]	; 0xa0
 370:	f043 0304 	orr.w	r3, r3, #4
 374:	f8c2 30a0 	str.w	r3, [r2, #160]	; 0xa0
 378:	4770      	bx	lr

0000037a <exmc_pccard_disable>:
 37a:	f04f 4220 	mov.w	r2, #2684354560	; 0xa0000000
 37e:	f8d2 30a0 	ldr.w	r3, [r2, #160]	; 0xa0
 382:	f023 0304 	bic.w	r3, r3, #4
 386:	f8c2 30a0 	str.w	r3, [r2, #160]	; 0xa0
 38a:	4770      	bx	lr

0000038c <exmc_sdram_deinit>:
 38c:	f44f 7334 	mov.w	r3, #720	; 0x2d0
 390:	f100 5020 	add.w	r0, r0, #671088640	; 0x28000000
 394:	304c      	adds	r0, #76	; 0x4c
 396:	0080      	lsls	r0, r0, #2
 398:	6003      	str	r3, [r0, #0]
 39a:	f06f 4370 	mvn.w	r3, #4026531840	; 0xf0000000
 39e:	2200      	movs	r2, #0
 3a0:	6083      	str	r3, [r0, #8]
 3a2:	f04f 4320 	mov.w	r3, #2684354560	; 0xa0000000
 3a6:	f8c3 2150 	str.w	r2, [r3, #336]	; 0x150
 3aa:	f8c3 2154 	str.w	r2, [r3, #340]	; 0x154
 3ae:	f8c3 2180 	str.w	r2, [r3, #384]	; 0x180
 3b2:	4770      	bx	lr

000003b4 <exmc_sdram_init>:
 3b4:	e9d0 1208 	ldrd	r1, r2, [r0, #32]
 3b8:	430a      	orrs	r2, r1
 3ba:	69c1      	ldr	r1, [r0, #28]
 3bc:	b5f0      	push	{r4, r5, r6, r7, lr}
 3be:	e9d0 6302 	ldrd	r6, r3, [r0, #8]
 3c2:	430a      	orrs	r2, r1
 3c4:	6981      	ldr	r1, [r0, #24]
 3c6:	6845      	ldr	r5, [r0, #4]
 3c8:	430a      	orrs	r2, r1
 3ca:	6941      	ldr	r1, [r0, #20]
 3cc:	6907      	ldr	r7, [r0, #16]
 3ce:	ea42 0401 	orr.w	r4, r2, r1
 3d2:	6801      	ldr	r1, [r0, #0]
 3d4:	6a82      	ldr	r2, [r0, #40]	; 0x28
 3d6:	2904      	cmp	r1, #4
 3d8:	d126      	bne.n	428 <exmc_sdram_init+0x74>
 3da:	f04f 4120 	mov.w	r1, #2684354560	; 0xa0000000
 3de:	432b      	orrs	r3, r5
 3e0:	ea43 2347 	orr.w	r3, r3, r7, lsl #9
 3e4:	ea43 3306 	orr.w	r3, r3, r6, lsl #12
 3e8:	4323      	orrs	r3, r4
 3ea:	f8c1 3140 	str.w	r3, [r1, #320]	; 0x140
 3ee:	6953      	ldr	r3, [r2, #20]
 3f0:	1e58      	subs	r0, r3, #1
 3f2:	6913      	ldr	r3, [r2, #16]
 3f4:	3b01      	subs	r3, #1
 3f6:	021b      	lsls	r3, r3, #8
 3f8:	ea43 1300 	orr.w	r3, r3, r0, lsl #4
 3fc:	6990      	ldr	r0, [r2, #24]
 3fe:	3801      	subs	r0, #1
 400:	4303      	orrs	r3, r0
 402:	68d0      	ldr	r0, [r2, #12]
 404:	3801      	subs	r0, #1
 406:	ea43 3300 	orr.w	r3, r3, r0, lsl #12
 40a:	6890      	ldr	r0, [r2, #8]
 40c:	3801      	subs	r0, #1
 40e:	ea43 4300 	orr.w	r3, r3, r0, lsl #16
 412:	6850      	ldr	r0, [r2, #4]
 414:	6812      	ldr	r2, [r2, #0]
 416:	3801      	subs	r0, #1
 418:	ea43 5300 	orr.w	r3, r3, r0, lsl #20
 41c:	3a01      	subs	r2, #1
 41e:	ea43 6302 	orr.w	r3, r3, r2, lsl #24
 422:	f8c1 3148 	str.w	r3, [r1, #328]	; 0x148
 426:	bdf0      	pop	{r4, r5, r6, r7, pc}
 428:	f04f 4120 	mov.w	r1, #2684354560	; 0xa0000000
 42c:	f8d1 0140 	ldr.w	r0, [r1, #320]	; 0x140
 430:	4333      	orrs	r3, r6
 432:	f420 40f8 	bic.w	r0, r0, #31744	; 0x7c00
 436:	4303      	orrs	r3, r0
 438:	431d      	orrs	r5, r3
 43a:	433c      	orrs	r4, r7
 43c:	f8c1 5140 	str.w	r5, [r1, #320]	; 0x140
 440:	f8c1 4144 	str.w	r4, [r1, #324]	; 0x144
 444:	68d3      	ldr	r3, [r2, #12]
 446:	f8d1 0148 	ldr.w	r0, [r1, #328]	; 0x148
 44a:	1e5c      	subs	r4, r3, #1
 44c:	6853      	ldr	r3, [r2, #4]
 44e:	f420 007f 	bic.w	r0, r0, #16711680	; 0xff0000
 452:	3b01      	subs	r3, #1
 454:	051b      	lsls	r3, r3, #20
 456:	ea43 3304 	orr.w	r3, r3, r4, lsl #12
 45a:	f420 4070 	bic.w	r0, r0, #61440	; 0xf000
 45e:	4303      	orrs	r3, r0
 460:	6890      	ldr	r0, [r2, #8]
 462:	3801      	subs	r0, #1
 464:	ea43 4000 	orr.w	r0, r3, r0, lsl #16
 468:	6953      	ldr	r3, [r2, #20]
 46a:	1e5c      	subs	r4, r3, #1
 46c:	6913      	ldr	r3, [r2, #16]
 46e:	3b01      	subs	r3, #1
 470:	021b      	lsls	r3, r3, #8
 472:	ea43 1304 	orr.w	r3, r3, r4, lsl #4
 476:	6994      	ldr	r4, [r2, #24]
 478:	6812      	ldr	r2, [r2, #0]
 47a:	3c01      	subs	r4, #1
 47c:	4323      	orrs	r3, r4
 47e:	3a01      	subs	r2, #1
 480:	ea43 6302 	orr.w	r3, r3, r2, lsl #24
 484:	f8c1 0148 	str.w	r0, [r1, #328]	; 0x148
 488:	f8c1 314c 	str.w	r3, [r1, #332]	; 0x14c
 48c:	e7cb      	b.n	426 <exmc_sdram_init+0x72>

0000048e <exmc_sdram_parameter_init>:
 48e:	2304      	movs	r3, #4
 490:	2140      	movs	r1, #64	; 0x40
 492:	6003      	str	r3, [r0, #0]
 494:	2310      	movs	r3, #16
 496:	2200      	movs	r2, #0
 498:	e9c0 1306 	strd	r1, r3, [r0, #24]
 49c:	f04f 0c80 	mov.w	ip, #128	; 0x80
 4a0:	2101      	movs	r1, #1
 4a2:	e9c0 2208 	strd	r2, r2, [r0, #32]
 4a6:	e9c0 2202 	strd	r2, r2, [r0, #8]
 4aa:	6042      	str	r2, [r0, #4]
 4ac:	6a82      	ldr	r2, [r0, #40]	; 0x28
 4ae:	e9c0 1c04 	strd	r1, ip, [r0, #16]
 4b2:	e9c2 3305 	strd	r3, r3, [r2, #20]
 4b6:	e9c2 3303 	strd	r3, r3, [r2, #12]
 4ba:	e9c2 3301 	strd	r3, r3, [r2, #4]
 4be:	6013      	str	r3, [r2, #0]
 4c0:	4770      	bx	lr

000004c2 <exmc_sdram_command_config>:
 4c2:	e9d0 2302 	ldrd	r2, r3, [r0, #8]
 4c6:	4313      	orrs	r3, r2
 4c8:	6842      	ldr	r2, [r0, #4]
 4ca:	4313      	orrs	r3, r2
 4cc:	6802      	ldr	r2, [r0, #0]
 4ce:	ea43 2342 	orr.w	r3, r3, r2, lsl #9
 4d2:	f04f 4220 	mov.w	r2, #2684354560	; 0xa0000000
 4d6:	f8c2 3150 	str.w	r3, [r2, #336]	; 0x150
 4da:	4770      	bx	lr

000004dc <exmc_sdram_refresh_count_set>:
 4dc:	f04f 4120 	mov.w	r1, #2684354560	; 0xa0000000
 4e0:	f643 73fe 	movw	r3, #16382	; 0x3ffe
 4e4:	f8d1 2154 	ldr.w	r2, [r1, #340]	; 0x154
 4e8:	ea03 0340 	and.w	r3, r3, r0, lsl #1
 4ec:	f422 527f 	bic.w	r2, r2, #16320	; 0x3fc0
 4f0:	f022 023e 	bic.w	r2, r2, #62	; 0x3e
 4f4:	4313      	orrs	r3, r2
 4f6:	f8c1 3154 	str.w	r3, [r1, #340]	; 0x154
 4fa:	4770      	bx	lr

000004fc <exmc_sdram_autorefresh_number_set>:
 4fc:	f04f 4220 	mov.w	r2, #2684354560	; 0xa0000000
 500:	f8d2 3150 	ldr.w	r3, [r2, #336]	; 0x150
 504:	0140      	lsls	r0, r0, #5
 506:	f400 70f0 	and.w	r0, r0, #480	; 0x1e0
 50a:	f423 73f0 	bic.w	r3, r3, #480	; 0x1e0
 50e:	4318      	orrs	r0, r3
 510:	f8c2 0150 	str.w	r0, [r2, #336]	; 0x150
 514:	4770      	bx	lr

00000516 <exmc_sdram_write_protection_config>:
 516:	f100 5020 	add.w	r0, r0, #671088640	; 0x28000000
 51a:	304c      	adds	r0, #76	; 0x4c
 51c:	0080      	lsls	r0, r0, #2
 51e:	6803      	ldr	r3, [r0, #0]
 520:	2901      	cmp	r1, #1
 522:	bf0c      	ite	eq
 524:	f443 7300 	orreq.w	r3, r3, #512	; 0x200
 528:	f423 7300 	bicne.w	r3, r3, #512	; 0x200
 52c:	6003      	str	r3, [r0, #0]
 52e:	4770      	bx	lr

00000530 <exmc_sdram_bankstatus_get>:
 530:	f04f 4320 	mov.w	r3, #2684354560	; 0xa0000000
 534:	2804      	cmp	r0, #4
 536:	f8d3 0158 	ldr.w	r0, [r3, #344]	; 0x158
 53a:	bf0c      	ite	eq
 53c:	f3c0 0041 	ubfxeq	r0, r0, #1, #2
 540:	f3c0 00c1 	ubfxne	r0, r0, #3, #2
 544:	4770      	bx	lr

00000546 <exmc_sdram_readsample_config>:
 546:	f04f 4220 	mov.w	r2, #2684354560	; 0xa0000000
 54a:	0049      	lsls	r1, r1, #1
 54c:	f8d2 3180 	ldr.w	r3, [r2, #384]	; 0x180
 550:	f001 0102 	and.w	r1, r1, #2
 554:	f000 00f0 	and.w	r0, r0, #240	; 0xf0
 558:	f023 03f2 	bic.w	r3, r3, #242	; 0xf2
 55c:	4301      	orrs	r1, r0
 55e:	4319      	orrs	r1, r3
 560:	f8c2 1180 	str.w	r1, [r2, #384]	; 0x180
 564:	4770      	bx	lr

00000566 <exmc_sdram_readsample_enable>:
 566:	f04f 4220 	mov.w	r2, #2684354560	; 0xa0000000
 56a:	f8d2 3180 	ldr.w	r3, [r2, #384]	; 0x180
 56e:	f043 0301 	orr.w	r3, r3, #1
 572:	f8c2 3180 	str.w	r3, [r2, #384]	; 0x180
 576:	4770      	bx	lr

00000578 <exmc_sdram_readsample_disable>:
 578:	f04f 4220 	mov.w	r2, #2684354560	; 0xa0000000
 57c:	f8d2 3180 	ldr.w	r3, [r2, #384]	; 0x180
 580:	f023 0301 	bic.w	r3, r3, #1
 584:	f8c2 3180 	str.w	r3, [r2, #384]	; 0x180
 588:	4770      	bx	lr

0000058a <exmc_sqpipsram_deinit>:
 58a:	f04f 4320 	mov.w	r3, #2684354560	; 0xa0000000
 58e:	4a06      	ldr	r2, [pc, #24]	; (5a8 <exmc_sqpipsram_deinit+0x1e>)
 590:	f8c3 2310 	str.w	r2, [r3, #784]	; 0x310
 594:	2200      	movs	r2, #0
 596:	f8c3 2320 	str.w	r2, [r3, #800]	; 0x320
 59a:	f8c3 2330 	str.w	r2, [r3, #816]	; 0x330
 59e:	f8c3 2340 	str.w	r2, [r3, #832]	; 0x340
 5a2:	f8c3 2350 	str.w	r2, [r3, #848]	; 0x350
 5a6:	4770      	bx	lr
 5a8:	18010000 	.word	0x18010000

000005ac <exmc_sqpipsram_init>:
 5ac:	e9d0 3200 	ldrd	r3, r2, [r0]
 5b0:	4313      	orrs	r3, r2
 5b2:	6882      	ldr	r2, [r0, #8]
 5b4:	4313      	orrs	r3, r2
 5b6:	68c2      	ldr	r2, [r0, #12]
 5b8:	4313      	orrs	r3, r2
 5ba:	f04f 4220 	mov.w	r2, #2684354560	; 0xa0000000
 5be:	f8c2 3310 	str.w	r3, [r2, #784]	; 0x310
 5c2:	4770      	bx	lr

000005c4 <exmc_sqpipsram_parameter_init>:
 5c4:	2300      	movs	r3, #0
 5c6:	f04f 52c0 	mov.w	r2, #402653184	; 0x18000000
 5ca:	e9c0 3300 	strd	r3, r3, [r0]
 5ce:	f44f 3380 	mov.w	r3, #65536	; 0x10000
 5d2:	e9c0 2302 	strd	r2, r3, [r0, #8]
 5d6:	4770      	bx	lr

000005d8 <exmc_sqpipsram_read_command_set>:
 5d8:	f04f 4320 	mov.w	r3, #2684354560	; 0xa0000000
 5dc:	0409      	lsls	r1, r1, #16
 5de:	b292      	uxth	r2, r2
 5e0:	f401 2170 	and.w	r1, r1, #983040	; 0xf0000
 5e4:	4302      	orrs	r2, r0
 5e6:	4311      	orrs	r1, r2
 5e8:	f8c3 1320 	str.w	r1, [r3, #800]	; 0x320
 5ec:	4770      	bx	lr

000005ee <exmc_sqpipsram_write_command_set>:
 5ee:	f04f 4320 	mov.w	r3, #2684354560	; 0xa0000000
 5f2:	0409      	lsls	r1, r1, #16
 5f4:	b292      	uxth	r2, r2
 5f6:	f401 2170 	and.w	r1, r1, #983040	; 0xf0000
 5fa:	4302      	orrs	r2, r0
 5fc:	4311      	orrs	r1, r2
 5fe:	f8c3 1330 	str.w	r1, [r3, #816]	; 0x330
 602:	4770      	bx	lr

00000604 <exmc_sqpipsram_read_id_command_send>:
 604:	f04f 4220 	mov.w	r2, #2684354560	; 0xa0000000
 608:	f8d2 3320 	ldr.w	r3, [r2, #800]	; 0x320
 60c:	f043 4300 	orr.w	r3, r3, #2147483648	; 0x80000000
 610:	f8c2 3320 	str.w	r3, [r2, #800]	; 0x320
 614:	4770      	bx	lr

00000616 <exmc_sqpipsram_write_cmd_send>:
 616:	f04f 4220 	mov.w	r2, #2684354560	; 0xa0000000
 61a:	f8d2 3330 	ldr.w	r3, [r2, #816]	; 0x330
 61e:	f043 4300 	orr.w	r3, r3, #2147483648	; 0x80000000
 622:	f8c2 3330 	str.w	r3, [r2, #816]	; 0x330
 626:	4770      	bx	lr

00000628 <exmc_sqpipsram_low_id_get>:
 628:	f04f 4320 	mov.w	r3, #2684354560	; 0xa0000000
 62c:	f8d3 0340 	ldr.w	r0, [r3, #832]	; 0x340
 630:	4770      	bx	lr

00000632 <exmc_sqpipsram_high_id_get>:
 632:	f04f 4320 	mov.w	r3, #2684354560	; 0xa0000000
 636:	f8d3 0350 	ldr.w	r0, [r3, #848]	; 0x350
 63a:	4770      	bx	lr

0000063c <exmc_sqpipsram_send_command_state_get>:
 63c:	f1b0 4f00 	cmp.w	r0, #2147483648	; 0x80000000
 640:	bf03      	ittte	eq
 642:	f04f 4320 	moveq.w	r3, #2684354560	; 0xa0000000
 646:	f8d3 0320 	ldreq.w	r0, [r3, #800]	; 0x320
 64a:	0fc0      	lsreq	r0, r0, #31
 64c:	2000      	movne	r0, #0
 64e:	4770      	bx	lr

00000650 <exmc_flag_get>:
 650:	1e43      	subs	r3, r0, #1
 652:	2b02      	cmp	r3, #2
 654:	bf8f      	iteee	hi
 656:	f04f 4320 	movhi.w	r3, #2684354560	; 0xa0000000
 65a:	0140      	lslls	r0, r0, #5
 65c:	f100 4020 	addls.w	r0, r0, #2684354560	; 0xa0000000
 660:	6c43      	ldrls	r3, [r0, #68]	; 0x44
 662:	bf88      	it	hi
 664:	f8d3 3158 	ldrhi.w	r3, [r3, #344]	; 0x158
 668:	4399      	bics	r1, r3
 66a:	bf0c      	ite	eq
 66c:	2001      	moveq	r0, #1
 66e:	2000      	movne	r0, #0
 670:	4770      	bx	lr

00000672 <exmc_flag_clear>:
 672:	1e43      	subs	r3, r0, #1
 674:	2b02      	cmp	r3, #2
 676:	ea6f 0101 	mvn.w	r1, r1
 67a:	d806      	bhi.n	68a <exmc_flag_clear+0x18>
 67c:	0140      	lsls	r0, r0, #5
 67e:	f100 4020 	add.w	r0, r0, #2684354560	; 0xa0000000
 682:	6c43      	ldr	r3, [r0, #68]	; 0x44
 684:	400b      	ands	r3, r1
 686:	6443      	str	r3, [r0, #68]	; 0x44
 688:	4770      	bx	lr
 68a:	f04f 4220 	mov.w	r2, #2684354560	; 0xa0000000
 68e:	f8d2 3158 	ldr.w	r3, [r2, #344]	; 0x158
 692:	400b      	ands	r3, r1
 694:	f8c2 3158 	str.w	r3, [r2, #344]	; 0x158
 698:	4770      	bx	lr

0000069a <exmc_interrupt_flag_get>:
 69a:	1e43      	subs	r3, r0, #1
 69c:	2b02      	cmp	r3, #2
 69e:	bf8d      	iteet	hi
 6a0:	f04f 4220 	movhi.w	r2, #2684354560	; 0xa0000000
 6a4:	0140      	lslls	r0, r0, #5
 6a6:	f100 4020 	addls.w	r0, r0, #2684354560	; 0xa0000000
 6aa:	f8d2 0154 	ldrhi.w	r0, [r2, #340]	; 0x154
 6ae:	bf95      	itete	ls
 6b0:	6c40      	ldrls	r0, [r0, #68]	; 0x44
 6b2:	f8d2 2158 	ldrhi.w	r2, [r2, #344]	; 0x158
 6b6:	ea00 02d1 	andls.w	r2, r0, r1, lsr #3
 6ba:	f002 0201 	andhi.w	r2, r2, #1
 6be:	4008      	ands	r0, r1
 6c0:	d002      	beq.n	6c8 <exmc_interrupt_flag_get+0x2e>
 6c2:	1e10      	subs	r0, r2, #0
 6c4:	bf18      	it	ne
 6c6:	2001      	movne	r0, #1
 6c8:	4770      	bx	lr

000006ca <exmc_interrupt_flag_clear>:
 6ca:	1e43      	subs	r3, r0, #1
 6cc:	2b02      	cmp	r3, #2
 6ce:	d807      	bhi.n	6e0 <exmc_interrupt_flag_clear+0x16>
 6d0:	0140      	lsls	r0, r0, #5
 6d2:	f100 4020 	add.w	r0, r0, #2684354560	; 0xa0000000
 6d6:	6c43      	ldr	r3, [r0, #68]	; 0x44
 6d8:	ea23 01d1 	bic.w	r1, r3, r1, lsr #3
 6dc:	6441      	str	r1, [r0, #68]	; 0x44
 6de:	4770      	bx	lr
 6e0:	f04f 4220 	mov.w	r2, #2684354560	; 0xa0000000
 6e4:	f8d2 3154 	ldr.w	r3, [r2, #340]	; 0x154
 6e8:	f043 0301 	orr.w	r3, r3, #1
 6ec:	f8c2 3154 	str.w	r3, [r2, #340]	; 0x154
 6f0:	4770      	bx	lr

000006f2 <exmc_interrupt_enable>:
 6f2:	1e43      	subs	r3, r0, #1
 6f4:	2b02      	cmp	r3, #2
 6f6:	d806      	bhi.n	706 <exmc_interrupt_enable+0x14>
 6f8:	0140      	lsls	r0, r0, #5
 6fa:	f100 4020 	add.w	r0, r0, #2684354560	; 0xa0000000
 6fe:	6c43      	ldr	r3, [r0, #68]	; 0x44
 700:	4319      	orrs	r1, r3
 702:	6441      	str	r1, [r0, #68]	; 0x44
 704:	4770      	bx	lr
 706:	f04f 4220 	mov.w	r2, #2684354560	; 0xa0000000
 70a:	f8d2 3154 	ldr.w	r3, [r2, #340]	; 0x154
 70e:	f443 4380 	orr.w	r3, r3, #16384	; 0x4000
 712:	f8c2 3154 	str.w	r3, [r2, #340]	; 0x154
 716:	4770      	bx	lr

00000718 <exmc_interrupt_disable>:
 718:	1e43      	subs	r3, r0, #1
 71a:	2b02      	cmp	r3, #2
 71c:	d807      	bhi.n	72e <exmc_interrupt_disable+0x16>
 71e:	0140      	lsls	r0, r0, #5
 720:	f100 4020 	add.w	r0, r0, #2684354560	; 0xa0000000
 724:	6c43      	ldr	r3, [r0, #68]	; 0x44
 726:	ea23 0101 	bic.w	r1, r3, r1
 72a:	6441      	str	r1, [r0, #68]	; 0x44
 72c:	4770      	bx	lr
 72e:	f04f 4220 	mov.w	r2, #2684354560	; 0xa0000000
 732:	f8d2 3154 	ldr.w	r3, [r2, #340]	; 0x154
 736:	f423 4380 	bic.w	r3, r3, #16384	; 0x4000
 73a:	f8c2 3154 	str.w	r3, [r2, #340]	; 0x154
 73e:	4770      	bx	lr

gd32f20x_exti.o:     file format elf32-littlearm


Disassembly of section .text:

00000000 <exti_deinit>:
   0:	2200      	movs	r2, #0
   2:	4b06      	ldr	r3, [pc, #24]	; (1c <exti_deinit+0x1c>)
   4:	f8c3 2400 	str.w	r2, [r3, #1024]	; 0x400
   8:	f8c3 2404 	str.w	r2, [r3, #1028]	; 0x404
   c:	f8c3 2408 	str.w	r2, [r3, #1032]	; 0x408
  10:	f8c3 240c 	str.w	r2, [r3, #1036]	; 0x40c
  14:	f8c3 2410 	str.w	r2, [r3, #1040]	; 0x410
  18:	4770      	bx	lr
  1a:	bf00      	nop
  1c:	40010000 	.word	0x40010000

00000020 <exti_init>:
  20:	4b25      	ldr	r3, [pc, #148]	; (b8 <exti_init+0x98>)
  22:	b530      	push	{r4, r5, lr}
  24:	f8d3 5400 	ldr.w	r5, [r3, #1024]	; 0x400
  28:	43c4      	mvns	r4, r0
  2a:	ea25 0500 	bic.w	r5, r5, r0
  2e:	f8c3 5400 	str.w	r5, [r3, #1024]	; 0x400
  32:	f8d3 5404 	ldr.w	r5, [r3, #1028]	; 0x404
  36:	ea25 0500 	bic.w	r5, r5, r0
  3a:	f8c3 5404 	str.w	r5, [r3, #1028]	; 0x404
  3e:	f8d3 5408 	ldr.w	r5, [r3, #1032]	; 0x408
  42:	ea25 0500 	bic.w	r5, r5, r0
  46:	f8c3 5408 	str.w	r5, [r3, #1032]	; 0x408
  4a:	f8d3 540c 	ldr.w	r5, [r3, #1036]	; 0x40c
  4e:	ea25 0500 	bic.w	r5, r5, r0
  52:	f8c3 540c 	str.w	r5, [r3, #1036]	; 0x40c
  56:	b191      	cbz	r1, 7e <exti_init+0x5e>
  58:	2901      	cmp	r1, #1
  5a:	d016      	beq.n	8a <exti_init+0x6a>
  5c:	2a01      	cmp	r2, #1
  5e:	d01a      	beq.n	96 <exti_init+0x76>
  60:	2a02      	cmp	r2, #2
  62:	d021      	beq.n	a8 <exti_init+0x88>
  64:	b952      	cbnz	r2, 7c <exti_init+0x5c>
  66:	4b14      	ldr	r3, [pc, #80]	; (b8 <exti_init+0x98>)
  68:	f8d3 2408 	ldr.w	r2, [r3, #1032]	; 0x408
  6c:	4302      	orrs	r2, r0
  6e:	f8c3 2408 	str.w	r2, [r3, #1032]	; 0x408
  72:	f8d3 240c 	ldr.w	r2, [r3, #1036]	; 0x40c
  76:	4022      	ands	r2, r4
  78:	f8c3 240c 	str.w	r2, [r3, #1036]	; 0x40c
  7c:	bd30      	pop	{r4, r5, pc}
  7e:	f8d3 1400 	ldr.w	r1, [r3, #1024]	; 0x400
  82:	4301      	orrs	r1, r0
  84:	f8c3 1400 	str.w	r1, [r3, #1024]	; 0x400
  88:	e7e8      	b.n	5c <exti_init+0x3c>
  8a:	f8d3 1404 	ldr.w	r1, [r3, #1028]	; 0x404
  8e:	4301      	orrs	r1, r0
  90:	f8c3 1404 	str.w	r1, [r3, #1028]	; 0x404
  94:	e7e2      	b.n	5c <exti_init+0x3c>
  96:	f8d3 2408 	ldr.w	r2, [r3, #1032]	; 0x408
  9a:	4014      	ands	r4, r2
  9c:	f8c3 4408 	str.w	r4, [r3, #1032]	; 0x408
  a0:	f8d3 240c 	ldr.w	r2, [r3, #1036]	; 0x40c
  a4:	4302      	orrs	r2, r0
  a6:	e7e7      	b.n	78 <exti_init+0x58>
  a8:	4b03      	ldr	r3, [pc, #12]	; (b8 <exti_init+0x98>)
  aa:	f8d3 2408 	ldr.w	r2, [r3, #1032]	; 0x408
  ae:	4302      	orrs	r2, r0
  b0:	f8c3 2408 	str.w	r2, [r3, #1032]	; 0x408
  b4:	e7f4      	b.n	a0 <exti_init+0x80>
  b6:	bf00      	nop
  b8:	40010000 	.word	0x40010000

000000bc <exti_interrupt_enable>:
  bc:	4a03      	ldr	r2, [pc, #12]	; (cc <exti_interrupt_enable+0x10>)
  be:	f8d2 3400 	ldr.w	r3, [r2, #1024]	; 0x400
  c2:	4303      	orrs	r3, r0
  c4:	f8c2 3400 	str.w	r3, [r2, #1024]	; 0x400
  c8:	4770      	bx	lr
  ca:	bf00      	nop
  cc:	40010000 	.word	0x40010000

000000d0 <exti_event_enable>:
  d0:	4a03      	ldr	r2, [pc, #12]	; (e0 <exti_event_enable+0x10>)
  d2:	f8d2 3404 	ldr.w	r3, [r2, #1028]	; 0x404
  d6:	4303      	orrs	r3, r0
  d8:	f8c2 3404 	str.w	r3, [r2, #1028]	; 0x404
  dc:	4770      	bx	lr
  de:	bf00      	nop
  e0:	40010000 	.word	0x40010000

000000e4 <exti_interrupt_disable>:
  e4:	4a03      	ldr	r2, [pc, #12]	; (f4 <exti_interrupt_disable+0x10>)
  e6:	f8d2 3400 	ldr.w	r3, [r2, #1024]	; 0x400
  ea:	ea23 0300 	bic.w	r3, r3, r0
  ee:	f8c2 3400 	str.w	r3, [r2, #1024]	; 0x400
  f2:	4770      	bx	lr
  f4:	40010000 	.word	0x40010000

000000f8 <exti_event_disable>:
  f8:	4a03      	ldr	r2, [pc, #12]	; (108 <exti_event_disable+0x10>)
  fa:	f8d2 3404 	ldr.w	r3, [r2, #1028]	; 0x404
  fe:	ea23 0300 	bic.w	r3, r3, r0
 102:	f8c2 3404 	str.w	r3, [r2, #1028]	; 0x404
 106:	4770      	bx	lr
 108:	40010000 	.word	0x40010000

0000010c <exti_flag_get>:
 10c:	4b03      	ldr	r3, [pc, #12]	; (11c <exti_flag_get+0x10>)
 10e:	f8d3 3414 	ldr.w	r3, [r3, #1044]	; 0x414
 112:	4203      	tst	r3, r0
 114:	bf14      	ite	ne
 116:	2001      	movne	r0, #1
 118:	2000      	moveq	r0, #0
 11a:	4770      	bx	lr
 11c:	40010000 	.word	0x40010000

00000120 <exti_flag_clear>:
 120:	4b01      	ldr	r3, [pc, #4]	; (128 <exti_flag_clear+0x8>)
 122:	f8c3 0414 	str.w	r0, [r3, #1044]	; 0x414
 126:	4770      	bx	lr
 128:	40010000 	.word	0x40010000

0000012c <exti_interrupt_flag_get>:
 12c:	4602      	mov	r2, r0
 12e:	4906      	ldr	r1, [pc, #24]	; (148 <exti_interrupt_flag_get+0x1c>)
 130:	f8d1 0414 	ldr.w	r0, [r1, #1044]	; 0x414
 134:	f8d1 1400 	ldr.w	r1, [r1, #1024]	; 0x400
 138:	4010      	ands	r0, r2
 13a:	d003      	beq.n	144 <exti_interrupt_flag_get+0x18>
 13c:	4211      	tst	r1, r2
 13e:	bf14      	ite	ne
 140:	2001      	movne	r0, #1
 142:	2000      	moveq	r0, #0
 144:	4770      	bx	lr
 146:	bf00      	nop
 148:	40010000 	.word	0x40010000

0000014c <exti_interrupt_flag_clear>:
 14c:	4b01      	ldr	r3, [pc, #4]	; (154 <exti_interrupt_flag_clear+0x8>)
 14e:	f8c3 0414 	str.w	r0, [r3, #1044]	; 0x414
 152:	4770      	bx	lr
 154:	40010000 	.word	0x40010000

00000158 <exti_software_interrupt_enable>:
 158:	4a03      	ldr	r2, [pc, #12]	; (168 <exti_software_interrupt_enable+0x10>)
 15a:	f8d2 3410 	ldr.w	r3, [r2, #1040]	; 0x410
 15e:	4303      	orrs	r3, r0
 160:	f8c2 3410 	str.w	r3, [r2, #1040]	; 0x410
 164:	4770      	bx	lr
 166:	bf00      	nop
 168:	40010000 	.word	0x40010000

0000016c <exti_software_interrupt_disable>:
 16c:	4a03      	ldr	r2, [pc, #12]	; (17c <exti_software_interrupt_disable+0x10>)
 16e:	f8d2 3410 	ldr.w	r3, [r2, #1040]	; 0x410
 172:	ea23 0300 	bic.w	r3, r3, r0
 176:	f8c2 3410 	str.w	r3, [r2, #1040]	; 0x410
 17a:	4770      	bx	lr
 17c:	40010000 	.word	0x40010000

gd32f20x_fmc.o:     file format elf32-littlearm


Disassembly of section .text:

00000000 <fmc_wscnt_set>:
   0:	4a03      	ldr	r2, [pc, #12]	; (10 <fmc_wscnt_set+0x10>)
   2:	6813      	ldr	r3, [r2, #0]
   4:	f023 0307 	bic.w	r3, r3, #7
   8:	4303      	orrs	r3, r0
   a:	6013      	str	r3, [r2, #0]
   c:	4770      	bx	lr
   e:	bf00      	nop
  10:	40022000 	.word	0x40022000

00000014 <fmc_unlock>:
  14:	4b0c      	ldr	r3, [pc, #48]	; (48 <fmc_unlock+0x34>)
  16:	691a      	ldr	r2, [r3, #16]
  18:	0611      	lsls	r1, r2, #24
  1a:	bf41      	itttt	mi
  1c:	4a0b      	ldrmi	r2, [pc, #44]	; (4c <fmc_unlock+0x38>)
  1e:	605a      	strmi	r2, [r3, #4]
  20:	f102 3288 	addmi.w	r2, r2, #2290649224	; 0x88888888
  24:	605a      	strmi	r2, [r3, #4]
  26:	4b0a      	ldr	r3, [pc, #40]	; (50 <fmc_unlock+0x3c>)
  28:	f8b3 30e0 	ldrh.w	r3, [r3, #224]	; 0xe0
  2c:	f5b3 7f00 	cmp.w	r3, #512	; 0x200
  30:	d908      	bls.n	44 <fmc_unlock+0x30>
  32:	4b05      	ldr	r3, [pc, #20]	; (48 <fmc_unlock+0x34>)
  34:	6d1a      	ldr	r2, [r3, #80]	; 0x50
  36:	0612      	lsls	r2, r2, #24
  38:	bf41      	itttt	mi
  3a:	4a04      	ldrmi	r2, [pc, #16]	; (4c <fmc_unlock+0x38>)
  3c:	645a      	strmi	r2, [r3, #68]	; 0x44
  3e:	f102 3288 	addmi.w	r2, r2, #2290649224	; 0x88888888
  42:	645a      	strmi	r2, [r3, #68]	; 0x44
  44:	4770      	bx	lr
  46:	bf00      	nop
  48:	40022000 	.word	0x40022000
  4c:	45670123 	.word	0x45670123
  50:	1ffff700 	.word	0x1ffff700

00000054 <fmc_bank0_unlock>:
  54:	4b04      	ldr	r3, [pc, #16]	; (68 <fmc_bank0_unlock+0x14>)
  56:	691a      	ldr	r2, [r3, #16]
  58:	0612      	lsls	r2, r2, #24
  5a:	bf41      	itttt	mi
  5c:	4a03      	ldrmi	r2, [pc, #12]	; (6c <fmc_bank0_unlock+0x18>)
  5e:	605a      	strmi	r2, [r3, #4]
  60:	f102 3288 	addmi.w	r2, r2, #2290649224	; 0x88888888
  64:	605a      	strmi	r2, [r3, #4]
  66:	4770      	bx	lr
  68:	40022000 	.word	0x40022000
  6c:	45670123 	.word	0x45670123

00000070 <fmc_bank1_unlock>:
  70:	4b04      	ldr	r3, [pc, #16]	; (84 <fmc_bank1_unlock+0x14>)
  72:	6d1a      	ldr	r2, [r3, #80]	; 0x50
  74:	0612      	lsls	r2, r2, #24
  76:	bf41      	itttt	mi
  78:	4a03      	ldrmi	r2, [pc, #12]	; (88 <fmc_bank1_unlock+0x18>)
  7a:	645a      	strmi	r2, [r3, #68]	; 0x44
  7c:	f102 3288 	addmi.w	r2, r2, #2290649224	; 0x88888888
  80:	645a      	strmi	r2, [r3, #68]	; 0x44
  82:	4770      	bx	lr
  84:	40022000 	.word	0x40022000
  88:	45670123 	.word	0x45670123

0000008c <fmc_lock>:
  8c:	4b07      	ldr	r3, [pc, #28]	; (ac <fmc_lock+0x20>)
  8e:	691a      	ldr	r2, [r3, #16]
  90:	f042 0280 	orr.w	r2, r2, #128	; 0x80
  94:	611a      	str	r2, [r3, #16]
  96:	4a06      	ldr	r2, [pc, #24]	; (b0 <fmc_lock+0x24>)
  98:	f8b2 20e0 	ldrh.w	r2, [r2, #224]	; 0xe0
  9c:	f5b2 7f00 	cmp.w	r2, #512	; 0x200
  a0:	bf82      	ittt	hi
  a2:	6d1a      	ldrhi	r2, [r3, #80]	; 0x50
  a4:	f042 0280 	orrhi.w	r2, r2, #128	; 0x80
  a8:	651a      	strhi	r2, [r3, #80]	; 0x50
  aa:	4770      	bx	lr
  ac:	40022000 	.word	0x40022000
  b0:	1ffff700 	.word	0x1ffff700

000000b4 <fmc_bank0_lock>:
  b4:	4a02      	ldr	r2, [pc, #8]	; (c0 <fmc_bank0_lock+0xc>)
  b6:	6913      	ldr	r3, [r2, #16]
  b8:	f043 0380 	orr.w	r3, r3, #128	; 0x80
  bc:	6113      	str	r3, [r2, #16]
  be:	4770      	bx	lr
  c0:	40022000 	.word	0x40022000

000000c4 <fmc_bank1_lock>:
  c4:	4a02      	ldr	r2, [pc, #8]	; (d0 <fmc_bank1_lock+0xc>)
  c6:	6d13      	ldr	r3, [r2, #80]	; 0x50
  c8:	f043 0380 	orr.w	r3, r3, #128	; 0x80
  cc:	6513      	str	r3, [r2, #80]	; 0x50
  ce:	4770      	bx	lr
  d0:	40022000 	.word	0x40022000

000000d4 <ob_unlock>:
  d4:	4b06      	ldr	r3, [pc, #24]	; (f0 <ob_unlock+0x1c>)
  d6:	691a      	ldr	r2, [r3, #16]
  d8:	0591      	lsls	r1, r2, #22
  da:	bf5f      	itttt	pl
  dc:	4a05      	ldrpl	r2, [pc, #20]	; (f4 <ob_unlock+0x20>)
  de:	609a      	strpl	r2, [r3, #8]
  e0:	f102 3288 	addpl.w	r2, r2, #2290649224	; 0x88888888
  e4:	609a      	strpl	r2, [r3, #8]
  e6:	691a      	ldr	r2, [r3, #16]
  e8:	0592      	lsls	r2, r2, #22
  ea:	d5fc      	bpl.n	e6 <ob_unlock+0x12>
  ec:	4770      	bx	lr
  ee:	bf00      	nop
  f0:	40022000 	.word	0x40022000
  f4:	45670123 	.word	0x45670123

000000f8 <ob_lock>:
  f8:	4a02      	ldr	r2, [pc, #8]	; (104 <ob_lock+0xc>)
  fa:	6913      	ldr	r3, [r2, #16]
  fc:	f423 7300 	bic.w	r3, r3, #512	; 0x200
 100:	6113      	str	r3, [r2, #16]
 102:	4770      	bx	lr
 104:	40022000 	.word	0x40022000

00000108 <ob_user_get>:
 108:	4b02      	ldr	r3, [pc, #8]	; (114 <ob_user_get+0xc>)
 10a:	69d8      	ldr	r0, [r3, #28]
 10c:	f3c0 0087 	ubfx	r0, r0, #2, #8
 110:	4770      	bx	lr
 112:	bf00      	nop
 114:	40022000 	.word	0x40022000

00000118 <ob_data_get>:
 118:	4b02      	ldr	r3, [pc, #8]	; (124 <ob_data_get+0xc>)
 11a:	69d8      	ldr	r0, [r3, #28]
 11c:	f3c0 208f 	ubfx	r0, r0, #10, #16
 120:	4770      	bx	lr
 122:	bf00      	nop
 124:	40022000 	.word	0x40022000

00000128 <ob_write_protection_get>:
 128:	4b01      	ldr	r3, [pc, #4]	; (130 <ob_write_protection_get+0x8>)
 12a:	6a18      	ldr	r0, [r3, #32]
 12c:	4770      	bx	lr
 12e:	bf00      	nop
 130:	40022000 	.word	0x40022000

00000134 <ob_spc_get>:
 134:	4b02      	ldr	r3, [pc, #8]	; (140 <ob_spc_get+0xc>)
 136:	69d8      	ldr	r0, [r3, #28]
 138:	f3c0 0040 	ubfx	r0, r0, #1, #1
 13c:	4770      	bx	lr
 13e:	bf00      	nop
 140:	40022000 	.word	0x40022000

00000144 <fmc_interrupt_enable>:
 144:	2201      	movs	r2, #1
 146:	0983      	lsrs	r3, r0, #6
 148:	f103 4380 	add.w	r3, r3, #1073741824	; 0x40000000
 14c:	f503 3308 	add.w	r3, r3, #139264	; 0x22000
 150:	6819      	ldr	r1, [r3, #0]
 152:	f000 001f 	and.w	r0, r0, #31
 156:	4082      	lsls	r2, r0
 158:	430a      	orrs	r2, r1
 15a:	601a      	str	r2, [r3, #0]
 15c:	4770      	bx	lr

0000015e <fmc_interrupt_disable>:
 15e:	2101      	movs	r1, #1
 160:	0983      	lsrs	r3, r0, #6
 162:	f103 4380 	add.w	r3, r3, #1073741824	; 0x40000000
 166:	f503 3308 	add.w	r3, r3, #139264	; 0x22000
 16a:	681a      	ldr	r2, [r3, #0]
 16c:	f000 001f 	and.w	r0, r0, #31
 170:	4081      	lsls	r1, r0
 172:	ea22 0201 	bic.w	r2, r2, r1
 176:	601a      	str	r2, [r3, #0]
 178:	4770      	bx	lr

0000017a <fmc_flag_get>:
 17a:	0983      	lsrs	r3, r0, #6
 17c:	f103 4380 	add.w	r3, r3, #1073741824	; 0x40000000
 180:	f503 3308 	add.w	r3, r3, #139264	; 0x22000
 184:	681b      	ldr	r3, [r3, #0]
 186:	f000 001f 	and.w	r0, r0, #31
 18a:	fa23 f000 	lsr.w	r0, r3, r0
 18e:	f000 0001 	and.w	r0, r0, #1
 192:	4770      	bx	lr

00000194 <fmc_flag_clear>:
 194:	f7ff bffe 	b.w	144 <fmc_interrupt_enable>

00000198 <fmc_interrupt_flag_get>:
 198:	2201      	movs	r2, #1
 19a:	0b01      	lsrs	r1, r0, #12
 19c:	290c      	cmp	r1, #12
 19e:	bf18      	it	ne
 1a0:	f101 4180 	addne.w	r1, r1, #1073741824	; 0x40000000
 1a4:	b510      	push	{r4, lr}
 1a6:	4c0e      	ldr	r4, [pc, #56]	; (1e0 <fmc_interrupt_flag_get+0x48>)
 1a8:	f3c0 1384 	ubfx	r3, r0, #6, #5
 1ac:	bf18      	it	ne
 1ae:	f501 3108 	addne.w	r1, r1, #139264	; 0x22000
 1b2:	f000 001f 	and.w	r0, r0, #31
 1b6:	fa02 f303 	lsl.w	r3, r2, r3
 1ba:	fa02 f200 	lsl.w	r2, r2, r0
 1be:	bf0c      	ite	eq
 1c0:	68e0      	ldreq	r0, [r4, #12]
 1c2:	6808      	ldrne	r0, [r1, #0]
 1c4:	b2db      	uxtb	r3, r3
 1c6:	bf0b      	itete	eq
 1c8:	4018      	andeq	r0, r3
 1ca:	4018      	andne	r0, r3
 1cc:	6923      	ldreq	r3, [r4, #16]
 1ce:	6d23      	ldrne	r3, [r4, #80]	; 0x50
 1d0:	b2d2      	uxtb	r2, r2
 1d2:	4013      	ands	r3, r2
 1d4:	b110      	cbz	r0, 1dc <fmc_interrupt_flag_get+0x44>
 1d6:	1e18      	subs	r0, r3, #0
 1d8:	bf18      	it	ne
 1da:	2001      	movne	r0, #1
 1dc:	bd10      	pop	{r4, pc}
 1de:	bf00      	nop
 1e0:	40022000 	.word	0x40022000

000001e4 <fmc_interrupt_flag_clear>:
 1e4:	2201      	movs	r2, #1
 1e6:	0b03      	lsrs	r3, r0, #12
 1e8:	f103 4380 	add.w	r3, r3, #1073741824	; 0x40000000
 1ec:	f503 3308 	add.w	r3, r3, #139264	; 0x22000
 1f0:	6819      	ldr	r1, [r3, #0]
 1f2:	f3c0 1084 	ubfx	r0, r0, #6, #5
 1f6:	4082      	lsls	r2, r0
 1f8:	430a      	orrs	r2, r1
 1fa:	601a      	str	r2, [r3, #0]
 1fc:	4770      	bx	lr

000001fe <fmc_bank0_state_get>:
 1fe:	4b08      	ldr	r3, [pc, #32]	; (220 <fmc_bank0_state_get+0x22>)
 200:	68da      	ldr	r2, [r3, #12]
 202:	07d1      	lsls	r1, r2, #31
 204:	d407      	bmi.n	216 <fmc_bank0_state_get+0x18>
 206:	68da      	ldr	r2, [r3, #12]
 208:	06d2      	lsls	r2, r2, #27
 20a:	d406      	bmi.n	21a <fmc_bank0_state_get+0x1c>
 20c:	68d8      	ldr	r0, [r3, #12]
 20e:	f3c0 0080 	ubfx	r0, r0, #2, #1
 212:	0040      	lsls	r0, r0, #1
 214:	4770      	bx	lr
 216:	2001      	movs	r0, #1
 218:	4770      	bx	lr
 21a:	2003      	movs	r0, #3
 21c:	4770      	bx	lr
 21e:	bf00      	nop
 220:	40022000 	.word	0x40022000

00000224 <fmc_bank1_state_get>:
 224:	4b07      	ldr	r3, [pc, #28]	; (244 <fmc_bank1_state_get+0x20>)
 226:	6cda      	ldr	r2, [r3, #76]	; 0x4c
 228:	07d1      	lsls	r1, r2, #31
 22a:	d407      	bmi.n	23c <fmc_bank1_state_get+0x18>
 22c:	6cda      	ldr	r2, [r3, #76]	; 0x4c
 22e:	06d2      	lsls	r2, r2, #27
 230:	d406      	bmi.n	240 <fmc_bank1_state_get+0x1c>
 232:	6cd8      	ldr	r0, [r3, #76]	; 0x4c
 234:	f3c0 0080 	ubfx	r0, r0, #2, #1
 238:	0040      	lsls	r0, r0, #1
 23a:	4770      	bx	lr
 23c:	2001      	movs	r0, #1
 23e:	4770      	bx	lr
 240:	2003      	movs	r0, #3
 242:	4770      	bx	lr
 244:	40022000 	.word	0x40022000

00000248 <fmc_bank0_ready_wait>:
 248:	b510      	push	{r4, lr}
 24a:	4604      	mov	r4, r0
 24c:	f7ff fffe 	bl	1fe <fmc_bank0_state_get>
 250:	2801      	cmp	r0, #1
 252:	f104 34ff 	add.w	r4, r4, #4294967295	; 0xffffffff
 256:	d102      	bne.n	25e <fmc_bank0_ready_wait+0x16>
 258:	2c00      	cmp	r4, #0
 25a:	d1f7      	bne.n	24c <fmc_bank0_ready_wait+0x4>
 25c:	2004      	movs	r0, #4
 25e:	bd10      	pop	{r4, pc}

00000260 <fmc_bank0_erase>:
 260:	b510      	push	{r4, lr}
 262:	f44f 2070 	mov.w	r0, #983040	; 0xf0000
 266:	f7ff fffe 	bl	248 <fmc_bank0_ready_wait>
 26a:	b980      	cbnz	r0, 28e <fmc_bank0_erase+0x2e>
 26c:	4c08      	ldr	r4, [pc, #32]	; (290 <fmc_bank0_erase+0x30>)
 26e:	f44f 2070 	mov.w	r0, #983040	; 0xf0000
 272:	6923      	ldr	r3, [r4, #16]
 274:	f043 0304 	orr.w	r3, r3, #4
 278:	6123      	str	r3, [r4, #16]
 27a:	6923      	ldr	r3, [r4, #16]
 27c:	f043 0340 	orr.w	r3, r3, #64	; 0x40
 280:	6123      	str	r3, [r4, #16]
 282:	f7ff fffe 	bl	248 <fmc_bank0_ready_wait>
 286:	6923      	ldr	r3, [r4, #16]
 288:	f023 0304 	bic.w	r3, r3, #4
 28c:	6123      	str	r3, [r4, #16]
 28e:	bd10      	pop	{r4, pc}
 290:	40022000 	.word	0x40022000

00000294 <ob_erase>:
 294:	b538      	push	{r3, r4, r5, lr}
 296:	f44f 2070 	mov.w	r0, #983040	; 0xf0000
 29a:	f7ff fffe 	bl	248 <fmc_bank0_ready_wait>
 29e:	4602      	mov	r2, r0
 2a0:	f7ff fffe 	bl	134 <ob_spc_get>
 2a4:	2800      	cmp	r0, #0
 2a6:	bf14      	ite	ne
 2a8:	25bb      	movne	r5, #187	; 0xbb
 2aa:	25a5      	moveq	r5, #165	; 0xa5
 2ac:	bb22      	cbnz	r2, 2f8 <ob_erase+0x64>
 2ae:	4c13      	ldr	r4, [pc, #76]	; (2fc <ob_erase+0x68>)
 2b0:	f44f 2070 	mov.w	r0, #983040	; 0xf0000
 2b4:	6923      	ldr	r3, [r4, #16]
 2b6:	f043 0320 	orr.w	r3, r3, #32
 2ba:	6123      	str	r3, [r4, #16]
 2bc:	6923      	ldr	r3, [r4, #16]
 2be:	f043 0340 	orr.w	r3, r3, #64	; 0x40
 2c2:	6123      	str	r3, [r4, #16]
 2c4:	f7ff fffe 	bl	248 <fmc_bank0_ready_wait>
 2c8:	4602      	mov	r2, r0
 2ca:	b970      	cbnz	r0, 2ea <ob_erase+0x56>
 2cc:	6923      	ldr	r3, [r4, #16]
 2ce:	f44f 2070 	mov.w	r0, #983040	; 0xf0000
 2d2:	f023 0320 	bic.w	r3, r3, #32
 2d6:	6123      	str	r3, [r4, #16]
 2d8:	6923      	ldr	r3, [r4, #16]
 2da:	f043 0310 	orr.w	r3, r3, #16
 2de:	6123      	str	r3, [r4, #16]
 2e0:	4b07      	ldr	r3, [pc, #28]	; (300 <ob_erase+0x6c>)
 2e2:	801d      	strh	r5, [r3, #0]
 2e4:	f7ff fffe 	bl	248 <fmc_bank0_ready_wait>
 2e8:	4602      	mov	r2, r0
 2ea:	2a04      	cmp	r2, #4
 2ec:	bf0f      	iteee	eq
 2ee:	2204      	moveq	r2, #4
 2f0:	6923      	ldrne	r3, [r4, #16]
 2f2:	f023 0310 	bicne.w	r3, r3, #16
 2f6:	6123      	strne	r3, [r4, #16]
 2f8:	4610      	mov	r0, r2
 2fa:	bd38      	pop	{r3, r4, r5, pc}
 2fc:	40022000 	.word	0x40022000
 300:	1ffff800 	.word	0x1ffff800

00000304 <ob_write_protection_enable>:
 304:	b510      	push	{r4, lr}
 306:	4604      	mov	r4, r0
 308:	f44f 2070 	mov.w	r0, #983040	; 0xf0000
 30c:	f7ff fffe 	bl	248 <fmc_bank0_ready_wait>
 310:	2800      	cmp	r0, #0
 312:	d132      	bne.n	37a <ob_write_protection_enable+0x76>
 314:	43e4      	mvns	r4, r4
 316:	491d      	ldr	r1, [pc, #116]	; (38c <ob_write_protection_enable+0x88>)
 318:	b2e2      	uxtb	r2, r4
 31a:	690b      	ldr	r3, [r1, #16]
 31c:	2aff      	cmp	r2, #255	; 0xff
 31e:	f043 0310 	orr.w	r3, r3, #16
 322:	610b      	str	r3, [r1, #16]
 324:	d11f      	bne.n	366 <ob_write_protection_enable+0x62>
 326:	f3c4 2307 	ubfx	r3, r4, #8, #8
 32a:	2bff      	cmp	r3, #255	; 0xff
 32c:	d006      	beq.n	33c <ob_write_protection_enable+0x38>
 32e:	4a18      	ldr	r2, [pc, #96]	; (390 <ob_write_protection_enable+0x8c>)
 330:	f44f 2070 	mov.w	r0, #983040	; 0xf0000
 334:	8153      	strh	r3, [r2, #10]
 336:	f7ff fffe 	bl	248 <fmc_bank0_ready_wait>
 33a:	b9e0      	cbnz	r0, 376 <ob_write_protection_enable+0x72>
 33c:	f3c4 4307 	ubfx	r3, r4, #16, #8
 340:	2bff      	cmp	r3, #255	; 0xff
 342:	d006      	beq.n	352 <ob_write_protection_enable+0x4e>
 344:	4a12      	ldr	r2, [pc, #72]	; (390 <ob_write_protection_enable+0x8c>)
 346:	f44f 2070 	mov.w	r0, #983040	; 0xf0000
 34a:	8193      	strh	r3, [r2, #12]
 34c:	f7ff fffe 	bl	248 <fmc_bank0_ready_wait>
 350:	b988      	cbnz	r0, 376 <ob_write_protection_enable+0x72>
 352:	0e24      	lsrs	r4, r4, #24
 354:	2cff      	cmp	r4, #255	; 0xff
 356:	d111      	bne.n	37c <ob_write_protection_enable+0x78>
 358:	2000      	movs	r0, #0
 35a:	4a0c      	ldr	r2, [pc, #48]	; (38c <ob_write_protection_enable+0x88>)
 35c:	6913      	ldr	r3, [r2, #16]
 35e:	f023 0310 	bic.w	r3, r3, #16
 362:	6113      	str	r3, [r2, #16]
 364:	e009      	b.n	37a <ob_write_protection_enable+0x76>
 366:	4b0a      	ldr	r3, [pc, #40]	; (390 <ob_write_protection_enable+0x8c>)
 368:	f44f 2070 	mov.w	r0, #983040	; 0xf0000
 36c:	811a      	strh	r2, [r3, #8]
 36e:	f7ff fffe 	bl	248 <fmc_bank0_ready_wait>
 372:	2800      	cmp	r0, #0
 374:	d0d7      	beq.n	326 <ob_write_protection_enable+0x22>
 376:	2804      	cmp	r0, #4
 378:	d1ef      	bne.n	35a <ob_write_protection_enable+0x56>
 37a:	bd10      	pop	{r4, pc}
 37c:	4b04      	ldr	r3, [pc, #16]	; (390 <ob_write_protection_enable+0x8c>)
 37e:	b2a4      	uxth	r4, r4
 380:	81dc      	strh	r4, [r3, #14]
 382:	f44f 2070 	mov.w	r0, #983040	; 0xf0000
 386:	f7ff fffe 	bl	248 <fmc_bank0_ready_wait>
 38a:	e7f4      	b.n	376 <ob_write_protection_enable+0x72>
 38c:	40022000 	.word	0x40022000
 390:	1ffff800 	.word	0x1ffff800

00000394 <ob_security_protection_config>:
 394:	b538      	push	{r3, r4, r5, lr}
 396:	4605      	mov	r5, r0
 398:	f44f 2070 	mov.w	r0, #983040	; 0xf0000
 39c:	f7ff fffe 	bl	248 <fmc_bank0_ready_wait>
 3a0:	b9f0      	cbnz	r0, 3e0 <ob_security_protection_config+0x4c>
 3a2:	4c15      	ldr	r4, [pc, #84]	; (3f8 <ob_security_protection_config+0x64>)
 3a4:	f44f 2070 	mov.w	r0, #983040	; 0xf0000
 3a8:	6923      	ldr	r3, [r4, #16]
 3aa:	f043 0320 	orr.w	r3, r3, #32
 3ae:	6123      	str	r3, [r4, #16]
 3b0:	6923      	ldr	r3, [r4, #16]
 3b2:	f043 0340 	orr.w	r3, r3, #64	; 0x40
 3b6:	6123      	str	r3, [r4, #16]
 3b8:	f7ff fffe 	bl	248 <fmc_bank0_ready_wait>
 3bc:	b9b0      	cbnz	r0, 3ec <ob_security_protection_config+0x58>
 3be:	6923      	ldr	r3, [r4, #16]
 3c0:	f44f 2070 	mov.w	r0, #983040	; 0xf0000
 3c4:	f023 0320 	bic.w	r3, r3, #32
 3c8:	6123      	str	r3, [r4, #16]
 3ca:	6923      	ldr	r3, [r4, #16]
 3cc:	f043 0310 	orr.w	r3, r3, #16
 3d0:	6123      	str	r3, [r4, #16]
 3d2:	4b0a      	ldr	r3, [pc, #40]	; (3fc <ob_security_protection_config+0x68>)
 3d4:	801d      	strh	r5, [r3, #0]
 3d6:	f7ff fffe 	bl	248 <fmc_bank0_ready_wait>
 3da:	2804      	cmp	r0, #4
 3dc:	d101      	bne.n	3e2 <ob_security_protection_config+0x4e>
 3de:	2004      	movs	r0, #4
 3e0:	bd38      	pop	{r3, r4, r5, pc}
 3e2:	6923      	ldr	r3, [r4, #16]
 3e4:	f023 0310 	bic.w	r3, r3, #16
 3e8:	6123      	str	r3, [r4, #16]
 3ea:	e7f9      	b.n	3e0 <ob_security_protection_config+0x4c>
 3ec:	2804      	cmp	r0, #4
 3ee:	d0f6      	beq.n	3de <ob_security_protection_config+0x4a>
 3f0:	6923      	ldr	r3, [r4, #16]
 3f2:	f023 0320 	bic.w	r3, r3, #32
 3f6:	e7f7      	b.n	3e8 <ob_security_protection_config+0x54>
 3f8:	40022000 	.word	0x40022000
 3fc:	1ffff800 	.word	0x1ffff800

00000400 <ob_user_write>:
 400:	e92d 41f0 	stmdb	sp!, {r4, r5, r6, r7, r8, lr}
 404:	4604      	mov	r4, r0
 406:	f44f 2070 	mov.w	r0, #983040	; 0xf0000
 40a:	460d      	mov	r5, r1
 40c:	4690      	mov	r8, r2
 40e:	461e      	mov	r6, r3
 410:	f7ff fffe 	bl	248 <fmc_bank0_ready_wait>
 414:	b9b0      	cbnz	r0, 444 <ob_user_write+0x44>
 416:	4f0c      	ldr	r7, [pc, #48]	; (448 <ob_user_write+0x48>)
 418:	ea46 0608 	orr.w	r6, r6, r8
 41c:	693b      	ldr	r3, [r7, #16]
 41e:	4335      	orrs	r5, r6
 420:	f043 0310 	orr.w	r3, r3, #16
 424:	613b      	str	r3, [r7, #16]
 426:	432c      	orrs	r4, r5
 428:	4b08      	ldr	r3, [pc, #32]	; (44c <ob_user_write+0x4c>)
 42a:	f044 04f0 	orr.w	r4, r4, #240	; 0xf0
 42e:	805c      	strh	r4, [r3, #2]
 430:	f44f 2070 	mov.w	r0, #983040	; 0xf0000
 434:	f7ff fffe 	bl	248 <fmc_bank0_ready_wait>
 438:	2804      	cmp	r0, #4
 43a:	bf1e      	ittt	ne
 43c:	693b      	ldrne	r3, [r7, #16]
 43e:	f023 0310 	bicne.w	r3, r3, #16
 442:	613b      	strne	r3, [r7, #16]
 444:	e8bd 81f0 	ldmia.w	sp!, {r4, r5, r6, r7, r8, pc}
 448:	40022000 	.word	0x40022000
 44c:	1ffff800 	.word	0x1ffff800

00000450 <ob_data_program>:
 450:	b570      	push	{r4, r5, r6, lr}
 452:	4605      	mov	r5, r0
 454:	f44f 2070 	mov.w	r0, #983040	; 0xf0000
 458:	460e      	mov	r6, r1
 45a:	f7ff fffe 	bl	248 <fmc_bank0_ready_wait>
 45e:	b978      	cbnz	r0, 480 <ob_data_program+0x30>
 460:	4c08      	ldr	r4, [pc, #32]	; (484 <ob_data_program+0x34>)
 462:	f44f 2070 	mov.w	r0, #983040	; 0xf0000
 466:	6923      	ldr	r3, [r4, #16]
 468:	f043 0310 	orr.w	r3, r3, #16
 46c:	6123      	str	r3, [r4, #16]
 46e:	802e      	strh	r6, [r5, #0]
 470:	f7ff fffe 	bl	248 <fmc_bank0_ready_wait>
 474:	2804      	cmp	r0, #4
 476:	bf1e      	ittt	ne
 478:	6923      	ldrne	r3, [r4, #16]
 47a:	f023 0310 	bicne.w	r3, r3, #16
 47e:	6123      	strne	r3, [r4, #16]
 480:	bd70      	pop	{r4, r5, r6, pc}
 482:	bf00      	nop
 484:	40022000 	.word	0x40022000

00000488 <fmc_bank1_ready_wait>:
 488:	b510      	push	{r4, lr}
 48a:	4604      	mov	r4, r0
 48c:	f7ff fffe 	bl	224 <fmc_bank1_state_get>
 490:	2801      	cmp	r0, #1
 492:	f104 34ff 	add.w	r4, r4, #4294967295	; 0xffffffff
 496:	d102      	bne.n	49e <fmc_bank1_ready_wait+0x16>
 498:	2c00      	cmp	r4, #0
 49a:	d1f7      	bne.n	48c <fmc_bank1_ready_wait+0x4>
 49c:	2004      	movs	r0, #4
 49e:	bd10      	pop	{r4, pc}

000004a0 <fmc_page_erase>:
 4a0:	b538      	push	{r3, r4, r5, lr}
 4a2:	4b1f      	ldr	r3, [pc, #124]	; (520 <fmc_page_erase+0x80>)
 4a4:	4605      	mov	r5, r0
 4a6:	f8b3 30e0 	ldrh.w	r3, [r3, #224]	; 0xe0
 4aa:	f5b3 7f00 	cmp.w	r3, #512	; 0x200
 4ae:	d934      	bls.n	51a <fmc_page_erase+0x7a>
 4b0:	4b1c      	ldr	r3, [pc, #112]	; (524 <fmc_page_erase+0x84>)
 4b2:	f44f 2070 	mov.w	r0, #983040	; 0xf0000
 4b6:	429d      	cmp	r5, r3
 4b8:	d215      	bcs.n	4e6 <fmc_page_erase+0x46>
 4ba:	f7ff fffe 	bl	248 <fmc_bank0_ready_wait>
 4be:	bb58      	cbnz	r0, 518 <fmc_page_erase+0x78>
 4c0:	4c19      	ldr	r4, [pc, #100]	; (528 <fmc_page_erase+0x88>)
 4c2:	f44f 2070 	mov.w	r0, #983040	; 0xf0000
 4c6:	6923      	ldr	r3, [r4, #16]
 4c8:	f043 0302 	orr.w	r3, r3, #2
 4cc:	6123      	str	r3, [r4, #16]
 4ce:	6165      	str	r5, [r4, #20]
 4d0:	6923      	ldr	r3, [r4, #16]
 4d2:	f043 0340 	orr.w	r3, r3, #64	; 0x40
 4d6:	6123      	str	r3, [r4, #16]
 4d8:	f7ff fffe 	bl	248 <fmc_bank0_ready_wait>
 4dc:	6923      	ldr	r3, [r4, #16]
 4de:	f023 0302 	bic.w	r3, r3, #2
 4e2:	6123      	str	r3, [r4, #16]
 4e4:	e018      	b.n	518 <fmc_page_erase+0x78>
 4e6:	f7ff fffe 	bl	488 <fmc_bank1_ready_wait>
 4ea:	b9a8      	cbnz	r0, 518 <fmc_page_erase+0x78>
 4ec:	4c0e      	ldr	r4, [pc, #56]	; (528 <fmc_page_erase+0x88>)
 4ee:	f44f 2070 	mov.w	r0, #983040	; 0xf0000
 4f2:	6d23      	ldr	r3, [r4, #80]	; 0x50
 4f4:	f043 0302 	orr.w	r3, r3, #2
 4f8:	6523      	str	r3, [r4, #80]	; 0x50
 4fa:	6565      	str	r5, [r4, #84]	; 0x54
 4fc:	69e3      	ldr	r3, [r4, #28]
 4fe:	079b      	lsls	r3, r3, #30
 500:	bf48      	it	mi
 502:	6165      	strmi	r5, [r4, #20]
 504:	6d23      	ldr	r3, [r4, #80]	; 0x50
 506:	f043 0340 	orr.w	r3, r3, #64	; 0x40
 50a:	6523      	str	r3, [r4, #80]	; 0x50
 50c:	f7ff fffe 	bl	488 <fmc_bank1_ready_wait>
 510:	6d23      	ldr	r3, [r4, #80]	; 0x50
 512:	f023 0302 	bic.w	r3, r3, #2
 516:	6523      	str	r3, [r4, #80]	; 0x50
 518:	bd38      	pop	{r3, r4, r5, pc}
 51a:	f44f 2070 	mov.w	r0, #983040	; 0xf0000
 51e:	e7cc      	b.n	4ba <fmc_page_erase+0x1a>
 520:	1ffff700 	.word	0x1ffff700
 524:	0807ffff 	.word	0x0807ffff
 528:	40022000 	.word	0x40022000

0000052c <fmc_mass_erase>:
 52c:	4b24      	ldr	r3, [pc, #144]	; (5c0 <fmc_mass_erase+0x94>)
 52e:	f44f 2070 	mov.w	r0, #983040	; 0xf0000
 532:	f8b3 30e0 	ldrh.w	r3, [r3, #224]	; 0xe0
 536:	b510      	push	{r4, lr}
 538:	f5b3 7f00 	cmp.w	r3, #512	; 0x200
 53c:	d92a      	bls.n	594 <fmc_mass_erase+0x68>
 53e:	f7ff fffe 	bl	248 <fmc_bank0_ready_wait>
 542:	b980      	cbnz	r0, 566 <fmc_mass_erase+0x3a>
 544:	4c1f      	ldr	r4, [pc, #124]	; (5c4 <fmc_mass_erase+0x98>)
 546:	f44f 2070 	mov.w	r0, #983040	; 0xf0000
 54a:	6923      	ldr	r3, [r4, #16]
 54c:	f043 0304 	orr.w	r3, r3, #4
 550:	6123      	str	r3, [r4, #16]
 552:	6923      	ldr	r3, [r4, #16]
 554:	f043 0340 	orr.w	r3, r3, #64	; 0x40
 558:	6123      	str	r3, [r4, #16]
 55a:	f7ff fffe 	bl	248 <fmc_bank0_ready_wait>
 55e:	6923      	ldr	r3, [r4, #16]
 560:	f023 0304 	bic.w	r3, r3, #4
 564:	6123      	str	r3, [r4, #16]
 566:	f44f 2070 	mov.w	r0, #983040	; 0xf0000
 56a:	f7ff fffe 	bl	488 <fmc_bank1_ready_wait>
 56e:	b980      	cbnz	r0, 592 <fmc_mass_erase+0x66>
 570:	4c14      	ldr	r4, [pc, #80]	; (5c4 <fmc_mass_erase+0x98>)
 572:	f44f 2070 	mov.w	r0, #983040	; 0xf0000
 576:	6d23      	ldr	r3, [r4, #80]	; 0x50
 578:	f043 0304 	orr.w	r3, r3, #4
 57c:	6523      	str	r3, [r4, #80]	; 0x50
 57e:	6d23      	ldr	r3, [r4, #80]	; 0x50
 580:	f043 0340 	orr.w	r3, r3, #64	; 0x40
 584:	6523      	str	r3, [r4, #80]	; 0x50
 586:	f7ff fffe 	bl	488 <fmc_bank1_ready_wait>
 58a:	6d23      	ldr	r3, [r4, #80]	; 0x50
 58c:	f023 0304 	bic.w	r3, r3, #4
 590:	6523      	str	r3, [r4, #80]	; 0x50
 592:	bd10      	pop	{r4, pc}
 594:	f7ff fffe 	bl	248 <fmc_bank0_ready_wait>
 598:	2800      	cmp	r0, #0
 59a:	d1fa      	bne.n	592 <fmc_mass_erase+0x66>
 59c:	4c09      	ldr	r4, [pc, #36]	; (5c4 <fmc_mass_erase+0x98>)
 59e:	f44f 2070 	mov.w	r0, #983040	; 0xf0000
 5a2:	6923      	ldr	r3, [r4, #16]
 5a4:	f043 0304 	orr.w	r3, r3, #4
 5a8:	6123      	str	r3, [r4, #16]
 5aa:	6923      	ldr	r3, [r4, #16]
 5ac:	f043 0340 	orr.w	r3, r3, #64	; 0x40
 5b0:	6123      	str	r3, [r4, #16]
 5b2:	f7ff fffe 	bl	248 <fmc_bank0_ready_wait>
 5b6:	6923      	ldr	r3, [r4, #16]
 5b8:	f023 0304 	bic.w	r3, r3, #4
 5bc:	6123      	str	r3, [r4, #16]
 5be:	e7e8      	b.n	592 <fmc_mass_erase+0x66>
 5c0:	1ffff700 	.word	0x1ffff700
 5c4:	40022000 	.word	0x40022000

000005c8 <fmc_bank1_erase>:
 5c8:	b510      	push	{r4, lr}
 5ca:	f44f 2070 	mov.w	r0, #983040	; 0xf0000
 5ce:	f7ff fffe 	bl	488 <fmc_bank1_ready_wait>
 5d2:	b980      	cbnz	r0, 5f6 <fmc_bank1_erase+0x2e>
 5d4:	4c08      	ldr	r4, [pc, #32]	; (5f8 <fmc_bank1_erase+0x30>)
 5d6:	f44f 2070 	mov.w	r0, #983040	; 0xf0000
 5da:	6d23      	ldr	r3, [r4, #80]	; 0x50
 5dc:	f043 0304 	orr.w	r3, r3, #4
 5e0:	6523      	str	r3, [r4, #80]	; 0x50
 5e2:	6d23      	ldr	r3, [r4, #80]	; 0x50
 5e4:	f043 0340 	orr.w	r3, r3, #64	; 0x40
 5e8:	6523      	str	r3, [r4, #80]	; 0x50
 5ea:	f7ff fffe 	bl	488 <fmc_bank1_ready_wait>
 5ee:	6d23      	ldr	r3, [r4, #80]	; 0x50
 5f0:	f023 0304 	bic.w	r3, r3, #4
 5f4:	6523      	str	r3, [r4, #80]	; 0x50
 5f6:	bd10      	pop	{r4, pc}
 5f8:	40022000 	.word	0x40022000

000005fc <fmc_word_program>:
 5fc:	4b1a      	ldr	r3, [pc, #104]	; (668 <fmc_word_program+0x6c>)
 5fe:	b570      	push	{r4, r5, r6, lr}
 600:	f8b3 30e0 	ldrh.w	r3, [r3, #224]	; 0xe0
 604:	4604      	mov	r4, r0
 606:	f5b3 7f00 	cmp.w	r3, #512	; 0x200
 60a:	460d      	mov	r5, r1
 60c:	d928      	bls.n	660 <fmc_word_program+0x64>
 60e:	4b17      	ldr	r3, [pc, #92]	; (66c <fmc_word_program+0x70>)
 610:	f44f 2070 	mov.w	r0, #983040	; 0xf0000
 614:	429c      	cmp	r4, r3
 616:	d211      	bcs.n	63c <fmc_word_program+0x40>
 618:	f7ff fffe 	bl	248 <fmc_bank0_ready_wait>
 61c:	b9f8      	cbnz	r0, 65e <fmc_word_program+0x62>
 61e:	4e14      	ldr	r6, [pc, #80]	; (670 <fmc_word_program+0x74>)
 620:	f44f 2070 	mov.w	r0, #983040	; 0xf0000
 624:	6933      	ldr	r3, [r6, #16]
 626:	f043 0301 	orr.w	r3, r3, #1
 62a:	6133      	str	r3, [r6, #16]
 62c:	6025      	str	r5, [r4, #0]
 62e:	f7ff fffe 	bl	248 <fmc_bank0_ready_wait>
 632:	6933      	ldr	r3, [r6, #16]
 634:	f023 0301 	bic.w	r3, r3, #1
 638:	6133      	str	r3, [r6, #16]
 63a:	e010      	b.n	65e <fmc_word_program+0x62>
 63c:	f7ff fffe 	bl	488 <fmc_bank1_ready_wait>
 640:	b968      	cbnz	r0, 65e <fmc_word_program+0x62>
 642:	4e0b      	ldr	r6, [pc, #44]	; (670 <fmc_word_program+0x74>)
 644:	f44f 2070 	mov.w	r0, #983040	; 0xf0000
 648:	6d33      	ldr	r3, [r6, #80]	; 0x50
 64a:	f043 0301 	orr.w	r3, r3, #1
 64e:	6533      	str	r3, [r6, #80]	; 0x50
 650:	6025      	str	r5, [r4, #0]
 652:	f7ff fffe 	bl	488 <fmc_bank1_ready_wait>
 656:	6d33      	ldr	r3, [r6, #80]	; 0x50
 658:	f023 0301 	bic.w	r3, r3, #1
 65c:	6533      	str	r3, [r6, #80]	; 0x50
 65e:	bd70      	pop	{r4, r5, r6, pc}
 660:	f44f 2070 	mov.w	r0, #983040	; 0xf0000
 664:	e7d8      	b.n	618 <fmc_word_program+0x1c>
 666:	bf00      	nop
 668:	1ffff700 	.word	0x1ffff700
 66c:	0807ffff 	.word	0x0807ffff
 670:	40022000 	.word	0x40022000

00000674 <fmc_halfword_program>:
 674:	4b1a      	ldr	r3, [pc, #104]	; (6e0 <fmc_halfword_program+0x6c>)
 676:	b570      	push	{r4, r5, r6, lr}
 678:	f8b3 30e0 	ldrh.w	r3, [r3, #224]	; 0xe0
 67c:	4604      	mov	r4, r0
 67e:	f5b3 7f00 	cmp.w	r3, #512	; 0x200
 682:	460d      	mov	r5, r1
 684:	d928      	bls.n	6d8 <fmc_halfword_program+0x64>
 686:	4b17      	ldr	r3, [pc, #92]	; (6e4 <fmc_halfword_program+0x70>)
 688:	f44f 2070 	mov.w	r0, #983040	; 0xf0000
 68c:	429c      	cmp	r4, r3
 68e:	d211      	bcs.n	6b4 <fmc_halfword_program+0x40>
 690:	f7ff fffe 	bl	248 <fmc_bank0_ready_wait>
 694:	b9f8      	cbnz	r0, 6d6 <fmc_halfword_program+0x62>
 696:	4e14      	ldr	r6, [pc, #80]	; (6e8 <fmc_halfword_program+0x74>)
 698:	f44f 2070 	mov.w	r0, #983040	; 0xf0000
 69c:	6933      	ldr	r3, [r6, #16]
 69e:	f043 0301 	orr.w	r3, r3, #1
 6a2:	6133      	str	r3, [r6, #16]
 6a4:	8025      	strh	r5, [r4, #0]
 6a6:	f7ff fffe 	bl	248 <fmc_bank0_ready_wait>
 6aa:	6933      	ldr	r3, [r6, #16]
 6ac:	f023 0301 	bic.w	r3, r3, #1
 6b0:	6133      	str	r3, [r6, #16]
 6b2:	e010      	b.n	6d6 <fmc_halfword_program+0x62>
 6b4:	f7ff fffe 	bl	488 <fmc_bank1_ready_wait>
 6b8:	b968      	cbnz	r0, 6d6 <fmc_halfword_program+0x62>
 6ba:	4e0b      	ldr	r6, [pc, #44]	; (6e8 <fmc_halfword_program+0x74>)
 6bc:	f44f 2070 	mov.w	r0, #983040	; 0xf0000
 6c0:	6d33      	ldr	r3, [r6, #80]	; 0x50
 6c2:	f043 0301 	orr.w	r3, r3, #1
 6c6:	6533      	str	r3, [r6, #80]	; 0x50
 6c8:	8025      	strh	r5, [r4, #0]
 6ca:	f7ff fffe 	bl	488 <fmc_bank1_ready_wait>
 6ce:	6d33      	ldr	r3, [r6, #80]	; 0x50
 6d0:	f023 0301 	bic.w	r3, r3, #1
 6d4:	6533      	str	r3, [r6, #80]	; 0x50
 6d6:	bd70      	pop	{r4, r5, r6, pc}
 6d8:	f44f 2070 	mov.w	r0, #983040	; 0xf0000
 6dc:	e7d8      	b.n	690 <fmc_halfword_program+0x1c>
 6de:	bf00      	nop
 6e0:	1ffff700 	.word	0x1ffff700
 6e4:	0807ffff 	.word	0x0807ffff
 6e8:	40022000 	.word	0x40022000

gd32f20x_fwdgt.o:     file format elf32-littlearm


Disassembly of section .text:

00000000 <fwdgt_write_enable>:
   0:	f245 5255 	movw	r2, #21845	; 0x5555
   4:	4b01      	ldr	r3, [pc, #4]	; (c <fwdgt_write_enable+0xc>)
   6:	601a      	str	r2, [r3, #0]
   8:	4770      	bx	lr
   a:	bf00      	nop
   c:	40003000 	.word	0x40003000

00000010 <fwdgt_write_disable>:
  10:	2200      	movs	r2, #0
  12:	4b01      	ldr	r3, [pc, #4]	; (18 <fwdgt_write_disable+0x8>)
  14:	601a      	str	r2, [r3, #0]
  16:	4770      	bx	lr
  18:	40003000 	.word	0x40003000

0000001c <fwdgt_enable>:
  1c:	f64c 42cc 	movw	r2, #52428	; 0xcccc
  20:	4b01      	ldr	r3, [pc, #4]	; (28 <fwdgt_enable+0xc>)
  22:	601a      	str	r2, [r3, #0]
  24:	4770      	bx	lr
  26:	bf00      	nop
  28:	40003000 	.word	0x40003000

0000002c <fwdgt_counter_reload>:
  2c:	f64a 22aa 	movw	r2, #43690	; 0xaaaa
  30:	4b01      	ldr	r3, [pc, #4]	; (38 <fwdgt_counter_reload+0xc>)
  32:	601a      	str	r2, [r3, #0]
  34:	4770      	bx	lr
  36:	bf00      	nop
  38:	40003000 	.word	0x40003000

0000003c <fwdgt_config>:
  3c:	f245 5355 	movw	r3, #21845	; 0x5555
  40:	4a11      	ldr	r2, [pc, #68]	; (88 <fwdgt_config+0x4c>)
  42:	b510      	push	{r4, lr}
  44:	4c11      	ldr	r4, [pc, #68]	; (8c <fwdgt_config+0x50>)
  46:	6013      	str	r3, [r2, #0]
  48:	68d3      	ldr	r3, [r2, #12]
  4a:	3c01      	subs	r4, #1
  4c:	f003 0301 	and.w	r3, r3, #1
  50:	d013      	beq.n	7a <fwdgt_config+0x3e>
  52:	2b00      	cmp	r3, #0
  54:	d1f8      	bne.n	48 <fwdgt_config+0xc>
  56:	6051      	str	r1, [r2, #4]
  58:	490c      	ldr	r1, [pc, #48]	; (8c <fwdgt_config+0x50>)
  5a:	4a0b      	ldr	r2, [pc, #44]	; (88 <fwdgt_config+0x4c>)
  5c:	68d3      	ldr	r3, [r2, #12]
  5e:	3901      	subs	r1, #1
  60:	f003 0302 	and.w	r3, r3, #2
  64:	d00d      	beq.n	82 <fwdgt_config+0x46>
  66:	2b00      	cmp	r3, #0
  68:	d1f8      	bne.n	5c <fwdgt_config+0x20>
  6a:	f64a 23aa 	movw	r3, #43690	; 0xaaaa
  6e:	f3c0 000b 	ubfx	r0, r0, #0, #12
  72:	6090      	str	r0, [r2, #8]
  74:	2001      	movs	r0, #1
  76:	6013      	str	r3, [r2, #0]
  78:	e002      	b.n	80 <fwdgt_config+0x44>
  7a:	2b00      	cmp	r3, #0
  7c:	d0eb      	beq.n	56 <fwdgt_config+0x1a>
  7e:	2000      	movs	r0, #0
  80:	bd10      	pop	{r4, pc}
  82:	2b00      	cmp	r3, #0
  84:	d1fb      	bne.n	7e <fwdgt_config+0x42>
  86:	e7f0      	b.n	6a <fwdgt_config+0x2e>
  88:	40003000 	.word	0x40003000
  8c:	000fffff 	.word	0x000fffff

00000090 <fwdgt_flag_get>:
  90:	4b03      	ldr	r3, [pc, #12]	; (a0 <fwdgt_flag_get+0x10>)
  92:	68db      	ldr	r3, [r3, #12]
  94:	4218      	tst	r0, r3
  96:	bf14      	ite	ne
  98:	2001      	movne	r0, #1
  9a:	2000      	moveq	r0, #0
  9c:	4770      	bx	lr
  9e:	bf00      	nop
  a0:	40003000 	.word	0x40003000

gd32f20x_gpio.o:     file format elf32-littlearm


Disassembly of section .text:

00000000 <gpio_deinit>:
   0:	b508      	push	{r3, lr}
   2:	4b33      	ldr	r3, [pc, #204]	; (d0 <gpio_deinit+0xd0>)
   4:	4298      	cmp	r0, r3
   6:	d04d      	beq.n	a4 <gpio_deinit+0xa4>
   8:	d817      	bhi.n	3a <gpio_deinit+0x3a>
   a:	f5a3 6300 	sub.w	r3, r3, #2048	; 0x800
   e:	4298      	cmp	r0, r3
  10:	d041      	beq.n	96 <gpio_deinit+0x96>
  12:	d808      	bhi.n	26 <gpio_deinit+0x26>
  14:	f5a3 6300 	sub.w	r3, r3, #2048	; 0x800
  18:	4298      	cmp	r0, r3
  1a:	d02b      	beq.n	74 <gpio_deinit+0x74>
  1c:	f503 6380 	add.w	r3, r3, #1024	; 0x400
  20:	4298      	cmp	r0, r3
  22:	d031      	beq.n	88 <gpio_deinit+0x88>
  24:	bd08      	pop	{r3, pc}
  26:	4b2b      	ldr	r3, [pc, #172]	; (d4 <gpio_deinit+0xd4>)
  28:	4298      	cmp	r0, r3
  2a:	d1fb      	bne.n	24 <gpio_deinit+0x24>
  2c:	f240 3005 	movw	r0, #773	; 0x305
  30:	f7ff fffe 	bl	0 <rcu_periph_reset_enable>
  34:	f240 3005 	movw	r0, #773	; 0x305
  38:	e022      	b.n	80 <gpio_deinit+0x80>
  3a:	4b27      	ldr	r3, [pc, #156]	; (d8 <gpio_deinit+0xd8>)
  3c:	4298      	cmp	r0, r3
  3e:	d03f      	beq.n	c0 <gpio_deinit+0xc0>
  40:	d80e      	bhi.n	60 <gpio_deinit+0x60>
  42:	f5a3 43b0 	sub.w	r3, r3, #22528	; 0x5800
  46:	4298      	cmp	r0, r3
  48:	d033      	beq.n	b2 <gpio_deinit+0xb2>
  4a:	f503 6380 	add.w	r3, r3, #1024	; 0x400
  4e:	4298      	cmp	r0, r3
  50:	d1e8      	bne.n	24 <gpio_deinit+0x24>
  52:	f44f 7042 	mov.w	r0, #776	; 0x308
  56:	f7ff fffe 	bl	0 <rcu_periph_reset_enable>
  5a:	f44f 7042 	mov.w	r0, #776	; 0x308
  5e:	e00f      	b.n	80 <gpio_deinit+0x80>
  60:	4b1e      	ldr	r3, [pc, #120]	; (dc <gpio_deinit+0xdc>)
  62:	4298      	cmp	r0, r3
  64:	d1de      	bne.n	24 <gpio_deinit+0x24>
  66:	f641 501f 	movw	r0, #7455	; 0x1d1f
  6a:	f7ff fffe 	bl	0 <rcu_periph_reset_enable>
  6e:	f641 501f 	movw	r0, #7455	; 0x1d1f
  72:	e005      	b.n	80 <gpio_deinit+0x80>
  74:	f240 3002 	movw	r0, #770	; 0x302
  78:	f7ff fffe 	bl	0 <rcu_periph_reset_enable>
  7c:	f240 3002 	movw	r0, #770	; 0x302
  80:	e8bd 4008 	ldmia.w	sp!, {r3, lr}
  84:	f7ff bffe 	b.w	0 <rcu_periph_reset_disable>
  88:	f240 3003 	movw	r0, #771	; 0x303
  8c:	f7ff fffe 	bl	0 <rcu_periph_reset_enable>
  90:	f240 3003 	movw	r0, #771	; 0x303
  94:	e7f4      	b.n	80 <gpio_deinit+0x80>
  96:	f44f 7041 	mov.w	r0, #772	; 0x304
  9a:	f7ff fffe 	bl	0 <rcu_periph_reset_enable>
  9e:	f44f 7041 	mov.w	r0, #772	; 0x304
  a2:	e7ed      	b.n	80 <gpio_deinit+0x80>
  a4:	f240 3006 	movw	r0, #774	; 0x306
  a8:	f7ff fffe 	bl	0 <rcu_periph_reset_enable>
  ac:	f240 3006 	movw	r0, #774	; 0x306
  b0:	e7e6      	b.n	80 <gpio_deinit+0x80>
  b2:	f240 3007 	movw	r0, #775	; 0x307
  b6:	f7ff fffe 	bl	0 <rcu_periph_reset_enable>
  ba:	f240 3007 	movw	r0, #775	; 0x307
  be:	e7df      	b.n	80 <gpio_deinit+0x80>
  c0:	f641 501e 	movw	r0, #7454	; 0x1d1e
  c4:	f7ff fffe 	bl	0 <rcu_periph_reset_enable>
  c8:	f641 501e 	movw	r0, #7454	; 0x1d1e
  cc:	e7d8      	b.n	80 <gpio_deinit+0x80>
  ce:	bf00      	nop
  d0:	40011800 	.word	0x40011800
  d4:	40011400 	.word	0x40011400
  d8:	40017400 	.word	0x40017400
  dc:	40017800 	.word	0x40017800

000000e0 <gpio_afio_deinit>:
  e0:	b508      	push	{r3, lr}
  e2:	f44f 7040 	mov.w	r0, #768	; 0x300
  e6:	f7ff fffe 	bl	0 <rcu_periph_reset_enable>
  ea:	e8bd 4008 	ldmia.w	sp!, {r3, lr}
  ee:	f44f 7040 	mov.w	r0, #768	; 0x300
  f2:	f7ff bffe 	b.w	0 <rcu_periph_reset_disable>

000000f6 <gpio_init>:
  f6:	e92d 41f0 	stmdb	sp!, {r4, r5, r6, r7, r8, lr}
  fa:	f04f 0c01 	mov.w	ip, #1
  fe:	06cc      	lsls	r4, r1, #27
 100:	f04f 0e0f 	mov.w	lr, #15
 104:	f04f 0400 	mov.w	r4, #0
 108:	f001 060f 	and.w	r6, r1, #15
 10c:	bf48      	it	mi
 10e:	4316      	orrmi	r6, r2
 110:	fa0c f504 	lsl.w	r5, ip, r4
 114:	401d      	ands	r5, r3
 116:	d00d      	beq.n	134 <gpio_init+0x3e>
 118:	00a2      	lsls	r2, r4, #2
 11a:	6807      	ldr	r7, [r0, #0]
 11c:	fa0e f802 	lsl.w	r8, lr, r2
 120:	ea27 0708 	bic.w	r7, r7, r8
 124:	fa06 f202 	lsl.w	r2, r6, r2
 128:	2928      	cmp	r1, #40	; 0x28
 12a:	ea42 0207 	orr.w	r2, r2, r7
 12e:	d122      	bne.n	176 <gpio_init+0x80>
 130:	6145      	str	r5, [r0, #20]
 132:	6002      	str	r2, [r0, #0]
 134:	3401      	adds	r4, #1
 136:	2c08      	cmp	r4, #8
 138:	d1ea      	bne.n	110 <gpio_init+0x1a>
 13a:	2500      	movs	r5, #0
 13c:	f04f 0c01 	mov.w	ip, #1
 140:	f04f 0e0f 	mov.w	lr, #15
 144:	f105 0208 	add.w	r2, r5, #8
 148:	fa0c f202 	lsl.w	r2, ip, r2
 14c:	401a      	ands	r2, r3
 14e:	d00d      	beq.n	16c <gpio_init+0x76>
 150:	00ac      	lsls	r4, r5, #2
 152:	6847      	ldr	r7, [r0, #4]
 154:	fa0e f804 	lsl.w	r8, lr, r4
 158:	ea27 0708 	bic.w	r7, r7, r8
 15c:	fa06 f404 	lsl.w	r4, r6, r4
 160:	2928      	cmp	r1, #40	; 0x28
 162:	ea44 0407 	orr.w	r4, r4, r7
 166:	d10a      	bne.n	17e <gpio_init+0x88>
 168:	6142      	str	r2, [r0, #20]
 16a:	6044      	str	r4, [r0, #4]
 16c:	3501      	adds	r5, #1
 16e:	2d08      	cmp	r5, #8
 170:	d1e8      	bne.n	144 <gpio_init+0x4e>
 172:	e8bd 81f0 	ldmia.w	sp!, {r4, r5, r6, r7, r8, pc}
 176:	2948      	cmp	r1, #72	; 0x48
 178:	bf08      	it	eq
 17a:	6105      	streq	r5, [r0, #16]
 17c:	e7d9      	b.n	132 <gpio_init+0x3c>
 17e:	2948      	cmp	r1, #72	; 0x48
 180:	bf08      	it	eq
 182:	6102      	streq	r2, [r0, #16]
 184:	e7f1      	b.n	16a <gpio_init+0x74>

00000186 <gpio_bit_set>:
 186:	6101      	str	r1, [r0, #16]
 188:	4770      	bx	lr

0000018a <gpio_bit_reset>:
 18a:	6141      	str	r1, [r0, #20]
 18c:	4770      	bx	lr

0000018e <gpio_bit_write>:
 18e:	b10a      	cbz	r2, 194 <gpio_bit_write+0x6>
 190:	6101      	str	r1, [r0, #16]
 192:	4770      	bx	lr
 194:	6141      	str	r1, [r0, #20]
 196:	4770      	bx	lr

00000198 <gpio_port_write>:
 198:	60c1      	str	r1, [r0, #12]
 19a:	4770      	bx	lr

0000019c <gpio_input_bit_get>:
 19c:	6883      	ldr	r3, [r0, #8]
 19e:	420b      	tst	r3, r1
 1a0:	bf14      	ite	ne
 1a2:	2001      	movne	r0, #1
 1a4:	2000      	moveq	r0, #0
 1a6:	4770      	bx	lr

000001a8 <gpio_input_port_get>:
 1a8:	6880      	ldr	r0, [r0, #8]
 1aa:	b280      	uxth	r0, r0
 1ac:	4770      	bx	lr

000001ae <gpio_output_bit_get>:
 1ae:	68c3      	ldr	r3, [r0, #12]
 1b0:	420b      	tst	r3, r1
 1b2:	bf14      	ite	ne
 1b4:	2001      	movne	r0, #1
 1b6:	2000      	moveq	r0, #0
 1b8:	4770      	bx	lr

000001ba <gpio_output_port_get>:
 1ba:	68c0      	ldr	r0, [r0, #12]
 1bc:	b280      	uxth	r0, r0
 1be:	4770      	bx	lr

000001c0 <gpio_pin_remap_config>:
 1c0:	2800      	cmp	r0, #0
 1c2:	4a16      	ldr	r2, [pc, #88]	; (21c <gpio_pin_remap_config+0x5c>)
 1c4:	b530      	push	{r4, r5, lr}
 1c6:	f400 1540 	and.w	r5, r0, #3145728	; 0x300000
 1ca:	bfb4      	ite	lt
 1cc:	69d3      	ldrlt	r3, [r2, #28]
 1ce:	6853      	ldrge	r3, [r2, #4]
 1d0:	f5b5 1f40 	cmp.w	r5, #3145728	; 0x300000
 1d4:	b284      	uxth	r4, r0
 1d6:	d110      	bne.n	1fa <gpio_pin_remap_config+0x3a>
 1d8:	6855      	ldr	r5, [r2, #4]
 1da:	f023 6370 	bic.w	r3, r3, #251658240	; 0xf000000
 1de:	f025 6570 	bic.w	r5, r5, #251658240	; 0xf000000
 1e2:	6055      	str	r5, [r2, #4]
 1e4:	b119      	cbz	r1, 1ee <gpio_pin_remap_config+0x2e>
 1e6:	0d42      	lsrs	r2, r0, #21
 1e8:	0112      	lsls	r2, r2, #4
 1ea:	4094      	lsls	r4, r2
 1ec:	4323      	orrs	r3, r4
 1ee:	4a0b      	ldr	r2, [pc, #44]	; (21c <gpio_pin_remap_config+0x5c>)
 1f0:	2800      	cmp	r0, #0
 1f2:	bfb4      	ite	lt
 1f4:	61d3      	strlt	r3, [r2, #28]
 1f6:	6053      	strge	r3, [r2, #4]
 1f8:	bd30      	pop	{r4, r5, pc}
 1fa:	02c2      	lsls	r2, r0, #11
 1fc:	bf4d      	iteet	mi
 1fe:	2203      	movmi	r2, #3
 200:	0d42      	lsrpl	r2, r0, #21
 202:	0112      	lslpl	r2, r2, #4
 204:	f3c0 4503 	ubfxmi	r5, r0, #16, #4
 208:	bf4c      	ite	mi
 20a:	40aa      	lslmi	r2, r5
 20c:	fa04 f202 	lslpl.w	r2, r4, r2
 210:	ea23 0302 	bic.w	r3, r3, r2
 214:	f043 6370 	orr.w	r3, r3, #251658240	; 0xf000000
 218:	e7e4      	b.n	1e4 <gpio_pin_remap_config+0x24>
 21a:	bf00      	nop
 21c:	40010000 	.word	0x40010000

00000220 <gpio_pin_remap1_config>:
 220:	3802      	subs	r0, #2
 222:	b1ca      	cbz	r2, 258 <gpio_pin_remap1_config+0x38>
 224:	2803      	cmp	r0, #3
 226:	d816      	bhi.n	256 <gpio_pin_remap1_config+0x36>
 228:	e8df f000 	tbb	[pc, r0]
 22c:	110c0702 	.word	0x110c0702
 230:	4a16      	ldr	r2, [pc, #88]	; (28c <gpio_pin_remap1_config+0x6c>)
 232:	6bd3      	ldr	r3, [r2, #60]	; 0x3c
 234:	430b      	orrs	r3, r1
 236:	63d3      	str	r3, [r2, #60]	; 0x3c
 238:	4770      	bx	lr
 23a:	4a14      	ldr	r2, [pc, #80]	; (28c <gpio_pin_remap1_config+0x6c>)
 23c:	6c13      	ldr	r3, [r2, #64]	; 0x40
 23e:	430b      	orrs	r3, r1
 240:	6413      	str	r3, [r2, #64]	; 0x40
 242:	4770      	bx	lr
 244:	4a11      	ldr	r2, [pc, #68]	; (28c <gpio_pin_remap1_config+0x6c>)
 246:	6c53      	ldr	r3, [r2, #68]	; 0x44
 248:	430b      	orrs	r3, r1
 24a:	6453      	str	r3, [r2, #68]	; 0x44
 24c:	4770      	bx	lr
 24e:	4a0f      	ldr	r2, [pc, #60]	; (28c <gpio_pin_remap1_config+0x6c>)
 250:	6c93      	ldr	r3, [r2, #72]	; 0x48
 252:	430b      	orrs	r3, r1
 254:	6493      	str	r3, [r2, #72]	; 0x48
 256:	4770      	bx	lr
 258:	2803      	cmp	r0, #3
 25a:	d8fc      	bhi.n	256 <gpio_pin_remap1_config+0x36>
 25c:	e8df f000 	tbb	[pc, r0]
 260:	110c0702 	.word	0x110c0702
 264:	4a09      	ldr	r2, [pc, #36]	; (28c <gpio_pin_remap1_config+0x6c>)
 266:	6bd3      	ldr	r3, [r2, #60]	; 0x3c
 268:	ea23 0301 	bic.w	r3, r3, r1
 26c:	e7e3      	b.n	236 <gpio_pin_remap1_config+0x16>
 26e:	4a07      	ldr	r2, [pc, #28]	; (28c <gpio_pin_remap1_config+0x6c>)
 270:	6c13      	ldr	r3, [r2, #64]	; 0x40
 272:	ea23 0301 	bic.w	r3, r3, r1
 276:	e7e3      	b.n	240 <gpio_pin_remap1_config+0x20>
 278:	4a04      	ldr	r2, [pc, #16]	; (28c <gpio_pin_remap1_config+0x6c>)
 27a:	6c53      	ldr	r3, [r2, #68]	; 0x44
 27c:	ea23 0301 	bic.w	r3, r3, r1
 280:	e7e3      	b.n	24a <gpio_pin_remap1_config+0x2a>
 282:	4a02      	ldr	r2, [pc, #8]	; (28c <gpio_pin_remap1_config+0x6c>)
 284:	6c93      	ldr	r3, [r2, #72]	; 0x48
 286:	ea23 0301 	bic.w	r3, r3, r1
 28a:	e7e3      	b.n	254 <gpio_pin_remap1_config+0x34>
 28c:	40010000 	.word	0x40010000

00000290 <gpio_exti_source_select>:
 290:	220f      	movs	r2, #15
 292:	f001 0303 	and.w	r3, r1, #3
 296:	009b      	lsls	r3, r3, #2
 298:	409a      	lsls	r2, r3
 29a:	2903      	cmp	r1, #3
 29c:	fa00 f003 	lsl.w	r0, r0, r3
 2a0:	ea6f 0202 	mvn.w	r2, r2
 2a4:	4b10      	ldr	r3, [pc, #64]	; (2e8 <gpio_exti_source_select+0x58>)
 2a6:	d806      	bhi.n	2b6 <gpio_exti_source_select+0x26>
 2a8:	6899      	ldr	r1, [r3, #8]
 2aa:	400a      	ands	r2, r1
 2ac:	609a      	str	r2, [r3, #8]
 2ae:	689a      	ldr	r2, [r3, #8]
 2b0:	4302      	orrs	r2, r0
 2b2:	609a      	str	r2, [r3, #8]
 2b4:	4770      	bx	lr
 2b6:	2907      	cmp	r1, #7
 2b8:	d806      	bhi.n	2c8 <gpio_exti_source_select+0x38>
 2ba:	68d9      	ldr	r1, [r3, #12]
 2bc:	400a      	ands	r2, r1
 2be:	60da      	str	r2, [r3, #12]
 2c0:	68da      	ldr	r2, [r3, #12]
 2c2:	4302      	orrs	r2, r0
 2c4:	60da      	str	r2, [r3, #12]
 2c6:	4770      	bx	lr
 2c8:	290b      	cmp	r1, #11
 2ca:	d806      	bhi.n	2da <gpio_exti_source_select+0x4a>
 2cc:	6919      	ldr	r1, [r3, #16]
 2ce:	400a      	ands	r2, r1
 2d0:	611a      	str	r2, [r3, #16]
 2d2:	691a      	ldr	r2, [r3, #16]
 2d4:	4302      	orrs	r2, r0
 2d6:	611a      	str	r2, [r3, #16]
 2d8:	4770      	bx	lr
 2da:	6959      	ldr	r1, [r3, #20]
 2dc:	400a      	ands	r2, r1
 2de:	615a      	str	r2, [r3, #20]
 2e0:	695a      	ldr	r2, [r3, #20]
 2e2:	4302      	orrs	r2, r0
 2e4:	615a      	str	r2, [r3, #20]
 2e6:	4770      	bx	lr
 2e8:	40010000 	.word	0x40010000

000002ec <gpio_event_output_config>:
 2ec:	4a04      	ldr	r2, [pc, #16]	; (300 <gpio_event_output_config+0x14>)
 2ee:	6813      	ldr	r3, [r2, #0]
 2f0:	f023 037f 	bic.w	r3, r3, #127	; 0x7f
 2f4:	430b      	orrs	r3, r1
 2f6:	ea43 1300 	orr.w	r3, r3, r0, lsl #4
 2fa:	6013      	str	r3, [r2, #0]
 2fc:	4770      	bx	lr
 2fe:	bf00      	nop
 300:	40010000 	.word	0x40010000

00000304 <gpio_event_output_enable>:
 304:	4a02      	ldr	r2, [pc, #8]	; (310 <gpio_event_output_enable+0xc>)
 306:	6813      	ldr	r3, [r2, #0]
 308:	f043 0380 	orr.w	r3, r3, #128	; 0x80
 30c:	6013      	str	r3, [r2, #0]
 30e:	4770      	bx	lr
 310:	40010000 	.word	0x40010000

00000314 <gpio_event_output_disable>:
 314:	4a02      	ldr	r2, [pc, #8]	; (320 <gpio_event_output_disable+0xc>)
 316:	6813      	ldr	r3, [r2, #0]
 318:	f023 0380 	bic.w	r3, r3, #128	; 0x80
 31c:	6013      	str	r3, [r2, #0]
 31e:	4770      	bx	lr
 320:	40010000 	.word	0x40010000

00000324 <gpio_pin_lock>:
 324:	f441 3380 	orr.w	r3, r1, #65536	; 0x10000
 328:	6183      	str	r3, [r0, #24]
 32a:	6181      	str	r1, [r0, #24]
 32c:	6183      	str	r3, [r0, #24]
 32e:	6983      	ldr	r3, [r0, #24]
 330:	6983      	ldr	r3, [r0, #24]
 332:	4770      	bx	lr

00000334 <gpio_ethernet_phy_select>:
 334:	4b04      	ldr	r3, [pc, #16]	; (348 <gpio_ethernet_phy_select+0x14>)
 336:	685a      	ldr	r2, [r3, #4]
 338:	f422 0200 	bic.w	r2, r2, #8388608	; 0x800000
 33c:	605a      	str	r2, [r3, #4]
 33e:	685a      	ldr	r2, [r3, #4]
 340:	4302      	orrs	r2, r0
 342:	605a      	str	r2, [r3, #4]
 344:	4770      	bx	lr
 346:	bf00      	nop
 348:	40010000 	.word	0x40010000

gd32f20x_hau.o:     file format elf32-littlearm


Disassembly of section .text:

00000000 <hau_deinit>:
   0:	b508      	push	{r3, lr}
   2:	f641 4005 	movw	r0, #7173	; 0x1c05
   6:	f7ff fffe 	bl	0 <rcu_periph_reset_enable>
   a:	e8bd 4008 	ldmia.w	sp!, {r3, lr}
   e:	f641 4005 	movw	r0, #7173	; 0x1c05
  12:	f7ff bffe 	b.w	0 <rcu_periph_reset_disable>

00000016 <hau_init>:
  16:	4b15      	ldr	r3, [pc, #84]	; (6c <hau_init+0x56>)
  18:	b510      	push	{r4, lr}
  1a:	f8d3 2400 	ldr.w	r2, [r3, #1024]	; 0x400
  1e:	f422 2280 	bic.w	r2, r2, #262144	; 0x40000
  22:	f022 02f0 	bic.w	r2, r2, #240	; 0xf0
  26:	f8c3 2400 	str.w	r2, [r3, #1024]	; 0x400
  2a:	6802      	ldr	r2, [r0, #0]
  2c:	6884      	ldr	r4, [r0, #8]
  2e:	f8d3 1400 	ldr.w	r1, [r3, #1024]	; 0x400
  32:	4322      	orrs	r2, r4
  34:	430a      	orrs	r2, r1
  36:	6841      	ldr	r1, [r0, #4]
  38:	430a      	orrs	r2, r1
  3a:	f8c3 2400 	str.w	r2, [r3, #1024]	; 0x400
  3e:	6842      	ldr	r2, [r0, #4]
  40:	2a40      	cmp	r2, #64	; 0x40
  42:	d10b      	bne.n	5c <hau_init+0x46>
  44:	f8d3 2400 	ldr.w	r2, [r3, #1024]	; 0x400
  48:	f422 3280 	bic.w	r2, r2, #65536	; 0x10000
  4c:	f8c3 2400 	str.w	r2, [r3, #1024]	; 0x400
  50:	f8d3 2400 	ldr.w	r2, [r3, #1024]	; 0x400
  54:	68c1      	ldr	r1, [r0, #12]
  56:	430a      	orrs	r2, r1
  58:	f8c3 2400 	str.w	r2, [r3, #1024]	; 0x400
  5c:	f8d3 2400 	ldr.w	r2, [r3, #1024]	; 0x400
  60:	f042 0204 	orr.w	r2, r2, #4
  64:	f8c3 2400 	str.w	r2, [r3, #1024]	; 0x400
  68:	bd10      	pop	{r4, pc}
  6a:	bf00      	nop
  6c:	50060000 	.word	0x50060000

00000070 <hau_init_parameter_init>:
  70:	2300      	movs	r3, #0
  72:	e9c0 3300 	strd	r3, r3, [r0]
  76:	e9c0 3302 	strd	r3, r3, [r0, #8]
  7a:	4770      	bx	lr

0000007c <hau_reset>:
  7c:	4a03      	ldr	r2, [pc, #12]	; (8c <hau_reset+0x10>)
  7e:	f8d2 3400 	ldr.w	r3, [r2, #1024]	; 0x400
  82:	f043 0304 	orr.w	r3, r3, #4
  86:	f8c2 3400 	str.w	r3, [r2, #1024]	; 0x400
  8a:	4770      	bx	lr
  8c:	50060000 	.word	0x50060000

00000090 <hau_last_word_validbits_num_config>:
  90:	4b07      	ldr	r3, [pc, #28]	; (b0 <hau_last_word_validbits_num_config+0x20>)
  92:	f000 001f 	and.w	r0, r0, #31
  96:	f8d3 2408 	ldr.w	r2, [r3, #1032]	; 0x408
  9a:	f022 021f 	bic.w	r2, r2, #31
  9e:	f8c3 2408 	str.w	r2, [r3, #1032]	; 0x408
  a2:	f8d3 2408 	ldr.w	r2, [r3, #1032]	; 0x408
  a6:	4310      	orrs	r0, r2
  a8:	f8c3 0408 	str.w	r0, [r3, #1032]	; 0x408
  ac:	4770      	bx	lr
  ae:	bf00      	nop
  b0:	50060000 	.word	0x50060000

000000b4 <hau_data_write>:
  b4:	4b01      	ldr	r3, [pc, #4]	; (bc <hau_data_write+0x8>)
  b6:	f8c3 0404 	str.w	r0, [r3, #1028]	; 0x404
  ba:	4770      	bx	lr
  bc:	50060000 	.word	0x50060000

000000c0 <hau_infifo_words_num_get>:
  c0:	4b02      	ldr	r3, [pc, #8]	; (cc <hau_infifo_words_num_get+0xc>)
  c2:	f8d3 0400 	ldr.w	r0, [r3, #1024]	; 0x400
  c6:	f3c0 2003 	ubfx	r0, r0, #8, #4
  ca:	4770      	bx	lr
  cc:	50060000 	.word	0x50060000

000000d0 <hau_digest_read>:
  d0:	4b0c      	ldr	r3, [pc, #48]	; (104 <hau_digest_read+0x34>)
  d2:	f8d3 240c 	ldr.w	r2, [r3, #1036]	; 0x40c
  d6:	6002      	str	r2, [r0, #0]
  d8:	f8d3 2410 	ldr.w	r2, [r3, #1040]	; 0x410
  dc:	6042      	str	r2, [r0, #4]
  de:	f8d3 2414 	ldr.w	r2, [r3, #1044]	; 0x414
  e2:	6082      	str	r2, [r0, #8]
  e4:	f8d3 2418 	ldr.w	r2, [r3, #1048]	; 0x418
  e8:	60c2      	str	r2, [r0, #12]
  ea:	f8d3 241c 	ldr.w	r2, [r3, #1052]	; 0x41c
  ee:	6102      	str	r2, [r0, #16]
  f0:	f8d3 2724 	ldr.w	r2, [r3, #1828]	; 0x724
  f4:	6142      	str	r2, [r0, #20]
  f6:	f8d3 2728 	ldr.w	r2, [r3, #1832]	; 0x728
  fa:	6182      	str	r2, [r0, #24]
  fc:	f8d3 372c 	ldr.w	r3, [r3, #1836]	; 0x72c
 100:	61c3      	str	r3, [r0, #28]
 102:	4770      	bx	lr
 104:	50060000 	.word	0x50060000

00000108 <hau_digest_calculation_enable>:
 108:	4a03      	ldr	r2, [pc, #12]	; (118 <hau_digest_calculation_enable+0x10>)
 10a:	f8d2 3408 	ldr.w	r3, [r2, #1032]	; 0x408
 10e:	f443 7380 	orr.w	r3, r3, #256	; 0x100
 112:	f8c2 3408 	str.w	r3, [r2, #1032]	; 0x408
 116:	4770      	bx	lr
 118:	50060000 	.word	0x50060000

0000011c <hau_multiple_single_dma_config>:
 11c:	4b06      	ldr	r3, [pc, #24]	; (138 <hau_multiple_single_dma_config+0x1c>)
 11e:	f8d3 2400 	ldr.w	r2, [r3, #1024]	; 0x400
 122:	f422 5200 	bic.w	r2, r2, #8192	; 0x2000
 126:	f8c3 2400 	str.w	r2, [r3, #1024]	; 0x400
 12a:	f8d3 2400 	ldr.w	r2, [r3, #1024]	; 0x400
 12e:	4302      	orrs	r2, r0
 130:	f8c3 2400 	str.w	r2, [r3, #1024]	; 0x400
 134:	4770      	bx	lr
 136:	bf00      	nop
 138:	50060000 	.word	0x50060000

0000013c <hau_dma_enable>:
 13c:	4a03      	ldr	r2, [pc, #12]	; (14c <hau_dma_enable+0x10>)
 13e:	f8d2 3400 	ldr.w	r3, [r2, #1024]	; 0x400
 142:	f043 0308 	orr.w	r3, r3, #8
 146:	f8c2 3400 	str.w	r3, [r2, #1024]	; 0x400
 14a:	4770      	bx	lr
 14c:	50060000 	.word	0x50060000

00000150 <hau_dma_disable>:
 150:	4a03      	ldr	r2, [pc, #12]	; (160 <hau_dma_disable+0x10>)
 152:	f8d2 3400 	ldr.w	r3, [r2, #1024]	; 0x400
 156:	f023 0308 	bic.w	r3, r3, #8
 15a:	f8c2 3400 	str.w	r3, [r2, #1024]	; 0x400
 15e:	4770      	bx	lr
 160:	50060000 	.word	0x50060000

00000164 <hau_flag_get>:
 164:	4b06      	ldr	r3, [pc, #24]	; (180 <hau_flag_get+0x1c>)
 166:	f410 5f80 	tst.w	r0, #4096	; 0x1000
 16a:	bf14      	ite	ne
 16c:	f8d3 3400 	ldrne.w	r3, [r3, #1024]	; 0x400
 170:	f8d3 3424 	ldreq.w	r3, [r3, #1060]	; 0x424
 174:	4203      	tst	r3, r0
 176:	bf14      	ite	ne
 178:	2001      	movne	r0, #1
 17a:	2000      	moveq	r0, #0
 17c:	4770      	bx	lr
 17e:	bf00      	nop
 180:	50060000 	.word	0x50060000

00000184 <hau_flag_clear>:
 184:	43c0      	mvns	r0, r0
 186:	4b02      	ldr	r3, [pc, #8]	; (190 <hau_flag_clear+0xc>)
 188:	f8c3 0424 	str.w	r0, [r3, #1060]	; 0x424
 18c:	4770      	bx	lr
 18e:	bf00      	nop
 190:	50060000 	.word	0x50060000

00000194 <hau_interrupt_enable>:
 194:	4a03      	ldr	r2, [pc, #12]	; (1a4 <hau_interrupt_enable+0x10>)
 196:	f8d2 3420 	ldr.w	r3, [r2, #1056]	; 0x420
 19a:	4303      	orrs	r3, r0
 19c:	f8c2 3420 	str.w	r3, [r2, #1056]	; 0x420
 1a0:	4770      	bx	lr
 1a2:	bf00      	nop
 1a4:	50060000 	.word	0x50060000

000001a8 <hau_interrupt_disable>:
 1a8:	4a03      	ldr	r2, [pc, #12]	; (1b8 <hau_interrupt_disable+0x10>)
 1aa:	f8d2 3420 	ldr.w	r3, [r2, #1056]	; 0x420
 1ae:	ea23 0300 	bic.w	r3, r3, r0
 1b2:	f8c2 3420 	str.w	r3, [r2, #1056]	; 0x420
 1b6:	4770      	bx	lr
 1b8:	50060000 	.word	0x50060000

000001bc <hau_interrupt_flag_get>:
 1bc:	4b05      	ldr	r3, [pc, #20]	; (1d4 <hau_interrupt_flag_get+0x18>)
 1be:	f8d3 2424 	ldr.w	r2, [r3, #1060]	; 0x424
 1c2:	f8d3 3420 	ldr.w	r3, [r3, #1056]	; 0x420
 1c6:	4013      	ands	r3, r2
 1c8:	4203      	tst	r3, r0
 1ca:	bf14      	ite	ne
 1cc:	2001      	movne	r0, #1
 1ce:	2000      	moveq	r0, #0
 1d0:	4770      	bx	lr
 1d2:	bf00      	nop
 1d4:	50060000 	.word	0x50060000

000001d8 <hau_interrupt_flag_clear>:
 1d8:	43c0      	mvns	r0, r0
 1da:	4b02      	ldr	r3, [pc, #8]	; (1e4 <hau_interrupt_flag_clear+0xc>)
 1dc:	f8c3 0424 	str.w	r0, [r3, #1060]	; 0x424
 1e0:	4770      	bx	lr
 1e2:	bf00      	nop
 1e4:	50060000 	.word	0x50060000

gd32f20x_hau_sha_md5.o:     file format elf32-littlearm


Disassembly of section .text:

00000000 <hau_sha_md5_digest_read>:
   0:	b510      	push	{r4, lr}
   2:	f5b0 2f80 	cmp.w	r0, #262144	; 0x40000
   6:	460c      	mov	r4, r1
   8:	b088      	sub	sp, #32
   a:	d037      	beq.n	7c <hau_sha_md5_digest_read+0x7c>
   c:	d804      	bhi.n	18 <hau_sha_md5_digest_read+0x18>
   e:	b310      	cbz	r0, 56 <hau_sha_md5_digest_read+0x56>
  10:	2880      	cmp	r0, #128	; 0x80
  12:	d04c      	beq.n	ae <hau_sha_md5_digest_read+0xae>
  14:	b008      	add	sp, #32
  16:	bd10      	pop	{r4, pc}
  18:	4b2d      	ldr	r3, [pc, #180]	; (d0 <hau_sha_md5_digest_read+0xd0>)
  1a:	4298      	cmp	r0, r3
  1c:	d1fa      	bne.n	14 <hau_sha_md5_digest_read+0x14>
  1e:	4668      	mov	r0, sp
  20:	f7ff fffe 	bl	0 <hau_digest_read>
  24:	9b00      	ldr	r3, [sp, #0]
  26:	ba1b      	rev	r3, r3
  28:	6023      	str	r3, [r4, #0]
  2a:	9b01      	ldr	r3, [sp, #4]
  2c:	ba1b      	rev	r3, r3
  2e:	6063      	str	r3, [r4, #4]
  30:	9b02      	ldr	r3, [sp, #8]
  32:	ba1b      	rev	r3, r3
  34:	60a3      	str	r3, [r4, #8]
  36:	9b03      	ldr	r3, [sp, #12]
  38:	ba1b      	rev	r3, r3
  3a:	60e3      	str	r3, [r4, #12]
  3c:	9b04      	ldr	r3, [sp, #16]
  3e:	ba1b      	rev	r3, r3
  40:	6123      	str	r3, [r4, #16]
  42:	9b05      	ldr	r3, [sp, #20]
  44:	ba1b      	rev	r3, r3
  46:	6163      	str	r3, [r4, #20]
  48:	9b06      	ldr	r3, [sp, #24]
  4a:	ba1b      	rev	r3, r3
  4c:	61a3      	str	r3, [r4, #24]
  4e:	9b07      	ldr	r3, [sp, #28]
  50:	ba1b      	rev	r3, r3
  52:	61e3      	str	r3, [r4, #28]
  54:	e7de      	b.n	14 <hau_sha_md5_digest_read+0x14>
  56:	4668      	mov	r0, sp
  58:	f7ff fffe 	bl	0 <hau_digest_read>
  5c:	9b00      	ldr	r3, [sp, #0]
  5e:	ba1b      	rev	r3, r3
  60:	6023      	str	r3, [r4, #0]
  62:	9b01      	ldr	r3, [sp, #4]
  64:	ba1b      	rev	r3, r3
  66:	6063      	str	r3, [r4, #4]
  68:	9b02      	ldr	r3, [sp, #8]
  6a:	ba1b      	rev	r3, r3
  6c:	60a3      	str	r3, [r4, #8]
  6e:	9b03      	ldr	r3, [sp, #12]
  70:	ba1b      	rev	r3, r3
  72:	60e3      	str	r3, [r4, #12]
  74:	9b04      	ldr	r3, [sp, #16]
  76:	ba1b      	rev	r3, r3
  78:	6123      	str	r3, [r4, #16]
  7a:	e7cb      	b.n	14 <hau_sha_md5_digest_read+0x14>
  7c:	4668      	mov	r0, sp
  7e:	f7ff fffe 	bl	0 <hau_digest_read>
  82:	9b00      	ldr	r3, [sp, #0]
  84:	ba1b      	rev	r3, r3
  86:	6023      	str	r3, [r4, #0]
  88:	9b01      	ldr	r3, [sp, #4]
  8a:	ba1b      	rev	r3, r3
  8c:	6063      	str	r3, [r4, #4]
  8e:	9b02      	ldr	r3, [sp, #8]
  90:	ba1b      	rev	r3, r3
  92:	60a3      	str	r3, [r4, #8]
  94:	9b03      	ldr	r3, [sp, #12]
  96:	ba1b      	rev	r3, r3
  98:	60e3      	str	r3, [r4, #12]
  9a:	9b04      	ldr	r3, [sp, #16]
  9c:	ba1b      	rev	r3, r3
  9e:	6123      	str	r3, [r4, #16]
  a0:	9b05      	ldr	r3, [sp, #20]
  a2:	ba1b      	rev	r3, r3
  a4:	6163      	str	r3, [r4, #20]
  a6:	9b06      	ldr	r3, [sp, #24]
  a8:	ba1b      	rev	r3, r3
  aa:	61a3      	str	r3, [r4, #24]
  ac:	e7b2      	b.n	14 <hau_sha_md5_digest_read+0x14>
  ae:	4668      	mov	r0, sp
  b0:	f7ff fffe 	bl	0 <hau_digest_read>
  b4:	9b00      	ldr	r3, [sp, #0]
  b6:	ba1b      	rev	r3, r3
  b8:	6023      	str	r3, [r4, #0]
  ba:	9b01      	ldr	r3, [sp, #4]
  bc:	ba1b      	rev	r3, r3
  be:	6063      	str	r3, [r4, #4]
  c0:	9b02      	ldr	r3, [sp, #8]
  c2:	ba1b      	rev	r3, r3
  c4:	60a3      	str	r3, [r4, #8]
  c6:	9b03      	ldr	r3, [sp, #12]
  c8:	ba1b      	rev	r3, r3
  ca:	60e3      	str	r3, [r4, #12]
  cc:	e7a2      	b.n	14 <hau_sha_md5_digest_read+0x14>
  ce:	bf00      	nop
  d0:	00040080 	.word	0x00040080

000000d4 <hau_hash_calculate>:
  d4:	e92d 41f0 	stmdb	sp!, {r4, r5, r6, r7, r8, lr}
  d8:	f04f 0800 	mov.w	r8, #0
  dc:	461f      	mov	r7, r3
  de:	f002 0303 	and.w	r3, r2, #3
  e2:	b086      	sub	sp, #24
  e4:	00db      	lsls	r3, r3, #3
  e6:	460e      	mov	r6, r1
  e8:	f8cd 8000 	str.w	r8, [sp]
  ec:	4604      	mov	r4, r0
  ee:	4615      	mov	r5, r2
  f0:	f8cd 8004 	str.w	r8, [sp, #4]
  f4:	9300      	str	r3, [sp, #0]
  f6:	f7ff fffe 	bl	0 <hau_deinit>
  fa:	2320      	movs	r3, #32
  fc:	a802      	add	r0, sp, #8
  fe:	e9cd 4802 	strd	r4, r8, [sp, #8]
 102:	9304      	str	r3, [sp, #16]
 104:	f7ff fffe 	bl	0 <hau_init>
 108:	9800      	ldr	r0, [sp, #0]
 10a:	f7ff fffe 	bl	0 <hau_last_word_validbits_num_config>
 10e:	46b0      	mov	r8, r6
 110:	eba8 0306 	sub.w	r3, r8, r6
 114:	429d      	cmp	r5, r3
 116:	d815      	bhi.n	144 <hau_hash_calculate+0x70>
 118:	f7ff fffe 	bl	0 <hau_digest_calculation_enable>
 11c:	2008      	movs	r0, #8
 11e:	f7ff fffe 	bl	0 <hau_flag_get>
 122:	9b01      	ldr	r3, [sp, #4]
 124:	3301      	adds	r3, #1
 126:	9301      	str	r3, [sp, #4]
 128:	9b01      	ldr	r3, [sp, #4]
 12a:	f5b3 3f80 	cmp.w	r3, #65536	; 0x10000
 12e:	d00e      	beq.n	14e <hau_hash_calculate+0x7a>
 130:	2800      	cmp	r0, #0
 132:	d1f3      	bne.n	11c <hau_hash_calculate+0x48>
 134:	4620      	mov	r0, r4
 136:	4639      	mov	r1, r7
 138:	f7ff ff62 	bl	0 <hau_sha_md5_digest_read>
 13c:	2001      	movs	r0, #1
 13e:	b006      	add	sp, #24
 140:	e8bd 81f0 	ldmia.w	sp!, {r4, r5, r6, r7, r8, pc}
 144:	f858 0b04 	ldr.w	r0, [r8], #4
 148:	f7ff fffe 	bl	0 <hau_data_write>
 14c:	e7e0      	b.n	110 <hau_hash_calculate+0x3c>
 14e:	2800      	cmp	r0, #0
 150:	d0f0      	beq.n	134 <hau_hash_calculate+0x60>
 152:	2000      	movs	r0, #0
 154:	e7f3      	b.n	13e <hau_hash_calculate+0x6a>

00000156 <hau_hmac_calculate>:
 156:	e92d 43f0 	stmdb	sp!, {r4, r5, r6, r7, r8, r9, lr}
 15a:	461f      	mov	r7, r3
 15c:	2300      	movs	r3, #0
 15e:	b087      	sub	sp, #28
 160:	f8dd 9038 	ldr.w	r9, [sp, #56]	; 0x38
 164:	f8ad 3000 	strh.w	r3, [sp]
 168:	f8ad 3002 	strh.w	r3, [sp, #2]
 16c:	9301      	str	r3, [sp, #4]
 16e:	f009 0303 	and.w	r3, r9, #3
 172:	00db      	lsls	r3, r3, #3
 174:	f8ad 3000 	strh.w	r3, [sp]
 178:	f002 0303 	and.w	r3, r2, #3
 17c:	4614      	mov	r4, r2
 17e:	00db      	lsls	r3, r3, #3
 180:	460d      	mov	r5, r1
 182:	4606      	mov	r6, r0
 184:	f8ad 3002 	strh.w	r3, [sp, #2]
 188:	f7ff fffe 	bl	0 <hau_deinit>
 18c:	2320      	movs	r3, #32
 18e:	2240      	movs	r2, #64	; 0x40
 190:	2c40      	cmp	r4, #64	; 0x40
 192:	e9cd 2303 	strd	r2, r3, [sp, #12]
 196:	bf94      	ite	ls
 198:	2300      	movls	r3, #0
 19a:	2301      	movhi	r3, #1
 19c:	a802      	add	r0, sp, #8
 19e:	041b      	lsls	r3, r3, #16
 1a0:	9305      	str	r3, [sp, #20]
 1a2:	9602      	str	r6, [sp, #8]
 1a4:	f7ff fffe 	bl	0 <hau_init>
 1a8:	f8bd 0002 	ldrh.w	r0, [sp, #2]
 1ac:	46a8      	mov	r8, r5
 1ae:	b280      	uxth	r0, r0
 1b0:	f7ff fffe 	bl	0 <hau_last_word_validbits_num_config>
 1b4:	eba8 0305 	sub.w	r3, r8, r5
 1b8:	429c      	cmp	r4, r3
 1ba:	d846      	bhi.n	24a <hau_hmac_calculate+0xf4>
 1bc:	f7ff fffe 	bl	0 <hau_digest_calculation_enable>
 1c0:	2008      	movs	r0, #8
 1c2:	f7ff fffe 	bl	0 <hau_flag_get>
 1c6:	9b01      	ldr	r3, [sp, #4]
 1c8:	3301      	adds	r3, #1
 1ca:	9301      	str	r3, [sp, #4]
 1cc:	9b01      	ldr	r3, [sp, #4]
 1ce:	f5b3 3f80 	cmp.w	r3, #65536	; 0x10000
 1d2:	d03f      	beq.n	254 <hau_hmac_calculate+0xfe>
 1d4:	2800      	cmp	r0, #0
 1d6:	d1f3      	bne.n	1c0 <hau_hmac_calculate+0x6a>
 1d8:	f8bd 0000 	ldrh.w	r0, [sp]
 1dc:	46b8      	mov	r8, r7
 1de:	b280      	uxth	r0, r0
 1e0:	f7ff fffe 	bl	0 <hau_last_word_validbits_num_config>
 1e4:	eba8 0307 	sub.w	r3, r8, r7
 1e8:	4599      	cmp	r9, r3
 1ea:	d839      	bhi.n	260 <hau_hmac_calculate+0x10a>
 1ec:	f7ff fffe 	bl	0 <hau_digest_calculation_enable>
 1f0:	2300      	movs	r3, #0
 1f2:	9301      	str	r3, [sp, #4]
 1f4:	2008      	movs	r0, #8
 1f6:	f7ff fffe 	bl	0 <hau_flag_get>
 1fa:	9b01      	ldr	r3, [sp, #4]
 1fc:	3301      	adds	r3, #1
 1fe:	9301      	str	r3, [sp, #4]
 200:	9b01      	ldr	r3, [sp, #4]
 202:	f5b3 3f80 	cmp.w	r3, #65536	; 0x10000
 206:	d030      	beq.n	26a <hau_hmac_calculate+0x114>
 208:	2800      	cmp	r0, #0
 20a:	d1f3      	bne.n	1f4 <hau_hmac_calculate+0x9e>
 20c:	f8bd 0002 	ldrh.w	r0, [sp, #2]
 210:	462f      	mov	r7, r5
 212:	b280      	uxth	r0, r0
 214:	f7ff fffe 	bl	0 <hau_last_word_validbits_num_config>
 218:	1b7b      	subs	r3, r7, r5
 21a:	429c      	cmp	r4, r3
 21c:	d828      	bhi.n	270 <hau_hmac_calculate+0x11a>
 21e:	f7ff fffe 	bl	0 <hau_digest_calculation_enable>
 222:	2300      	movs	r3, #0
 224:	9301      	str	r3, [sp, #4]
 226:	2008      	movs	r0, #8
 228:	f7ff fffe 	bl	0 <hau_flag_get>
 22c:	9b01      	ldr	r3, [sp, #4]
 22e:	3301      	adds	r3, #1
 230:	9301      	str	r3, [sp, #4]
 232:	9b01      	ldr	r3, [sp, #4]
 234:	f5b3 3f80 	cmp.w	r3, #65536	; 0x10000
 238:	d01f      	beq.n	27a <hau_hmac_calculate+0x124>
 23a:	2800      	cmp	r0, #0
 23c:	d1f3      	bne.n	226 <hau_hmac_calculate+0xd0>
 23e:	4630      	mov	r0, r6
 240:	990f      	ldr	r1, [sp, #60]	; 0x3c
 242:	f7ff fedd 	bl	0 <hau_sha_md5_digest_read>
 246:	2001      	movs	r0, #1
 248:	e007      	b.n	25a <hau_hmac_calculate+0x104>
 24a:	f858 0b04 	ldr.w	r0, [r8], #4
 24e:	f7ff fffe 	bl	0 <hau_data_write>
 252:	e7af      	b.n	1b4 <hau_hmac_calculate+0x5e>
 254:	2800      	cmp	r0, #0
 256:	d0bf      	beq.n	1d8 <hau_hmac_calculate+0x82>
 258:	2000      	movs	r0, #0
 25a:	b007      	add	sp, #28
 25c:	e8bd 83f0 	ldmia.w	sp!, {r4, r5, r6, r7, r8, r9, pc}
 260:	f858 0b04 	ldr.w	r0, [r8], #4
 264:	f7ff fffe 	bl	0 <hau_data_write>
 268:	e7bc      	b.n	1e4 <hau_hmac_calculate+0x8e>
 26a:	2800      	cmp	r0, #0
 26c:	d1f4      	bne.n	258 <hau_hmac_calculate+0x102>
 26e:	e7cd      	b.n	20c <hau_hmac_calculate+0xb6>
 270:	f857 0b04 	ldr.w	r0, [r7], #4
 274:	f7ff fffe 	bl	0 <hau_data_write>
 278:	e7ce      	b.n	218 <hau_hmac_calculate+0xc2>
 27a:	2800      	cmp	r0, #0
 27c:	d1ec      	bne.n	258 <hau_hmac_calculate+0x102>
 27e:	e7de      	b.n	23e <hau_hmac_calculate+0xe8>

00000280 <hau_hash_sha_1>:
 280:	4613      	mov	r3, r2
 282:	460a      	mov	r2, r1
 284:	4601      	mov	r1, r0
 286:	2000      	movs	r0, #0
 288:	e724      	b.n	d4 <hau_hash_calculate>

0000028a <hau_hmac_sha_1>:
 28a:	b513      	push	{r0, r1, r4, lr}
 28c:	9c04      	ldr	r4, [sp, #16]
 28e:	e9cd 3400 	strd	r3, r4, [sp]
 292:	4613      	mov	r3, r2
 294:	460a      	mov	r2, r1
 296:	4601      	mov	r1, r0
 298:	2000      	movs	r0, #0
 29a:	f7ff ff5c 	bl	156 <hau_hmac_calculate>
 29e:	b002      	add	sp, #8
 2a0:	bd10      	pop	{r4, pc}

000002a2 <hau_hash_sha_224>:
 2a2:	4613      	mov	r3, r2
 2a4:	460a      	mov	r2, r1
 2a6:	4601      	mov	r1, r0
 2a8:	f44f 2080 	mov.w	r0, #262144	; 0x40000
 2ac:	e712      	b.n	d4 <hau_hash_calculate>

000002ae <hau_hmac_sha_224>:
 2ae:	b513      	push	{r0, r1, r4, lr}
 2b0:	9c04      	ldr	r4, [sp, #16]
 2b2:	e9cd 3400 	strd	r3, r4, [sp]
 2b6:	4613      	mov	r3, r2
 2b8:	460a      	mov	r2, r1
 2ba:	4601      	mov	r1, r0
 2bc:	f44f 2080 	mov.w	r0, #262144	; 0x40000
 2c0:	f7ff ff49 	bl	156 <hau_hmac_calculate>
 2c4:	b002      	add	sp, #8
 2c6:	bd10      	pop	{r4, pc}

000002c8 <hau_hash_sha_256>:
 2c8:	4613      	mov	r3, r2
 2ca:	460a      	mov	r2, r1
 2cc:	4601      	mov	r1, r0
 2ce:	4801      	ldr	r0, [pc, #4]	; (2d4 <hau_hash_sha_256+0xc>)
 2d0:	e700      	b.n	d4 <hau_hash_calculate>
 2d2:	bf00      	nop
 2d4:	00040080 	.word	0x00040080

000002d8 <hau_hmac_sha_256>:
 2d8:	b513      	push	{r0, r1, r4, lr}
 2da:	9c04      	ldr	r4, [sp, #16]
 2dc:	e9cd 3400 	strd	r3, r4, [sp]
 2e0:	4613      	mov	r3, r2
 2e2:	460a      	mov	r2, r1
 2e4:	4601      	mov	r1, r0
 2e6:	4802      	ldr	r0, [pc, #8]	; (2f0 <hau_hmac_sha_256+0x18>)
 2e8:	f7ff ff35 	bl	156 <hau_hmac_calculate>
 2ec:	b002      	add	sp, #8
 2ee:	bd10      	pop	{r4, pc}
 2f0:	00040080 	.word	0x00040080

000002f4 <hau_hash_md5>:
 2f4:	4613      	mov	r3, r2
 2f6:	460a      	mov	r2, r1
 2f8:	4601      	mov	r1, r0
 2fa:	2080      	movs	r0, #128	; 0x80
 2fc:	e6ea      	b.n	d4 <hau_hash_calculate>

000002fe <hau_hmac_md5>:
 2fe:	b513      	push	{r0, r1, r4, lr}
 300:	9c04      	ldr	r4, [sp, #16]
 302:	e9cd 3400 	strd	r3, r4, [sp]
 306:	4613      	mov	r3, r2
 308:	460a      	mov	r2, r1
 30a:	4601      	mov	r1, r0
 30c:	2080      	movs	r0, #128	; 0x80
 30e:	f7ff ff22 	bl	156 <hau_hmac_calculate>
 312:	b002      	add	sp, #8
 314:	bd10      	pop	{r4, pc}
 316:	bf00      	nop

gd32f20x_i2c.o:     file format elf32-littlearm


Disassembly of section .text:

00000000 <i2c_deinit>:
   0:	b508      	push	{r3, lr}
   2:	4b12      	ldr	r3, [pc, #72]	; (4c <i2c_deinit+0x4c>)
   4:	4298      	cmp	r0, r3
   6:	d011      	beq.n	2c <i2c_deinit+0x2c>
   8:	f503 43d0 	add.w	r3, r3, #26624	; 0x6800
   c:	4298      	cmp	r0, r3
   e:	d014      	beq.n	3a <i2c_deinit+0x3a>
  10:	f5a3 43d8 	sub.w	r3, r3, #27648	; 0x6c00
  14:	4298      	cmp	r0, r3
  16:	d117      	bne.n	48 <i2c_deinit+0x48>
  18:	f240 4015 	movw	r0, #1045	; 0x415
  1c:	f7ff fffe 	bl	0 <rcu_periph_reset_enable>
  20:	f240 4015 	movw	r0, #1045	; 0x415
  24:	e8bd 4008 	ldmia.w	sp!, {r3, lr}
  28:	f7ff bffe 	b.w	0 <rcu_periph_reset_disable>
  2c:	f240 4016 	movw	r0, #1046	; 0x416
  30:	f7ff fffe 	bl	0 <rcu_periph_reset_enable>
  34:	f240 4016 	movw	r0, #1046	; 0x416
  38:	e7f4      	b.n	24 <i2c_deinit+0x24>
  3a:	f641 6017 	movw	r0, #7703	; 0x1e17
  3e:	f7ff fffe 	bl	0 <rcu_periph_reset_enable>
  42:	f641 6017 	movw	r0, #7703	; 0x1e17
  46:	e7ed      	b.n	24 <i2c_deinit+0x24>
  48:	bd08      	pop	{r3, pc}
  4a:	bf00      	nop
  4c:	40005800 	.word	0x40005800

00000050 <i2c_clock_config>:
  50:	b5f8      	push	{r3, r4, r5, r6, r7, lr}
  52:	4605      	mov	r5, r0
  54:	2002      	movs	r0, #2
  56:	460c      	mov	r4, r1
  58:	4617      	mov	r7, r2
  5a:	f7ff fffe 	bl	0 <rcu_clock_freq_get>
  5e:	4603      	mov	r3, r0
  60:	4828      	ldr	r0, [pc, #160]	; (104 <i2c_clock_config+0xb4>)
  62:	4a29      	ldr	r2, [pc, #164]	; (108 <i2c_clock_config+0xb8>)
  64:	fbb3 f0f0 	udiv	r0, r3, r0
  68:	4293      	cmp	r3, r2
  6a:	bf94      	ite	ls
  6c:	4601      	movls	r1, r0
  6e:	213f      	movhi	r1, #63	; 0x3f
  70:	686e      	ldr	r6, [r5, #4]
  72:	4a26      	ldr	r2, [pc, #152]	; (10c <i2c_clock_config+0xbc>)
  74:	f026 063f 	bic.w	r6, r6, #63	; 0x3f
  78:	430e      	orrs	r6, r1
  7a:	4294      	cmp	r4, r2
  7c:	606e      	str	r6, [r5, #4]
  7e:	d816      	bhi.n	ae <i2c_clock_config+0x5e>
  80:	3001      	adds	r0, #1
  82:	283e      	cmp	r0, #62	; 0x3e
  84:	d90d      	bls.n	a2 <i2c_clock_config+0x52>
  86:	223f      	movs	r2, #63	; 0x3f
  88:	622a      	str	r2, [r5, #32]
  8a:	0064      	lsls	r4, r4, #1
  8c:	fbb3 f4f4 	udiv	r4, r3, r4
  90:	2c04      	cmp	r4, #4
  92:	bf38      	it	cc
  94:	2404      	movcc	r4, #4
  96:	69ea      	ldr	r2, [r5, #28]
  98:	f3c4 040b 	ubfx	r4, r4, #0, #12
  9c:	4314      	orrs	r4, r2
  9e:	61ec      	str	r4, [r5, #28]
  a0:	bdf8      	pop	{r3, r4, r5, r6, r7, pc}
  a2:	2802      	cmp	r0, #2
  a4:	d801      	bhi.n	aa <i2c_clock_config+0x5a>
  a6:	2202      	movs	r2, #2
  a8:	e7ee      	b.n	88 <i2c_clock_config+0x38>
  aa:	6228      	str	r0, [r5, #32]
  ac:	e7ed      	b.n	8a <i2c_clock_config+0x3a>
  ae:	4a18      	ldr	r2, [pc, #96]	; (110 <i2c_clock_config+0xc0>)
  b0:	4294      	cmp	r4, r2
  b2:	d8f5      	bhi.n	a0 <i2c_clock_config+0x50>
  b4:	f44f 7296 	mov.w	r2, #300	; 0x12c
  b8:	4351      	muls	r1, r2
  ba:	f44f 727a 	mov.w	r2, #1000	; 0x3e8
  be:	fbb1 f1f2 	udiv	r1, r1, r2
  c2:	3101      	adds	r1, #1
  c4:	6229      	str	r1, [r5, #32]
  c6:	b9a7      	cbnz	r7, f2 <i2c_clock_config+0xa2>
  c8:	eb04 0444 	add.w	r4, r4, r4, lsl #1
  cc:	fbb3 f4f4 	udiv	r4, r3, r4
  d0:	69eb      	ldr	r3, [r5, #28]
  d2:	f423 4380 	bic.w	r3, r3, #16384	; 0x4000
  d6:	61eb      	str	r3, [r5, #28]
  d8:	f3c4 030b 	ubfx	r3, r4, #0, #12
  dc:	b90b      	cbnz	r3, e2 <i2c_clock_config+0x92>
  de:	f044 0401 	orr.w	r4, r4, #1
  e2:	69eb      	ldr	r3, [r5, #28]
  e4:	f443 4300 	orr.w	r3, r3, #32768	; 0x8000
  e8:	61eb      	str	r3, [r5, #28]
  ea:	69eb      	ldr	r3, [r5, #28]
  ec:	4323      	orrs	r3, r4
  ee:	61eb      	str	r3, [r5, #28]
  f0:	e7d6      	b.n	a0 <i2c_clock_config+0x50>
  f2:	2219      	movs	r2, #25
  f4:	4354      	muls	r4, r2
  f6:	fbb3 f4f4 	udiv	r4, r3, r4
  fa:	69eb      	ldr	r3, [r5, #28]
  fc:	f443 4380 	orr.w	r3, r3, #16384	; 0x4000
 100:	e7e9      	b.n	d6 <i2c_clock_config+0x86>
 102:	bf00      	nop
 104:	000f4240 	.word	0x000f4240
 108:	03c14dbf 	.word	0x03c14dbf
 10c:	000186a0 	.word	0x000186a0
 110:	00061a80 	.word	0x00061a80

00000114 <i2c_mode_addr_config>:
 114:	b510      	push	{r4, lr}
 116:	6804      	ldr	r4, [r0, #0]
 118:	f3c3 0309 	ubfx	r3, r3, #0, #10
 11c:	f024 0402 	bic.w	r4, r4, #2
 120:	430c      	orrs	r4, r1
 122:	4313      	orrs	r3, r2
 124:	6004      	str	r4, [r0, #0]
 126:	6083      	str	r3, [r0, #8]
 128:	bd10      	pop	{r4, pc}

0000012a <i2c_smbus_type_config>:
 12a:	6803      	ldr	r3, [r0, #0]
 12c:	2908      	cmp	r1, #8
 12e:	bf0c      	ite	eq
 130:	f043 0308 	orreq.w	r3, r3, #8
 134:	f023 0308 	bicne.w	r3, r3, #8
 138:	6003      	str	r3, [r0, #0]
 13a:	4770      	bx	lr

0000013c <i2c_ack_config>:
 13c:	6803      	ldr	r3, [r0, #0]
 13e:	2901      	cmp	r1, #1
 140:	bf0c      	ite	eq
 142:	f443 6380 	orreq.w	r3, r3, #1024	; 0x400
 146:	f423 6380 	bicne.w	r3, r3, #1024	; 0x400
 14a:	6003      	str	r3, [r0, #0]
 14c:	4770      	bx	lr

0000014e <i2c_ackpos_config>:
 14e:	6803      	ldr	r3, [r0, #0]
 150:	b919      	cbnz	r1, 15a <i2c_ackpos_config+0xc>
 152:	f443 6300 	orr.w	r3, r3, #2048	; 0x800
 156:	6003      	str	r3, [r0, #0]
 158:	4770      	bx	lr
 15a:	f423 6300 	bic.w	r3, r3, #2048	; 0x800
 15e:	e7fa      	b.n	156 <i2c_ackpos_config+0x8>

00000160 <i2c_master_addressing>:
 160:	3202      	adds	r2, #2
 162:	bf0c      	ite	eq
 164:	f021 0101 	biceq.w	r1, r1, #1
 168:	f041 0101 	orrne.w	r1, r1, #1
 16c:	6101      	str	r1, [r0, #16]
 16e:	4770      	bx	lr

00000170 <i2c_dualaddr_enable>:
 170:	f001 01fe 	and.w	r1, r1, #254	; 0xfe
 174:	f041 0101 	orr.w	r1, r1, #1
 178:	60c1      	str	r1, [r0, #12]
 17a:	4770      	bx	lr

0000017c <i2c_dualaddr_disable>:
 17c:	68c3      	ldr	r3, [r0, #12]
 17e:	f023 0301 	bic.w	r3, r3, #1
 182:	60c3      	str	r3, [r0, #12]
 184:	4770      	bx	lr

00000186 <i2c_enable>:
 186:	6803      	ldr	r3, [r0, #0]
 188:	f043 0301 	orr.w	r3, r3, #1
 18c:	6003      	str	r3, [r0, #0]
 18e:	4770      	bx	lr

00000190 <i2c_disable>:
 190:	6803      	ldr	r3, [r0, #0]
 192:	f023 0301 	bic.w	r3, r3, #1
 196:	6003      	str	r3, [r0, #0]
 198:	4770      	bx	lr

0000019a <i2c_start_on_bus>:
 19a:	6803      	ldr	r3, [r0, #0]
 19c:	f443 7380 	orr.w	r3, r3, #256	; 0x100
 1a0:	6003      	str	r3, [r0, #0]
 1a2:	4770      	bx	lr

000001a4 <i2c_stop_on_bus>:
 1a4:	6803      	ldr	r3, [r0, #0]
 1a6:	f443 7300 	orr.w	r3, r3, #512	; 0x200
 1aa:	6003      	str	r3, [r0, #0]
 1ac:	4770      	bx	lr

000001ae <i2c_data_transmit>:
 1ae:	6101      	str	r1, [r0, #16]
 1b0:	4770      	bx	lr

000001b2 <i2c_data_receive>:
 1b2:	6900      	ldr	r0, [r0, #16]
 1b4:	b2c0      	uxtb	r0, r0
 1b6:	4770      	bx	lr

000001b8 <i2c_dma_enable>:
 1b8:	6843      	ldr	r3, [r0, #4]
 1ba:	f423 6300 	bic.w	r3, r3, #2048	; 0x800
 1be:	430b      	orrs	r3, r1
 1c0:	6043      	str	r3, [r0, #4]
 1c2:	4770      	bx	lr

000001c4 <i2c_dma_last_transfer_config>:
 1c4:	6843      	ldr	r3, [r0, #4]
 1c6:	f423 5380 	bic.w	r3, r3, #4096	; 0x1000
 1ca:	430b      	orrs	r3, r1
 1cc:	6043      	str	r3, [r0, #4]
 1ce:	4770      	bx	lr

000001d0 <i2c_stretch_scl_low_config>:
 1d0:	6803      	ldr	r3, [r0, #0]
 1d2:	f023 0380 	bic.w	r3, r3, #128	; 0x80
 1d6:	430b      	orrs	r3, r1
 1d8:	6003      	str	r3, [r0, #0]
 1da:	4770      	bx	lr

000001dc <i2c_slave_response_to_gcall_config>:
 1dc:	6803      	ldr	r3, [r0, #0]
 1de:	f023 0340 	bic.w	r3, r3, #64	; 0x40
 1e2:	430b      	orrs	r3, r1
 1e4:	6003      	str	r3, [r0, #0]
 1e6:	4770      	bx	lr

000001e8 <i2c_software_reset_config>:
 1e8:	6803      	ldr	r3, [r0, #0]
 1ea:	f423 4300 	bic.w	r3, r3, #32768	; 0x8000
 1ee:	430b      	orrs	r3, r1
 1f0:	6003      	str	r3, [r0, #0]
 1f2:	4770      	bx	lr

000001f4 <i2c_pec_enable>:
 1f4:	6803      	ldr	r3, [r0, #0]
 1f6:	f023 0320 	bic.w	r3, r3, #32
 1fa:	430b      	orrs	r3, r1
 1fc:	6003      	str	r3, [r0, #0]
 1fe:	4770      	bx	lr

00000200 <i2c_pec_transfer_enable>:
 200:	6803      	ldr	r3, [r0, #0]
 202:	f423 5380 	bic.w	r3, r3, #4096	; 0x1000
 206:	430b      	orrs	r3, r1
 208:	6003      	str	r3, [r0, #0]
 20a:	4770      	bx	lr

0000020c <i2c_pec_value_get>:
 20c:	6980      	ldr	r0, [r0, #24]
 20e:	f3c0 2007 	ubfx	r0, r0, #8, #8
 212:	4770      	bx	lr

00000214 <i2c_smbus_issue_alert>:
 214:	6803      	ldr	r3, [r0, #0]
 216:	f423 5300 	bic.w	r3, r3, #8192	; 0x2000
 21a:	430b      	orrs	r3, r1
 21c:	6003      	str	r3, [r0, #0]
 21e:	4770      	bx	lr

00000220 <i2c_smbus_arp_enable>:
 220:	6803      	ldr	r3, [r0, #0]
 222:	f023 0310 	bic.w	r3, r3, #16
 226:	430b      	orrs	r3, r1
 228:	6003      	str	r3, [r0, #0]
 22a:	4770      	bx	lr

0000022c <i2c_flag_get>:
 22c:	098b      	lsrs	r3, r1, #6
 22e:	5818      	ldr	r0, [r3, r0]
 230:	f001 011f 	and.w	r1, r1, #31
 234:	40c8      	lsrs	r0, r1
 236:	f000 0001 	and.w	r0, r0, #1
 23a:	4770      	bx	lr

0000023c <i2c_flag_clear>:
 23c:	f240 5301 	movw	r3, #1281	; 0x501
 240:	4299      	cmp	r1, r3
 242:	b510      	push	{r4, lr}
 244:	d102      	bne.n	24c <i2c_flag_clear+0x10>
 246:	6943      	ldr	r3, [r0, #20]
 248:	6983      	ldr	r3, [r0, #24]
 24a:	bd10      	pop	{r4, pc}
 24c:	2201      	movs	r2, #1
 24e:	098c      	lsrs	r4, r1, #6
 250:	5823      	ldr	r3, [r4, r0]
 252:	f001 011f 	and.w	r1, r1, #31
 256:	408a      	lsls	r2, r1
 258:	ea23 0302 	bic.w	r3, r3, r2
 25c:	5023      	str	r3, [r4, r0]
 25e:	e7f4      	b.n	24a <i2c_flag_clear+0xe>

00000260 <i2c_interrupt_enable>:
 260:	2301      	movs	r3, #1
 262:	b510      	push	{r4, lr}
 264:	098a      	lsrs	r2, r1, #6
 266:	5814      	ldr	r4, [r2, r0]
 268:	f001 011f 	and.w	r1, r1, #31
 26c:	408b      	lsls	r3, r1
 26e:	4323      	orrs	r3, r4
 270:	5013      	str	r3, [r2, r0]
 272:	bd10      	pop	{r4, pc}

00000274 <i2c_interrupt_disable>:
 274:	2201      	movs	r2, #1
 276:	b510      	push	{r4, lr}
 278:	098c      	lsrs	r4, r1, #6
 27a:	5823      	ldr	r3, [r4, r0]
 27c:	f001 011f 	and.w	r1, r1, #31
 280:	408a      	lsls	r2, r1
 282:	ea23 0302 	bic.w	r3, r3, r2
 286:	5023      	str	r3, [r4, r0]
 288:	bd10      	pop	{r4, pc}

0000028a <i2c_interrupt_flag_get>:
 28a:	f3c1 1389 	ubfx	r3, r1, #6, #10
 28e:	b530      	push	{r4, r5, lr}
 290:	6844      	ldr	r4, [r0, #4]
 292:	581d      	ldr	r5, [r3, r0]
 294:	2301      	movs	r3, #1
 296:	f001 021f 	and.w	r2, r1, #31
 29a:	fa03 f202 	lsl.w	r2, r3, r2
 29e:	402a      	ands	r2, r5
 2a0:	0d8d      	lsrs	r5, r1, #22
 2a2:	582d      	ldr	r5, [r5, r0]
 2a4:	f3c1 4004 	ubfx	r0, r1, #16, #5
 2a8:	fa03 f000 	lsl.w	r0, r3, r0
 2ac:	4b0b      	ldr	r3, [pc, #44]	; (2dc <i2c_interrupt_flag_get+0x52>)
 2ae:	f421 3180 	bic.w	r1, r1, #65536	; 0x10000
 2b2:	4299      	cmp	r1, r3
 2b4:	ea00 0005 	and.w	r0, r0, r5
 2b8:	d107      	bne.n	2ca <i2c_interrupt_flag_get+0x40>
 2ba:	b152      	cbz	r2, 2d2 <i2c_interrupt_flag_get+0x48>
 2bc:	f414 6480 	ands.w	r4, r4, #1024	; 0x400
 2c0:	d009      	beq.n	2d6 <i2c_interrupt_flag_get+0x4c>
 2c2:	3800      	subs	r0, #0
 2c4:	bf18      	it	ne
 2c6:	2001      	movne	r0, #1
 2c8:	bd30      	pop	{r4, r5, pc}
 2ca:	2800      	cmp	r0, #0
 2cc:	d0fc      	beq.n	2c8 <i2c_interrupt_flag_get+0x3e>
 2ce:	1e10      	subs	r0, r2, #0
 2d0:	e7f8      	b.n	2c4 <i2c_interrupt_flag_get+0x3a>
 2d2:	4610      	mov	r0, r2
 2d4:	e7f8      	b.n	2c8 <i2c_interrupt_flag_get+0x3e>
 2d6:	4620      	mov	r0, r4
 2d8:	e7f6      	b.n	2c8 <i2c_interrupt_flag_get+0x3e>
 2da:	bf00      	nop
 2dc:	05060109 	.word	0x05060109

000002e0 <i2c_interrupt_flag_clear>:
 2e0:	4b08      	ldr	r3, [pc, #32]	; (304 <i2c_interrupt_flag_clear+0x24>)
 2e2:	b510      	push	{r4, lr}
 2e4:	4299      	cmp	r1, r3
 2e6:	d102      	bne.n	2ee <i2c_interrupt_flag_clear+0xe>
 2e8:	6943      	ldr	r3, [r0, #20]
 2ea:	6983      	ldr	r3, [r0, #24]
 2ec:	bd10      	pop	{r4, pc}
 2ee:	2201      	movs	r2, #1
 2f0:	0d8c      	lsrs	r4, r1, #22
 2f2:	5823      	ldr	r3, [r4, r0]
 2f4:	f3c1 4104 	ubfx	r1, r1, #16, #5
 2f8:	408a      	lsls	r2, r1
 2fa:	ea23 0302 	bic.w	r3, r3, r2
 2fe:	5023      	str	r3, [r4, r0]
 300:	e7f4      	b.n	2ec <i2c_interrupt_flag_clear+0xc>
 302:	bf00      	nop
 304:	05010109 	.word	0x05010109

gd32f20x_misc.o:     file format elf32-littlearm


Disassembly of section .text:

00000000 <nvic_priority_group_set>:
   0:	4b03      	ldr	r3, [pc, #12]	; (10 <nvic_priority_group_set+0x10>)
   2:	f040 60bf 	orr.w	r0, r0, #100139008	; 0x5f80000
   6:	f440 3000 	orr.w	r0, r0, #131072	; 0x20000
   a:	60d8      	str	r0, [r3, #12]
   c:	4770      	bx	lr
   e:	bf00      	nop
  10:	e000ed00 	.word	0xe000ed00

00000014 <nvic_irq_enable>:
  14:	b510      	push	{r4, lr}
  16:	4c1d      	ldr	r4, [pc, #116]	; (8c <nvic_irq_enable+0x78>)
  18:	68e3      	ldr	r3, [r4, #12]
  1a:	f403 63e0 	and.w	r3, r3, #1792	; 0x700
  1e:	f5b3 6fa0 	cmp.w	r3, #1280	; 0x500
  22:	d008      	beq.n	36 <nvic_irq_enable+0x22>
  24:	d820      	bhi.n	68 <nvic_irq_enable+0x54>
  26:	f5b3 7f40 	cmp.w	r3, #768	; 0x300
  2a:	d026      	beq.n	7a <nvic_irq_enable+0x66>
  2c:	f5b3 6f80 	cmp.w	r3, #1024	; 0x400
  30:	d026      	beq.n	80 <nvic_irq_enable+0x6c>
  32:	4b17      	ldr	r3, [pc, #92]	; (90 <nvic_irq_enable+0x7c>)
  34:	60e3      	str	r3, [r4, #12]
  36:	2302      	movs	r3, #2
  38:	461c      	mov	r4, r3
  3a:	f1c4 0404 	rsb	r4, r4, #4
  3e:	40a1      	lsls	r1, r4
  40:	f1c3 0404 	rsb	r4, r3, #4
  44:	230f      	movs	r3, #15
  46:	40e3      	lsrs	r3, r4
  48:	4013      	ands	r3, r2
  4a:	430b      	orrs	r3, r1
  4c:	4a11      	ldr	r2, [pc, #68]	; (94 <nvic_irq_enable+0x80>)
  4e:	011b      	lsls	r3, r3, #4
  50:	1811      	adds	r1, r2, r0
  52:	b2db      	uxtb	r3, r3
  54:	f881 3300 	strb.w	r3, [r1, #768]	; 0x300
  58:	2301      	movs	r3, #1
  5a:	0941      	lsrs	r1, r0, #5
  5c:	f000 001f 	and.w	r0, r0, #31
  60:	4083      	lsls	r3, r0
  62:	f842 3021 	str.w	r3, [r2, r1, lsl #2]
  66:	bd10      	pop	{r4, pc}
  68:	f5b3 6fc0 	cmp.w	r3, #1536	; 0x600
  6c:	d00b      	beq.n	86 <nvic_irq_enable+0x72>
  6e:	f5b3 6fe0 	cmp.w	r3, #1792	; 0x700
  72:	d1de      	bne.n	32 <nvic_irq_enable+0x1e>
  74:	2304      	movs	r3, #4
  76:	2400      	movs	r4, #0
  78:	e7df      	b.n	3a <nvic_irq_enable+0x26>
  7a:	2300      	movs	r3, #0
  7c:	2404      	movs	r4, #4
  7e:	e7dc      	b.n	3a <nvic_irq_enable+0x26>
  80:	2301      	movs	r3, #1
  82:	2403      	movs	r4, #3
  84:	e7d9      	b.n	3a <nvic_irq_enable+0x26>
  86:	2303      	movs	r3, #3
  88:	2401      	movs	r4, #1
  8a:	e7d6      	b.n	3a <nvic_irq_enable+0x26>
  8c:	e000ed00 	.word	0xe000ed00
  90:	05fa0500 	.word	0x05fa0500
  94:	e000e100 	.word	0xe000e100

00000098 <nvic_irq_disable>:
  98:	2201      	movs	r2, #1
  9a:	0943      	lsrs	r3, r0, #5
  9c:	4903      	ldr	r1, [pc, #12]	; (ac <nvic_irq_disable+0x14>)
  9e:	f000 001f 	and.w	r0, r0, #31
  a2:	4082      	lsls	r2, r0
  a4:	3320      	adds	r3, #32
  a6:	f841 2023 	str.w	r2, [r1, r3, lsl #2]
  aa:	4770      	bx	lr
  ac:	e000e100 	.word	0xe000e100

000000b0 <nvic_vector_table_set>:
  b0:	f021 4160 	bic.w	r1, r1, #3758096384	; 0xe0000000
  b4:	4b02      	ldr	r3, [pc, #8]	; (c0 <nvic_vector_table_set+0x10>)
  b6:	f021 017f 	bic.w	r1, r1, #127	; 0x7f
  ba:	4301      	orrs	r1, r0
  bc:	6099      	str	r1, [r3, #8]
  be:	4770      	bx	lr
  c0:	e000ed00 	.word	0xe000ed00

000000c4 <system_lowpower_set>:
  c4:	4b02      	ldr	r3, [pc, #8]	; (d0 <system_lowpower_set+0xc>)
  c6:	691a      	ldr	r2, [r3, #16]
  c8:	4310      	orrs	r0, r2
  ca:	6118      	str	r0, [r3, #16]
  cc:	4770      	bx	lr
  ce:	bf00      	nop
  d0:	e000ed00 	.word	0xe000ed00

000000d4 <system_lowpower_reset>:
  d4:	4a02      	ldr	r2, [pc, #8]	; (e0 <system_lowpower_reset+0xc>)
  d6:	6913      	ldr	r3, [r2, #16]
  d8:	ea23 0300 	bic.w	r3, r3, r0
  dc:	6113      	str	r3, [r2, #16]
  de:	4770      	bx	lr
  e0:	e000ed00 	.word	0xe000ed00

000000e4 <systick_clksource_set>:
  e4:	f04f 23e0 	mov.w	r3, #3758153728	; 0xe000e000
  e8:	691a      	ldr	r2, [r3, #16]
  ea:	2804      	cmp	r0, #4
  ec:	bf0c      	ite	eq
  ee:	f042 0204 	orreq.w	r2, r2, #4
  f2:	f022 0204 	bicne.w	r2, r2, #4
  f6:	611a      	str	r2, [r3, #16]
  f8:	4770      	bx	lr
  fa:	bf00      	nop

gd32f20x_pmu.o:     file format elf32-littlearm


Disassembly of section .text:

00000000 <pmu_deinit>:
   0:	b508      	push	{r3, lr}
   2:	f240 401c 	movw	r0, #1052	; 0x41c
   6:	f7ff fffe 	bl	0 <rcu_periph_reset_enable>
   a:	e8bd 4008 	ldmia.w	sp!, {r3, lr}
   e:	f240 401c 	movw	r0, #1052	; 0x41c
  12:	f7ff bffe 	b.w	0 <rcu_periph_reset_disable>

00000016 <pmu_lvd_select>:
  16:	4b08      	ldr	r3, [pc, #32]	; (38 <pmu_lvd_select+0x22>)
  18:	681a      	ldr	r2, [r3, #0]
  1a:	f022 0210 	bic.w	r2, r2, #16
  1e:	601a      	str	r2, [r3, #0]
  20:	681a      	ldr	r2, [r3, #0]
  22:	f022 02e0 	bic.w	r2, r2, #224	; 0xe0
  26:	601a      	str	r2, [r3, #0]
  28:	681a      	ldr	r2, [r3, #0]
  2a:	4302      	orrs	r2, r0
  2c:	601a      	str	r2, [r3, #0]
  2e:	681a      	ldr	r2, [r3, #0]
  30:	f042 0210 	orr.w	r2, r2, #16
  34:	601a      	str	r2, [r3, #0]
  36:	4770      	bx	lr
  38:	40007000 	.word	0x40007000

0000003c <pmu_lvd_disable>:
  3c:	4a02      	ldr	r2, [pc, #8]	; (48 <pmu_lvd_disable+0xc>)
  3e:	6813      	ldr	r3, [r2, #0]
  40:	f023 0310 	bic.w	r3, r3, #16
  44:	6013      	str	r3, [r2, #0]
  46:	4770      	bx	lr
  48:	40007000 	.word	0x40007000

0000004c <pmu_to_sleepmode>:
  4c:	4a04      	ldr	r2, [pc, #16]	; (60 <pmu_to_sleepmode+0x14>)
  4e:	6913      	ldr	r3, [r2, #16]
  50:	f023 0304 	bic.w	r3, r3, #4
  54:	6113      	str	r3, [r2, #16]
  56:	b908      	cbnz	r0, 5c <pmu_to_sleepmode+0x10>
  58:	bf30      	wfi
  5a:	4770      	bx	lr
  5c:	bf20      	wfe
  5e:	4770      	bx	lr
  60:	e000ed00 	.word	0xe000ed00

00000064 <pmu_to_deepsleepmode>:
  64:	4b21      	ldr	r3, [pc, #132]	; (ec <pmu_to_deepsleepmode+0x88>)
  66:	b510      	push	{r4, lr}
  68:	681a      	ldr	r2, [r3, #0]
  6a:	f022 0203 	bic.w	r2, r2, #3
  6e:	601a      	str	r2, [r3, #0]
  70:	681a      	ldr	r2, [r3, #0]
  72:	4302      	orrs	r2, r0
  74:	601a      	str	r2, [r3, #0]
  76:	4a1e      	ldr	r2, [pc, #120]	; (f0 <pmu_to_deepsleepmode+0x8c>)
  78:	6913      	ldr	r3, [r2, #16]
  7a:	f043 0304 	orr.w	r3, r3, #4
  7e:	6113      	str	r3, [r2, #16]
  80:	f04f 23e0 	mov.w	r3, #3758153728	; 0xe000e000
  84:	4a1b      	ldr	r2, [pc, #108]	; (f4 <pmu_to_deepsleepmode+0x90>)
  86:	6918      	ldr	r0, [r3, #16]
  88:	6010      	str	r0, [r2, #0]
  8a:	f8d3 0100 	ldr.w	r0, [r3, #256]	; 0x100
  8e:	6050      	str	r0, [r2, #4]
  90:	f8d3 0104 	ldr.w	r0, [r3, #260]	; 0x104
  94:	6090      	str	r0, [r2, #8]
  96:	f8d3 0108 	ldr.w	r0, [r3, #264]	; 0x108
  9a:	60d0      	str	r0, [r2, #12]
  9c:	691c      	ldr	r4, [r3, #16]
  9e:	4816      	ldr	r0, [pc, #88]	; (f8 <pmu_to_deepsleepmode+0x94>)
  a0:	4020      	ands	r0, r4
  a2:	6118      	str	r0, [r3, #16]
  a4:	4815      	ldr	r0, [pc, #84]	; (fc <pmu_to_deepsleepmode+0x98>)
  a6:	f8c3 0180 	str.w	r0, [r3, #384]	; 0x180
  aa:	4815      	ldr	r0, [pc, #84]	; (100 <pmu_to_deepsleepmode+0x9c>)
  ac:	f8c3 0184 	str.w	r0, [r3, #388]	; 0x184
  b0:	f04f 30ff 	mov.w	r0, #4294967295	; 0xffffffff
  b4:	f8c3 0188 	str.w	r0, [r3, #392]	; 0x188
  b8:	b999      	cbnz	r1, e2 <pmu_to_deepsleepmode+0x7e>
  ba:	bf30      	wfi
  bc:	f04f 23e0 	mov.w	r3, #3758153728	; 0xe000e000
  c0:	6811      	ldr	r1, [r2, #0]
  c2:	6119      	str	r1, [r3, #16]
  c4:	6851      	ldr	r1, [r2, #4]
  c6:	f8c3 1100 	str.w	r1, [r3, #256]	; 0x100
  ca:	6891      	ldr	r1, [r2, #8]
  cc:	f8c3 1104 	str.w	r1, [r3, #260]	; 0x104
  d0:	68d2      	ldr	r2, [r2, #12]
  d2:	f8c3 2108 	str.w	r2, [r3, #264]	; 0x108
  d6:	4a06      	ldr	r2, [pc, #24]	; (f0 <pmu_to_deepsleepmode+0x8c>)
  d8:	6913      	ldr	r3, [r2, #16]
  da:	f023 0304 	bic.w	r3, r3, #4
  de:	6113      	str	r3, [r2, #16]
  e0:	bd10      	pop	{r4, pc}
  e2:	bf40      	sev
  e4:	bf20      	wfe
  e6:	bf20      	wfe
  e8:	e7e8      	b.n	bc <pmu_to_deepsleepmode+0x58>
  ea:	bf00      	nop
  ec:	40007000 	.word	0x40007000
  f0:	e000ed00 	.word	0xe000ed00
  f4:	00000000 	.word	0x00000000
  f8:	00010004 	.word	0x00010004
  fc:	ff7ff83d 	.word	0xff7ff83d
 100:	bffff8ff 	.word	0xbffff8ff

00000104 <pmu_to_standbymode>:
 104:	4a09      	ldr	r2, [pc, #36]	; (12c <pmu_to_standbymode+0x28>)
 106:	6913      	ldr	r3, [r2, #16]
 108:	f043 0304 	orr.w	r3, r3, #4
 10c:	6113      	str	r3, [r2, #16]
 10e:	4b08      	ldr	r3, [pc, #32]	; (130 <pmu_to_standbymode+0x2c>)
 110:	681a      	ldr	r2, [r3, #0]
 112:	f042 0202 	orr.w	r2, r2, #2
 116:	601a      	str	r2, [r3, #0]
 118:	681a      	ldr	r2, [r3, #0]
 11a:	f042 0204 	orr.w	r2, r2, #4
 11e:	601a      	str	r2, [r3, #0]
 120:	b908      	cbnz	r0, 126 <pmu_to_standbymode+0x22>
 122:	bf30      	wfi
 124:	4770      	bx	lr
 126:	bf20      	wfe
 128:	4770      	bx	lr
 12a:	bf00      	nop
 12c:	e000ed00 	.word	0xe000ed00
 130:	40007000 	.word	0x40007000

00000134 <pmu_wakeup_pin_enable>:
 134:	4a02      	ldr	r2, [pc, #8]	; (140 <pmu_wakeup_pin_enable+0xc>)
 136:	6853      	ldr	r3, [r2, #4]
 138:	f443 7380 	orr.w	r3, r3, #256	; 0x100
 13c:	6053      	str	r3, [r2, #4]
 13e:	4770      	bx	lr
 140:	40007000 	.word	0x40007000

00000144 <pmu_wakeup_pin_disable>:
 144:	4a02      	ldr	r2, [pc, #8]	; (150 <pmu_wakeup_pin_disable+0xc>)
 146:	6853      	ldr	r3, [r2, #4]
 148:	f423 7380 	bic.w	r3, r3, #256	; 0x100
 14c:	6053      	str	r3, [r2, #4]
 14e:	4770      	bx	lr
 150:	40007000 	.word	0x40007000

00000154 <pmu_backup_write_enable>:
 154:	4a02      	ldr	r2, [pc, #8]	; (160 <pmu_backup_write_enable+0xc>)
 156:	6813      	ldr	r3, [r2, #0]
 158:	f443 7380 	orr.w	r3, r3, #256	; 0x100
 15c:	6013      	str	r3, [r2, #0]
 15e:	4770      	bx	lr
 160:	40007000 	.word	0x40007000

00000164 <pmu_backup_write_disable>:
 164:	4a02      	ldr	r2, [pc, #8]	; (170 <pmu_backup_write_disable+0xc>)
 166:	6813      	ldr	r3, [r2, #0]
 168:	f423 7380 	bic.w	r3, r3, #256	; 0x100
 16c:	6013      	str	r3, [r2, #0]
 16e:	4770      	bx	lr
 170:	40007000 	.word	0x40007000

00000174 <pmu_flag_get>:
 174:	4b03      	ldr	r3, [pc, #12]	; (184 <pmu_flag_get+0x10>)
 176:	685b      	ldr	r3, [r3, #4]
 178:	4203      	tst	r3, r0
 17a:	bf14      	ite	ne
 17c:	2001      	movne	r0, #1
 17e:	2000      	moveq	r0, #0
 180:	4770      	bx	lr
 182:	bf00      	nop
 184:	40007000 	.word	0x40007000

00000188 <pmu_flag_clear>:
 188:	b110      	cbz	r0, 190 <pmu_flag_clear+0x8>
 18a:	2801      	cmp	r0, #1
 18c:	d006      	beq.n	19c <pmu_flag_clear+0x14>
 18e:	4770      	bx	lr
 190:	4a05      	ldr	r2, [pc, #20]	; (1a8 <pmu_flag_clear+0x20>)
 192:	6813      	ldr	r3, [r2, #0]
 194:	f043 0304 	orr.w	r3, r3, #4
 198:	6013      	str	r3, [r2, #0]
 19a:	4770      	bx	lr
 19c:	4a02      	ldr	r2, [pc, #8]	; (1a8 <pmu_flag_clear+0x20>)
 19e:	6813      	ldr	r3, [r2, #0]
 1a0:	f043 0308 	orr.w	r3, r3, #8
 1a4:	e7f8      	b.n	198 <pmu_flag_clear+0x10>
 1a6:	bf00      	nop
 1a8:	40007000 	.word	0x40007000

gd32f20x_rcu.o:     file format elf32-littlearm


Disassembly of section .text:

00000000 <rcu_periph_clock_enable>:
   0:	2201      	movs	r2, #1
   2:	0983      	lsrs	r3, r0, #6
   4:	f103 4380 	add.w	r3, r3, #1073741824	; 0x40000000
   8:	f503 3304 	add.w	r3, r3, #135168	; 0x21000
   c:	6819      	ldr	r1, [r3, #0]
   e:	f000 001f 	and.w	r0, r0, #31
  12:	4082      	lsls	r2, r0
  14:	430a      	orrs	r2, r1
  16:	601a      	str	r2, [r3, #0]
  18:	4770      	bx	lr

0000001a <rcu_periph_clock_disable>:
  1a:	2101      	movs	r1, #1
  1c:	0983      	lsrs	r3, r0, #6
  1e:	f103 4380 	add.w	r3, r3, #1073741824	; 0x40000000
  22:	f503 3304 	add.w	r3, r3, #135168	; 0x21000
  26:	681a      	ldr	r2, [r3, #0]
  28:	f000 001f 	and.w	r0, r0, #31
  2c:	4081      	lsls	r1, r0
  2e:	ea22 0201 	bic.w	r2, r2, r1
  32:	601a      	str	r2, [r3, #0]
  34:	4770      	bx	lr

00000036 <rcu_periph_clock_sleep_enable>:
  36:	f7ff bffe 	b.w	0 <rcu_periph_clock_enable>

0000003a <rcu_periph_clock_sleep_disable>:
  3a:	f7ff bffe 	b.w	1a <rcu_periph_clock_disable>

0000003e <rcu_periph_reset_enable>:
  3e:	f7ff bffe 	b.w	0 <rcu_periph_clock_enable>

00000042 <rcu_periph_reset_disable>:
  42:	f7ff bffe 	b.w	1a <rcu_periph_clock_disable>

00000046 <rcu_bkp_reset_enable>:
  46:	4a03      	ldr	r2, [pc, #12]	; (54 <rcu_bkp_reset_enable+0xe>)
  48:	6a13      	ldr	r3, [r2, #32]
  4a:	f443 3380 	orr.w	r3, r3, #65536	; 0x10000
  4e:	6213      	str	r3, [r2, #32]
  50:	4770      	bx	lr
  52:	bf00      	nop
  54:	40021000 	.word	0x40021000

00000058 <rcu_bkp_reset_disable>:
  58:	4a02      	ldr	r2, [pc, #8]	; (64 <rcu_bkp_reset_disable+0xc>)
  5a:	6a13      	ldr	r3, [r2, #32]
  5c:	f423 3380 	bic.w	r3, r3, #65536	; 0x10000
  60:	6213      	str	r3, [r2, #32]
  62:	4770      	bx	lr
  64:	40021000 	.word	0x40021000

00000068 <rcu_system_clock_source_config>:
  68:	4a03      	ldr	r2, [pc, #12]	; (78 <rcu_system_clock_source_config+0x10>)
  6a:	6853      	ldr	r3, [r2, #4]
  6c:	f023 0303 	bic.w	r3, r3, #3
  70:	4303      	orrs	r3, r0
  72:	6053      	str	r3, [r2, #4]
  74:	4770      	bx	lr
  76:	bf00      	nop
  78:	40021000 	.word	0x40021000

0000007c <rcu_system_clock_source_get>:
  7c:	4b02      	ldr	r3, [pc, #8]	; (88 <rcu_system_clock_source_get+0xc>)
  7e:	6858      	ldr	r0, [r3, #4]
  80:	f000 000c 	and.w	r0, r0, #12
  84:	4770      	bx	lr
  86:	bf00      	nop
  88:	40021000 	.word	0x40021000

0000008c <rcu_ahb_clock_config>:
  8c:	4a03      	ldr	r2, [pc, #12]	; (9c <rcu_ahb_clock_config+0x10>)
  8e:	6853      	ldr	r3, [r2, #4]
  90:	f023 03f0 	bic.w	r3, r3, #240	; 0xf0
  94:	4303      	orrs	r3, r0
  96:	6053      	str	r3, [r2, #4]
  98:	4770      	bx	lr
  9a:	bf00      	nop
  9c:	40021000 	.word	0x40021000

000000a0 <rcu_apb1_clock_config>:
  a0:	4a03      	ldr	r2, [pc, #12]	; (b0 <rcu_apb1_clock_config+0x10>)
  a2:	6853      	ldr	r3, [r2, #4]
  a4:	f423 63e0 	bic.w	r3, r3, #1792	; 0x700
  a8:	4303      	orrs	r3, r0
  aa:	6053      	str	r3, [r2, #4]
  ac:	4770      	bx	lr
  ae:	bf00      	nop
  b0:	40021000 	.word	0x40021000

000000b4 <rcu_apb2_clock_config>:
  b4:	4a03      	ldr	r2, [pc, #12]	; (c4 <rcu_apb2_clock_config+0x10>)
  b6:	6853      	ldr	r3, [r2, #4]
  b8:	f423 5360 	bic.w	r3, r3, #14336	; 0x3800
  bc:	4303      	orrs	r3, r0
  be:	6053      	str	r3, [r2, #4]
  c0:	4770      	bx	lr
  c2:	bf00      	nop
  c4:	40021000 	.word	0x40021000

000000c8 <rcu_ckout0_config>:
  c8:	4a06      	ldr	r2, [pc, #24]	; (e4 <rcu_ckout0_config+0x1c>)
  ca:	6853      	ldr	r3, [r2, #4]
  cc:	f023 6370 	bic.w	r3, r3, #251658240	; 0xf000000
  d0:	4303      	orrs	r3, r0
  d2:	6053      	str	r3, [r2, #4]
  d4:	f8d2 3080 	ldr.w	r3, [r2, #128]	; 0x80
  d8:	f023 033f 	bic.w	r3, r3, #63	; 0x3f
  dc:	430b      	orrs	r3, r1
  de:	f8c2 3080 	str.w	r3, [r2, #128]	; 0x80
  e2:	4770      	bx	lr
  e4:	40021000 	.word	0x40021000

000000e8 <rcu_ckout1_config>:
  e8:	4a05      	ldr	r2, [pc, #20]	; (100 <rcu_ckout1_config+0x18>)
  ea:	f8d2 3080 	ldr.w	r3, [r2, #128]	; 0x80
  ee:	f423 2373 	bic.w	r3, r3, #995328	; 0xf3000
  f2:	f423 6370 	bic.w	r3, r3, #3840	; 0xf00
  f6:	430b      	orrs	r3, r1
  f8:	4303      	orrs	r3, r0
  fa:	f8c2 3080 	str.w	r3, [r2, #128]	; 0x80
  fe:	4770      	bx	lr
 100:	40021000 	.word	0x40021000

00000104 <rcu_pll_config>:
 104:	4a04      	ldr	r2, [pc, #16]	; (118 <rcu_pll_config+0x14>)
 106:	6853      	ldr	r3, [r2, #4]
 108:	f023 5300 	bic.w	r3, r3, #536870912	; 0x20000000
 10c:	f423 1374 	bic.w	r3, r3, #3997696	; 0x3d0000
 110:	430b      	orrs	r3, r1
 112:	4318      	orrs	r0, r3
 114:	6050      	str	r0, [r2, #4]
 116:	4770      	bx	lr
 118:	40021000 	.word	0x40021000

0000011c <rcu_predv0_config>:
 11c:	4a04      	ldr	r2, [pc, #16]	; (130 <rcu_predv0_config+0x14>)
 11e:	6ad3      	ldr	r3, [r2, #44]	; 0x2c
 120:	f423 3380 	bic.w	r3, r3, #65536	; 0x10000
 124:	f023 030f 	bic.w	r3, r3, #15
 128:	430b      	orrs	r3, r1
 12a:	4318      	orrs	r0, r3
 12c:	62d0      	str	r0, [r2, #44]	; 0x2c
 12e:	4770      	bx	lr
 130:	40021000 	.word	0x40021000

00000134 <rcu_predv1_config>:
 134:	4a03      	ldr	r2, [pc, #12]	; (144 <rcu_predv1_config+0x10>)
 136:	6ad3      	ldr	r3, [r2, #44]	; 0x2c
 138:	f023 03f0 	bic.w	r3, r3, #240	; 0xf0
 13c:	4303      	orrs	r3, r0
 13e:	62d3      	str	r3, [r2, #44]	; 0x2c
 140:	4770      	bx	lr
 142:	bf00      	nop
 144:	40021000 	.word	0x40021000

00000148 <rcu_pll1_config>:
 148:	4b04      	ldr	r3, [pc, #16]	; (15c <rcu_pll1_config+0x14>)
 14a:	6ada      	ldr	r2, [r3, #44]	; 0x2c
 14c:	f422 6270 	bic.w	r2, r2, #3840	; 0xf00
 150:	62da      	str	r2, [r3, #44]	; 0x2c
 152:	6ada      	ldr	r2, [r3, #44]	; 0x2c
 154:	4302      	orrs	r2, r0
 156:	62da      	str	r2, [r3, #44]	; 0x2c
 158:	4770      	bx	lr
 15a:	bf00      	nop
 15c:	40021000 	.word	0x40021000

00000160 <rcu_pll2_config>:
 160:	4b04      	ldr	r3, [pc, #16]	; (174 <rcu_pll2_config+0x14>)
 162:	6ada      	ldr	r2, [r3, #44]	; 0x2c
 164:	f422 4270 	bic.w	r2, r2, #61440	; 0xf000
 168:	62da      	str	r2, [r3, #44]	; 0x2c
 16a:	6ada      	ldr	r2, [r3, #44]	; 0x2c
 16c:	4302      	orrs	r2, r0
 16e:	62da      	str	r2, [r3, #44]	; 0x2c
 170:	4770      	bx	lr
 172:	bf00      	nop
 174:	40021000 	.word	0x40021000

00000178 <rcu_adc_clock_config>:
 178:	490c      	ldr	r1, [pc, #48]	; (1ac <rcu_adc_clock_config+0x34>)
 17a:	2805      	cmp	r0, #5
 17c:	684b      	ldr	r3, [r1, #4]
 17e:	f023 5380 	bic.w	r3, r3, #268435456	; 0x10000000
 182:	f423 4340 	bic.w	r3, r3, #49152	; 0xc000
 186:	d006      	beq.n	196 <rcu_adc_clock_config+0x1e>
 188:	d803      	bhi.n	192 <rcu_adc_clock_config+0x1a>
 18a:	2804      	cmp	r0, #4
 18c:	d10a      	bne.n	1a4 <rcu_adc_clock_config+0x2c>
 18e:	604b      	str	r3, [r1, #4]
 190:	4770      	bx	lr
 192:	2807      	cmp	r0, #7
 194:	d1fb      	bne.n	18e <rcu_adc_clock_config+0x16>
 196:	4a06      	ldr	r2, [pc, #24]	; (1b0 <rcu_adc_clock_config+0x38>)
 198:	ea02 3280 	and.w	r2, r2, r0, lsl #14
 19c:	4313      	orrs	r3, r2
 19e:	f043 5380 	orr.w	r3, r3, #268435456	; 0x10000000
 1a2:	e7f4      	b.n	18e <rcu_adc_clock_config+0x16>
 1a4:	ea43 3380 	orr.w	r3, r3, r0, lsl #14
 1a8:	e7f1      	b.n	18e <rcu_adc_clock_config+0x16>
 1aa:	bf00      	nop
 1ac:	40021000 	.word	0x40021000
 1b0:	fffec000 	.word	0xfffec000

000001b4 <rcu_usbfs_trng_clock_config>:
 1b4:	4a03      	ldr	r2, [pc, #12]	; (1c4 <rcu_usbfs_trng_clock_config+0x10>)
 1b6:	6853      	ldr	r3, [r2, #4]
 1b8:	f423 0340 	bic.w	r3, r3, #12582912	; 0xc00000
 1bc:	4303      	orrs	r3, r0
 1be:	6053      	str	r3, [r2, #4]
 1c0:	4770      	bx	lr
 1c2:	bf00      	nop
 1c4:	40021000 	.word	0x40021000

000001c8 <rcu_rtc_clock_config>:
 1c8:	4a03      	ldr	r2, [pc, #12]	; (1d8 <rcu_rtc_clock_config+0x10>)
 1ca:	6a13      	ldr	r3, [r2, #32]
 1cc:	f423 7340 	bic.w	r3, r3, #768	; 0x300
 1d0:	4303      	orrs	r3, r0
 1d2:	6213      	str	r3, [r2, #32]
 1d4:	4770      	bx	lr
 1d6:	bf00      	nop
 1d8:	40021000 	.word	0x40021000

000001dc <rcu_i2s1_clock_config>:
 1dc:	4a03      	ldr	r2, [pc, #12]	; (1ec <rcu_i2s1_clock_config+0x10>)
 1de:	6ad3      	ldr	r3, [r2, #44]	; 0x2c
 1e0:	f423 3300 	bic.w	r3, r3, #131072	; 0x20000
 1e4:	4303      	orrs	r3, r0
 1e6:	62d3      	str	r3, [r2, #44]	; 0x2c
 1e8:	4770      	bx	lr
 1ea:	bf00      	nop
 1ec:	40021000 	.word	0x40021000

000001f0 <rcu_i2s2_clock_config>:
 1f0:	4a03      	ldr	r2, [pc, #12]	; (200 <rcu_i2s2_clock_config+0x10>)
 1f2:	6ad3      	ldr	r3, [r2, #44]	; 0x2c
 1f4:	f423 2380 	bic.w	r3, r3, #262144	; 0x40000
 1f8:	4303      	orrs	r3, r0
 1fa:	62d3      	str	r3, [r2, #44]	; 0x2c
 1fc:	4770      	bx	lr
 1fe:	bf00      	nop
 200:	40021000 	.word	0x40021000

00000204 <rcu_flag_get>:
 204:	0983      	lsrs	r3, r0, #6
 206:	f103 4380 	add.w	r3, r3, #1073741824	; 0x40000000
 20a:	f503 3304 	add.w	r3, r3, #135168	; 0x21000
 20e:	681b      	ldr	r3, [r3, #0]
 210:	f000 001f 	and.w	r0, r0, #31
 214:	fa23 f000 	lsr.w	r0, r3, r0
 218:	f000 0001 	and.w	r0, r0, #1
 21c:	4770      	bx	lr

0000021e <rcu_all_reset_flag_clear>:
 21e:	4a03      	ldr	r2, [pc, #12]	; (22c <rcu_all_reset_flag_clear+0xe>)
 220:	6a53      	ldr	r3, [r2, #36]	; 0x24
 222:	f043 7380 	orr.w	r3, r3, #16777216	; 0x1000000
 226:	6253      	str	r3, [r2, #36]	; 0x24
 228:	4770      	bx	lr
 22a:	bf00      	nop
 22c:	40021000 	.word	0x40021000

00000230 <rcu_interrupt_flag_get>:
 230:	f7ff bffe 	b.w	204 <rcu_flag_get>

00000234 <rcu_interrupt_flag_clear>:
 234:	f7ff bffe 	b.w	0 <rcu_periph_clock_enable>

00000238 <rcu_interrupt_enable>:
 238:	f7ff bffe 	b.w	0 <rcu_periph_clock_enable>

0000023c <rcu_interrupt_disable>:
 23c:	f7ff bffe 	b.w	1a <rcu_periph_clock_disable>

00000240 <rcu_lxtal_drive_capability_config>:
 240:	4a03      	ldr	r2, [pc, #12]	; (250 <rcu_lxtal_drive_capability_config+0x10>)
 242:	6a13      	ldr	r3, [r2, #32]
 244:	f023 0318 	bic.w	r3, r3, #24
 248:	4303      	orrs	r3, r0
 24a:	6213      	str	r3, [r2, #32]
 24c:	4770      	bx	lr
 24e:	bf00      	nop
 250:	40021000 	.word	0x40021000

00000254 <rcu_osci_stab_wait>:
 254:	281c      	cmp	r0, #28
 256:	b508      	push	{r3, lr}
 258:	d056      	beq.n	308 <rcu_osci_stab_wait+0xb4>
 25a:	d812      	bhi.n	282 <rcu_osci_stab_wait+0x2e>
 25c:	2818      	cmp	r0, #24
 25e:	d04a      	beq.n	2f6 <rcu_osci_stab_wait+0xa2>
 260:	d804      	bhi.n	26c <rcu_osci_stab_wait+0x18>
 262:	b398      	cbz	r0, 2cc <rcu_osci_stab_wait+0x78>
 264:	2810      	cmp	r0, #16
 266:	d022      	beq.n	2ae <rcu_osci_stab_wait+0x5a>
 268:	2000      	movs	r0, #0
 26a:	bd08      	pop	{r3, pc}
 26c:	281a      	cmp	r0, #26
 26e:	d1fb      	bne.n	268 <rcu_osci_stab_wait+0x14>
 270:	4a2f      	ldr	r2, [pc, #188]	; (330 <rcu_osci_stab_wait+0xdc>)
 272:	201b      	movs	r0, #27
 274:	f7ff fffe 	bl	204 <rcu_flag_get>
 278:	b908      	cbnz	r0, 27e <rcu_osci_stab_wait+0x2a>
 27a:	3a01      	subs	r2, #1
 27c:	d1f9      	bne.n	272 <rcu_osci_stab_wait+0x1e>
 27e:	201b      	movs	r0, #27
 280:	e01e      	b.n	2c0 <rcu_osci_stab_wait+0x6c>
 282:	f5b0 6f10 	cmp.w	r0, #2304	; 0x900
 286:	d02b      	beq.n	2e0 <rcu_osci_stab_wait+0x8c>
 288:	f242 431c 	movw	r3, #9244	; 0x241c
 28c:	4298      	cmp	r0, r3
 28e:	d044      	beq.n	31a <rcu_osci_stab_wait+0xc6>
 290:	f5b0 6f00 	cmp.w	r0, #2048	; 0x800
 294:	d1e8      	bne.n	268 <rcu_osci_stab_wait+0x14>
 296:	f06f 427c 	mvn.w	r2, #4227858432	; 0xfc000000
 29a:	f640 0001 	movw	r0, #2049	; 0x801
 29e:	f7ff fffe 	bl	204 <rcu_flag_get>
 2a2:	b908      	cbnz	r0, 2a8 <rcu_osci_stab_wait+0x54>
 2a4:	3a01      	subs	r2, #1
 2a6:	d1f8      	bne.n	29a <rcu_osci_stab_wait+0x46>
 2a8:	f640 0001 	movw	r0, #2049	; 0x801
 2ac:	e008      	b.n	2c0 <rcu_osci_stab_wait+0x6c>
 2ae:	f64f 72ff 	movw	r2, #65535	; 0xffff
 2b2:	2011      	movs	r0, #17
 2b4:	f7ff fffe 	bl	204 <rcu_flag_get>
 2b8:	b908      	cbnz	r0, 2be <rcu_osci_stab_wait+0x6a>
 2ba:	3a01      	subs	r2, #1
 2bc:	d1f9      	bne.n	2b2 <rcu_osci_stab_wait+0x5e>
 2be:	2011      	movs	r0, #17
 2c0:	f7ff fffe 	bl	204 <rcu_flag_get>
 2c4:	3800      	subs	r0, #0
 2c6:	bf18      	it	ne
 2c8:	2001      	movne	r0, #1
 2ca:	e7ce      	b.n	26a <rcu_osci_stab_wait+0x16>
 2cc:	f44f 62a0 	mov.w	r2, #1280	; 0x500
 2d0:	2001      	movs	r0, #1
 2d2:	f7ff fffe 	bl	204 <rcu_flag_get>
 2d6:	b908      	cbnz	r0, 2dc <rcu_osci_stab_wait+0x88>
 2d8:	3a01      	subs	r2, #1
 2da:	d1f9      	bne.n	2d0 <rcu_osci_stab_wait+0x7c>
 2dc:	2001      	movs	r0, #1
 2de:	e7ef      	b.n	2c0 <rcu_osci_stab_wait+0x6c>
 2e0:	4a13      	ldr	r2, [pc, #76]	; (330 <rcu_osci_stab_wait+0xdc>)
 2e2:	f640 1001 	movw	r0, #2305	; 0x901
 2e6:	f7ff fffe 	bl	204 <rcu_flag_get>
 2ea:	b908      	cbnz	r0, 2f0 <rcu_osci_stab_wait+0x9c>
 2ec:	3a01      	subs	r2, #1
 2ee:	d1f8      	bne.n	2e2 <rcu_osci_stab_wait+0x8e>
 2f0:	f640 1001 	movw	r0, #2305	; 0x901
 2f4:	e7e4      	b.n	2c0 <rcu_osci_stab_wait+0x6c>
 2f6:	4a0e      	ldr	r2, [pc, #56]	; (330 <rcu_osci_stab_wait+0xdc>)
 2f8:	2019      	movs	r0, #25
 2fa:	f7ff fffe 	bl	204 <rcu_flag_get>
 2fe:	b908      	cbnz	r0, 304 <rcu_osci_stab_wait+0xb0>
 300:	3a01      	subs	r2, #1
 302:	d1f9      	bne.n	2f8 <rcu_osci_stab_wait+0xa4>
 304:	2019      	movs	r0, #25
 306:	e7db      	b.n	2c0 <rcu_osci_stab_wait+0x6c>
 308:	4a09      	ldr	r2, [pc, #36]	; (330 <rcu_osci_stab_wait+0xdc>)
 30a:	201d      	movs	r0, #29
 30c:	f7ff fffe 	bl	204 <rcu_flag_get>
 310:	b908      	cbnz	r0, 316 <rcu_osci_stab_wait+0xc2>
 312:	3a01      	subs	r2, #1
 314:	d1f9      	bne.n	30a <rcu_osci_stab_wait+0xb6>
 316:	201d      	movs	r0, #29
 318:	e7d2      	b.n	2c0 <rcu_osci_stab_wait+0x6c>
 31a:	4a05      	ldr	r2, [pc, #20]	; (330 <rcu_osci_stab_wait+0xdc>)
 31c:	f242 401d 	movw	r0, #9245	; 0x241d
 320:	f7ff fffe 	bl	204 <rcu_flag_get>
 324:	b908      	cbnz	r0, 32a <rcu_osci_stab_wait+0xd6>
 326:	3a01      	subs	r2, #1
 328:	d1f8      	bne.n	31c <rcu_osci_stab_wait+0xc8>
 32a:	f242 401d 	movw	r0, #9245	; 0x241d
 32e:	e7c7      	b.n	2c0 <rcu_osci_stab_wait+0x6c>
 330:	000fffff 	.word	0x000fffff

00000334 <rcu_deinit>:
 334:	491a      	ldr	r1, [pc, #104]	; (3a0 <rcu_deinit+0x6c>)
 336:	b508      	push	{r3, lr}
 338:	680b      	ldr	r3, [r1, #0]
 33a:	2000      	movs	r0, #0
 33c:	f043 0301 	orr.w	r3, r3, #1
 340:	600b      	str	r3, [r1, #0]
 342:	f7ff fffe 	bl	254 <rcu_osci_stab_wait>
 346:	684a      	ldr	r2, [r1, #4]
 348:	4b16      	ldr	r3, [pc, #88]	; (3a4 <rcu_deinit+0x70>)
 34a:	4013      	ands	r3, r2
 34c:	604b      	str	r3, [r1, #4]
 34e:	680b      	ldr	r3, [r1, #0]
 350:	f44f 027f 	mov.w	r2, #16711680	; 0xff0000
 354:	f023 7384 	bic.w	r3, r3, #17301504	; 0x1080000
 358:	f423 3380 	bic.w	r3, r3, #65536	; 0x10000
 35c:	600b      	str	r3, [r1, #0]
 35e:	680b      	ldr	r3, [r1, #0]
 360:	f423 2380 	bic.w	r3, r3, #262144	; 0x40000
 364:	600b      	str	r3, [r1, #0]
 366:	684b      	ldr	r3, [r1, #4]
 368:	f023 5303 	bic.w	r3, r3, #549453824	; 0x20c00000
 36c:	f423 137c 	bic.w	r3, r3, #4128768	; 0x3f0000
 370:	604b      	str	r3, [r1, #4]
 372:	680b      	ldr	r3, [r1, #0]
 374:	f023 53a0 	bic.w	r3, r3, #335544320	; 0x14000000
 378:	600b      	str	r3, [r1, #0]
 37a:	2300      	movs	r3, #0
 37c:	62cb      	str	r3, [r1, #44]	; 0x2c
 37e:	608a      	str	r2, [r1, #8]
 380:	f8c1 3080 	str.w	r3, [r1, #128]	; 0x80
 384:	f8d1 3090 	ldr.w	r3, [r1, #144]	; 0x90
 388:	f023 5380 	bic.w	r3, r3, #268435456	; 0x10000000
 38c:	f8c1 3090 	str.w	r3, [r1, #144]	; 0x90
 390:	f44f 0380 	mov.w	r3, #4194304	; 0x400000
 394:	f8c1 3094 	str.w	r3, [r1, #148]	; 0x94
 398:	4b03      	ldr	r3, [pc, #12]	; (3a8 <rcu_deinit+0x74>)
 39a:	f8c1 3098 	str.w	r3, [r1, #152]	; 0x98
 39e:	bd08      	pop	{r3, pc}
 3a0:	40021000 	.word	0x40021000
 3a4:	e0ff000c 	.word	0xe0ff000c
 3a8:	20003010 	.word	0x20003010

000003ac <rcu_osci_on>:
 3ac:	f7ff bffe 	b.w	0 <rcu_periph_clock_enable>

000003b0 <rcu_osci_off>:
 3b0:	f7ff bffe 	b.w	1a <rcu_periph_clock_disable>

000003b4 <rcu_osci_bypass_mode_enable>:
 3b4:	2810      	cmp	r0, #16
 3b6:	d003      	beq.n	3c0 <rcu_osci_bypass_mode_enable+0xc>
 3b8:	f5b0 6f00 	cmp.w	r0, #2048	; 0x800
 3bc:	d00a      	beq.n	3d4 <rcu_osci_bypass_mode_enable+0x20>
 3be:	4770      	bx	lr
 3c0:	4b09      	ldr	r3, [pc, #36]	; (3e8 <rcu_osci_bypass_mode_enable+0x34>)
 3c2:	681a      	ldr	r2, [r3, #0]
 3c4:	6819      	ldr	r1, [r3, #0]
 3c6:	f442 2280 	orr.w	r2, r2, #262144	; 0x40000
 3ca:	f421 3180 	bic.w	r1, r1, #65536	; 0x10000
 3ce:	6019      	str	r1, [r3, #0]
 3d0:	601a      	str	r2, [r3, #0]
 3d2:	4770      	bx	lr
 3d4:	4b04      	ldr	r3, [pc, #16]	; (3e8 <rcu_osci_bypass_mode_enable+0x34>)
 3d6:	6a1a      	ldr	r2, [r3, #32]
 3d8:	6a19      	ldr	r1, [r3, #32]
 3da:	f042 0204 	orr.w	r2, r2, #4
 3de:	f021 0101 	bic.w	r1, r1, #1
 3e2:	6219      	str	r1, [r3, #32]
 3e4:	621a      	str	r2, [r3, #32]
 3e6:	4770      	bx	lr
 3e8:	40021000 	.word	0x40021000

000003ec <rcu_osci_bypass_mode_disable>:
 3ec:	2810      	cmp	r0, #16
 3ee:	d003      	beq.n	3f8 <rcu_osci_bypass_mode_disable+0xc>
 3f0:	f5b0 6f00 	cmp.w	r0, #2048	; 0x800
 3f4:	d00a      	beq.n	40c <rcu_osci_bypass_mode_disable+0x20>
 3f6:	4770      	bx	lr
 3f8:	4b09      	ldr	r3, [pc, #36]	; (420 <rcu_osci_bypass_mode_disable+0x34>)
 3fa:	681a      	ldr	r2, [r3, #0]
 3fc:	6819      	ldr	r1, [r3, #0]
 3fe:	f422 2280 	bic.w	r2, r2, #262144	; 0x40000
 402:	f421 3180 	bic.w	r1, r1, #65536	; 0x10000
 406:	6019      	str	r1, [r3, #0]
 408:	601a      	str	r2, [r3, #0]
 40a:	4770      	bx	lr
 40c:	4b04      	ldr	r3, [pc, #16]	; (420 <rcu_osci_bypass_mode_disable+0x34>)
 40e:	6a1a      	ldr	r2, [r3, #32]
 410:	6a19      	ldr	r1, [r3, #32]
 412:	f022 0204 	bic.w	r2, r2, #4
 416:	f021 0101 	bic.w	r1, r1, #1
 41a:	6219      	str	r1, [r3, #32]
 41c:	621a      	str	r2, [r3, #32]
 41e:	4770      	bx	lr
 420:	40021000 	.word	0x40021000

00000424 <rcu_hxtal_clock_monitor_enable>:
 424:	4a02      	ldr	r2, [pc, #8]	; (430 <rcu_hxtal_clock_monitor_enable+0xc>)
 426:	6813      	ldr	r3, [r2, #0]
 428:	f443 2300 	orr.w	r3, r3, #524288	; 0x80000
 42c:	6013      	str	r3, [r2, #0]
 42e:	4770      	bx	lr
 430:	40021000 	.word	0x40021000

00000434 <rcu_hxtal_clock_monitor_disable>:
 434:	4a02      	ldr	r2, [pc, #8]	; (440 <rcu_hxtal_clock_monitor_disable+0xc>)
 436:	6813      	ldr	r3, [r2, #0]
 438:	f423 2300 	bic.w	r3, r3, #524288	; 0x80000
 43c:	6013      	str	r3, [r2, #0]
 43e:	4770      	bx	lr
 440:	40021000 	.word	0x40021000

00000444 <rcu_irc8m_adjust_value_set>:
 444:	4a04      	ldr	r2, [pc, #16]	; (458 <rcu_irc8m_adjust_value_set+0x14>)
 446:	00c0      	lsls	r0, r0, #3
 448:	6813      	ldr	r3, [r2, #0]
 44a:	b2c0      	uxtb	r0, r0
 44c:	f023 03f8 	bic.w	r3, r3, #248	; 0xf8
 450:	4318      	orrs	r0, r3
 452:	6010      	str	r0, [r2, #0]
 454:	4770      	bx	lr
 456:	bf00      	nop
 458:	40021000 	.word	0x40021000

0000045c <rcu_deepsleep_voltage_set>:
 45c:	4b02      	ldr	r3, [pc, #8]	; (468 <rcu_deepsleep_voltage_set+0xc>)
 45e:	f000 0007 	and.w	r0, r0, #7
 462:	6358      	str	r0, [r3, #52]	; 0x34
 464:	4770      	bx	lr
 466:	bf00      	nop
 468:	40021000 	.word	0x40021000

0000046c <rcu_clock_freq_get>:
 46c:	4b3e      	ldr	r3, [pc, #248]	; (568 <rcu_clock_freq_get+0xfc>)
 46e:	b5f0      	push	{r4, r5, r6, r7, lr}
 470:	4604      	mov	r4, r0
 472:	461f      	mov	r7, r3
 474:	b089      	sub	sp, #36	; 0x24
 476:	ad04      	add	r5, sp, #16
 478:	f103 0610 	add.w	r6, r3, #16
 47c:	462a      	mov	r2, r5
 47e:	6818      	ldr	r0, [r3, #0]
 480:	6859      	ldr	r1, [r3, #4]
 482:	3308      	adds	r3, #8
 484:	c203      	stmia	r2!, {r0, r1}
 486:	42b3      	cmp	r3, r6
 488:	4615      	mov	r5, r2
 48a:	d1f7      	bne.n	47c <rcu_clock_freq_get+0x10>
 48c:	466b      	mov	r3, sp
 48e:	6938      	ldr	r0, [r7, #16]
 490:	6871      	ldr	r1, [r6, #4]
 492:	4a36      	ldr	r2, [pc, #216]	; (56c <rcu_clock_freq_get+0x100>)
 494:	c303      	stmia	r3!, {r0, r1}
 496:	c303      	stmia	r3!, {r0, r1}
 498:	6853      	ldr	r3, [r2, #4]
 49a:	f3c3 0381 	ubfx	r3, r3, #2, #2
 49e:	2b01      	cmp	r3, #1
 4a0:	d053      	beq.n	54a <rcu_clock_freq_get+0xde>
 4a2:	2b02      	cmp	r3, #2
 4a4:	d153      	bne.n	54e <rcu_clock_freq_get+0xe2>
 4a6:	6853      	ldr	r3, [r2, #4]
 4a8:	03dd      	lsls	r5, r3, #15
 4aa:	d523      	bpl.n	4f4 <rcu_clock_freq_get+0x88>
 4ac:	6ad3      	ldr	r3, [r2, #44]	; 0x2c
 4ae:	f413 3f80 	tst.w	r3, #65536	; 0x10000
 4b2:	4b2f      	ldr	r3, [pc, #188]	; (570 <rcu_clock_freq_get+0x104>)
 4b4:	d00e      	beq.n	4d4 <rcu_clock_freq_get+0x68>
 4b6:	6ad1      	ldr	r1, [r2, #44]	; 0x2c
 4b8:	6ad0      	ldr	r0, [r2, #44]	; 0x2c
 4ba:	f3c1 1103 	ubfx	r1, r1, #4, #4
 4be:	f3c0 2003 	ubfx	r0, r0, #8, #4
 4c2:	3101      	adds	r1, #1
 4c4:	280f      	cmp	r0, #15
 4c6:	f100 0502 	add.w	r5, r0, #2
 4ca:	fbb3 f3f1 	udiv	r3, r3, r1
 4ce:	bf08      	it	eq
 4d0:	2514      	moveq	r5, #20
 4d2:	436b      	muls	r3, r5
 4d4:	6ad1      	ldr	r1, [r2, #44]	; 0x2c
 4d6:	f001 010f 	and.w	r1, r1, #15
 4da:	3101      	adds	r1, #1
 4dc:	fbb3 f3f1 	udiv	r3, r3, r1
 4e0:	6851      	ldr	r1, [r2, #4]
 4e2:	6850      	ldr	r0, [r2, #4]
 4e4:	f3c1 4183 	ubfx	r1, r1, #18, #4
 4e8:	0080      	lsls	r0, r0, #2
 4ea:	d505      	bpl.n	4f8 <rcu_clock_freq_get+0x8c>
 4ec:	f041 0110 	orr.w	r1, r1, #16
 4f0:	3101      	adds	r1, #1
 4f2:	e027      	b.n	544 <rcu_clock_freq_get+0xd8>
 4f4:	4b1f      	ldr	r3, [pc, #124]	; (574 <rcu_clock_freq_get+0x108>)
 4f6:	e7f3      	b.n	4e0 <rcu_clock_freq_get+0x74>
 4f8:	290d      	cmp	r1, #13
 4fa:	d120      	bne.n	53e <rcu_clock_freq_get+0xd2>
 4fc:	2006      	movs	r0, #6
 4fe:	0859      	lsrs	r1, r3, #1
 500:	fb00 1003 	mla	r0, r0, r3, r1
 504:	6853      	ldr	r3, [r2, #4]
 506:	6851      	ldr	r1, [r2, #4]
 508:	f3c3 1303 	ubfx	r3, r3, #4, #4
 50c:	6852      	ldr	r2, [r2, #4]
 50e:	3320      	adds	r3, #32
 510:	446b      	add	r3, sp
 512:	f3c1 2102 	ubfx	r1, r1, #8, #3
 516:	f3c2 22c2 	ubfx	r2, r2, #11, #3
 51a:	f813 3c10 	ldrb.w	r3, [r3, #-16]
 51e:	3120      	adds	r1, #32
 520:	3220      	adds	r2, #32
 522:	4469      	add	r1, sp
 524:	446a      	add	r2, sp
 526:	f811 1c20 	ldrb.w	r1, [r1, #-32]
 52a:	f812 2c18 	ldrb.w	r2, [r2, #-24]
 52e:	fa20 f303 	lsr.w	r3, r0, r3
 532:	2c03      	cmp	r4, #3
 534:	d80d      	bhi.n	552 <rcu_clock_freq_get+0xe6>
 536:	e8df f004 	tbb	[pc, r4]
 53a:	0f0d      	.short	0x0f0d
 53c:	1411      	.short	0x1411
 53e:	290f      	cmp	r1, #15
 540:	d0d6      	beq.n	4f0 <rcu_clock_freq_get+0x84>
 542:	3102      	adds	r1, #2
 544:	fb03 f001 	mul.w	r0, r3, r1
 548:	e7dc      	b.n	504 <rcu_clock_freq_get+0x98>
 54a:	4809      	ldr	r0, [pc, #36]	; (570 <rcu_clock_freq_get+0x104>)
 54c:	e7da      	b.n	504 <rcu_clock_freq_get+0x98>
 54e:	480a      	ldr	r0, [pc, #40]	; (578 <rcu_clock_freq_get+0x10c>)
 550:	e7d8      	b.n	504 <rcu_clock_freq_get+0x98>
 552:	2000      	movs	r0, #0
 554:	b009      	add	sp, #36	; 0x24
 556:	bdf0      	pop	{r4, r5, r6, r7, pc}
 558:	4618      	mov	r0, r3
 55a:	e7fb      	b.n	554 <rcu_clock_freq_get+0xe8>
 55c:	fa23 f001 	lsr.w	r0, r3, r1
 560:	e7f8      	b.n	554 <rcu_clock_freq_get+0xe8>
 562:	fa23 f002 	lsr.w	r0, r3, r2
 566:	e7f5      	b.n	554 <rcu_clock_freq_get+0xe8>
 568:	00000000 	.word	0x00000000
 56c:	40021000 	.word	0x40021000
 570:	017d7840 	.word	0x017d7840
 574:	003d0900 	.word	0x003d0900
 578:	007a1200 	.word	0x007a1200

0000057c <rcu_pllt_config>:
 57c:	4a04      	ldr	r2, [pc, #16]	; (590 <rcu_pllt_config+0x14>)
 57e:	f8d2 3098 	ldr.w	r3, [r2, #152]	; 0x98
 582:	f023 4300 	bic.w	r3, r3, #2147483648	; 0x80000000
 586:	4303      	orrs	r3, r0
 588:	f8c2 3098 	str.w	r3, [r2, #152]	; 0x98
 58c:	4770      	bx	lr
 58e:	bf00      	nop
 590:	40021000 	.word	0x40021000

00000594 <rcu_pllt_vco_config>:
 594:	1e83      	subs	r3, r0, #2
 596:	2b3d      	cmp	r3, #61	; 0x3d
 598:	b530      	push	{r4, r5, lr}
 59a:	d815      	bhi.n	5c8 <rcu_pllt_vco_config+0x34>
 59c:	f1a1 0331 	sub.w	r3, r1, #49	; 0x31
 5a0:	f5b3 7fc0 	cmp.w	r3, #384	; 0x180
 5a4:	d210      	bcs.n	5c8 <rcu_pllt_vco_config+0x34>
 5a6:	1e93      	subs	r3, r2, #2
 5a8:	2b05      	cmp	r3, #5
 5aa:	d80d      	bhi.n	5c8 <rcu_pllt_vco_config+0x34>
 5ac:	4c07      	ldr	r4, [pc, #28]	; (5cc <rcu_pllt_vco_config+0x38>)
 5ae:	4b08      	ldr	r3, [pc, #32]	; (5d0 <rcu_pllt_vco_config+0x3c>)
 5b0:	f8d4 5098 	ldr.w	r5, [r4, #152]	; 0x98
 5b4:	402b      	ands	r3, r5
 5b6:	ea43 7302 	orr.w	r3, r3, r2, lsl #28
 5ba:	4318      	orrs	r0, r3
 5bc:	ea40 1181 	orr.w	r1, r0, r1, lsl #6
 5c0:	2001      	movs	r0, #1
 5c2:	f8c4 1098 	str.w	r1, [r4, #152]	; 0x98
 5c6:	bd30      	pop	{r4, r5, pc}
 5c8:	2000      	movs	r0, #0
 5ca:	e7fc      	b.n	5c6 <rcu_pllt_vco_config+0x32>
 5cc:	40021000 	.word	0x40021000
 5d0:	8fff8000 	.word	0x8fff8000

000005d4 <rcu_tli_clock_config>:
 5d4:	4a04      	ldr	r2, [pc, #16]	; (5e8 <rcu_tli_clock_config+0x14>)
 5d6:	f8d2 3098 	ldr.w	r3, [r2, #152]	; 0x98
 5da:	f423 3340 	bic.w	r3, r3, #196608	; 0x30000
 5de:	4303      	orrs	r3, r0
 5e0:	f8c2 3098 	str.w	r3, [r2, #152]	; 0x98
 5e4:	4770      	bx	lr
 5e6:	bf00      	nop
 5e8:	40021000 	.word	0x40021000

gd32f20x_rtc.o:     file format elf32-littlearm


Disassembly of section .text:

00000000 <rtc_configuration_mode_enter>:
   0:	4a03      	ldr	r2, [pc, #12]	; (10 <rtc_configuration_mode_enter+0x10>)
   2:	f8d2 3804 	ldr.w	r3, [r2, #2052]	; 0x804
   6:	f043 0310 	orr.w	r3, r3, #16
   a:	f8c2 3804 	str.w	r3, [r2, #2052]	; 0x804
   e:	4770      	bx	lr
  10:	40002000 	.word	0x40002000

00000014 <rtc_configuration_mode_exit>:
  14:	4a03      	ldr	r2, [pc, #12]	; (24 <rtc_configuration_mode_exit+0x10>)
  16:	f8d2 3804 	ldr.w	r3, [r2, #2052]	; 0x804
  1a:	f023 0310 	bic.w	r3, r3, #16
  1e:	f8c2 3804 	str.w	r3, [r2, #2052]	; 0x804
  22:	4770      	bx	lr
  24:	40002000 	.word	0x40002000

00000028 <rtc_counter_set>:
  28:	b508      	push	{r3, lr}
  2a:	f7ff fffe 	bl	0 <rtc_configuration_mode_enter>
  2e:	4b05      	ldr	r3, [pc, #20]	; (44 <rtc_counter_set+0x1c>)
  30:	0c02      	lsrs	r2, r0, #16
  32:	b280      	uxth	r0, r0
  34:	f8c3 2818 	str.w	r2, [r3, #2072]	; 0x818
  38:	f8c3 081c 	str.w	r0, [r3, #2076]	; 0x81c
  3c:	e8bd 4008 	ldmia.w	sp!, {r3, lr}
  40:	f7ff bffe 	b.w	14 <rtc_configuration_mode_exit>
  44:	40002000 	.word	0x40002000

00000048 <rtc_prescaler_set>:
  48:	b508      	push	{r3, lr}
  4a:	f7ff fffe 	bl	0 <rtc_configuration_mode_enter>
  4e:	4b06      	ldr	r3, [pc, #24]	; (68 <rtc_prescaler_set+0x20>)
  50:	f3c0 4203 	ubfx	r2, r0, #16, #4
  54:	b280      	uxth	r0, r0
  56:	f8c3 2808 	str.w	r2, [r3, #2056]	; 0x808
  5a:	f8c3 080c 	str.w	r0, [r3, #2060]	; 0x80c
  5e:	e8bd 4008 	ldmia.w	sp!, {r3, lr}
  62:	f7ff bffe 	b.w	14 <rtc_configuration_mode_exit>
  66:	bf00      	nop
  68:	40002000 	.word	0x40002000

0000006c <rtc_lwoff_wait>:
  6c:	4a02      	ldr	r2, [pc, #8]	; (78 <rtc_lwoff_wait+0xc>)
  6e:	f8d2 3804 	ldr.w	r3, [r2, #2052]	; 0x804
  72:	069b      	lsls	r3, r3, #26
  74:	d5fb      	bpl.n	6e <rtc_lwoff_wait+0x2>
  76:	4770      	bx	lr
  78:	40002000 	.word	0x40002000

0000007c <rtc_register_sync_wait>:
  7c:	4b05      	ldr	r3, [pc, #20]	; (94 <rtc_register_sync_wait+0x18>)
  7e:	f8d3 2804 	ldr.w	r2, [r3, #2052]	; 0x804
  82:	f022 0208 	bic.w	r2, r2, #8
  86:	f8c3 2804 	str.w	r2, [r3, #2052]	; 0x804
  8a:	f8d3 2804 	ldr.w	r2, [r3, #2052]	; 0x804
  8e:	0712      	lsls	r2, r2, #28
  90:	d5fb      	bpl.n	8a <rtc_register_sync_wait+0xe>
  92:	4770      	bx	lr
  94:	40002000 	.word	0x40002000

00000098 <rtc_alarm_config>:
  98:	b508      	push	{r3, lr}
  9a:	f7ff fffe 	bl	0 <rtc_configuration_mode_enter>
  9e:	4b05      	ldr	r3, [pc, #20]	; (b4 <rtc_alarm_config+0x1c>)
  a0:	0c02      	lsrs	r2, r0, #16
  a2:	b280      	uxth	r0, r0
  a4:	f8c3 2820 	str.w	r2, [r3, #2080]	; 0x820
  a8:	f8c3 0824 	str.w	r0, [r3, #2084]	; 0x824
  ac:	e8bd 4008 	ldmia.w	sp!, {r3, lr}
  b0:	f7ff bffe 	b.w	14 <rtc_configuration_mode_exit>
  b4:	40002000 	.word	0x40002000

000000b8 <rtc_counter_get>:
  b8:	4b03      	ldr	r3, [pc, #12]	; (c8 <rtc_counter_get+0x10>)
  ba:	f8d3 281c 	ldr.w	r2, [r3, #2076]	; 0x81c
  be:	f8d3 0818 	ldr.w	r0, [r3, #2072]	; 0x818
  c2:	ea42 4000 	orr.w	r0, r2, r0, lsl #16
  c6:	4770      	bx	lr
  c8:	40002000 	.word	0x40002000

000000cc <rtc_divider_get>:
  cc:	4a04      	ldr	r2, [pc, #16]	; (e0 <rtc_divider_get+0x14>)
  ce:	f8d2 3810 	ldr.w	r3, [r2, #2064]	; 0x810
  d2:	f8d2 0814 	ldr.w	r0, [r2, #2068]	; 0x814
  d6:	041b      	lsls	r3, r3, #16
  d8:	f403 2370 	and.w	r3, r3, #983040	; 0xf0000
  dc:	4318      	orrs	r0, r3
  de:	4770      	bx	lr
  e0:	40002000 	.word	0x40002000

000000e4 <rtc_flag_get>:
  e4:	4b03      	ldr	r3, [pc, #12]	; (f4 <rtc_flag_get+0x10>)
  e6:	f8d3 3804 	ldr.w	r3, [r3, #2052]	; 0x804
  ea:	4203      	tst	r3, r0
  ec:	bf14      	ite	ne
  ee:	2001      	movne	r0, #1
  f0:	2000      	moveq	r0, #0
  f2:	4770      	bx	lr
  f4:	40002000 	.word	0x40002000

000000f8 <rtc_flag_clear>:
  f8:	4a03      	ldr	r2, [pc, #12]	; (108 <rtc_flag_clear+0x10>)
  fa:	f8d2 3804 	ldr.w	r3, [r2, #2052]	; 0x804
  fe:	ea23 0300 	bic.w	r3, r3, r0
 102:	f8c2 3804 	str.w	r3, [r2, #2052]	; 0x804
 106:	4770      	bx	lr
 108:	40002000 	.word	0x40002000

0000010c <rtc_interrupt_flag_get>:
 10c:	f7ff bffe 	b.w	e4 <rtc_flag_get>

00000110 <rtc_interrupt_flag_clear>:
 110:	f7ff bffe 	b.w	f8 <rtc_flag_clear>

00000114 <rtc_interrupt_enable>:
 114:	4a03      	ldr	r2, [pc, #12]	; (124 <rtc_interrupt_enable+0x10>)
 116:	f8d2 3800 	ldr.w	r3, [r2, #2048]	; 0x800
 11a:	4303      	orrs	r3, r0
 11c:	f8c2 3800 	str.w	r3, [r2, #2048]	; 0x800
 120:	4770      	bx	lr
 122:	bf00      	nop
 124:	40002000 	.word	0x40002000

00000128 <rtc_interrupt_disable>:
 128:	4a03      	ldr	r2, [pc, #12]	; (138 <rtc_interrupt_disable+0x10>)
 12a:	f8d2 3800 	ldr.w	r3, [r2, #2048]	; 0x800
 12e:	ea23 0300 	bic.w	r3, r3, r0
 132:	f8c2 3800 	str.w	r3, [r2, #2048]	; 0x800
 136:	4770      	bx	lr
 138:	40002000 	.word	0x40002000

gd32f20x_sdio.o:     file format elf32-littlearm


Disassembly of section .text:

00000000 <sdio_deinit>:
   0:	2200      	movs	r2, #0
   2:	4b05      	ldr	r3, [pc, #20]	; (18 <sdio_deinit+0x18>)
   4:	601a      	str	r2, [r3, #0]
   6:	605a      	str	r2, [r3, #4]
   8:	609a      	str	r2, [r3, #8]
   a:	60da      	str	r2, [r3, #12]
   c:	625a      	str	r2, [r3, #36]	; 0x24
   e:	629a      	str	r2, [r3, #40]	; 0x28
  10:	62da      	str	r2, [r3, #44]	; 0x2c
  12:	639a      	str	r2, [r3, #56]	; 0x38
  14:	63da      	str	r2, [r3, #60]	; 0x3c
  16:	4770      	bx	lr
  18:	40018000 	.word	0x40018000

0000001c <sdio_clock_config>:
  1c:	b570      	push	{r4, r5, r6, lr}
  1e:	4d0a      	ldr	r5, [pc, #40]	; (48 <sdio_clock_config+0x2c>)
  20:	4c0a      	ldr	r4, [pc, #40]	; (4c <sdio_clock_config+0x30>)
  22:	686e      	ldr	r6, [r5, #4]
  24:	2bff      	cmp	r3, #255	; 0xff
  26:	ea04 0406 	and.w	r4, r4, r6
  2a:	ea41 0102 	orr.w	r1, r1, r2
  2e:	bf84      	itt	hi
  30:	f5a3 7380 	subhi.w	r3, r3, #256	; 0x100
  34:	f044 4400 	orrhi.w	r4, r4, #2147483648	; 0x80000000
  38:	ea40 0001 	orr.w	r0, r0, r1
  3c:	bf88      	it	hi
  3e:	b29b      	uxthhi	r3, r3
  40:	4320      	orrs	r0, r4
  42:	4303      	orrs	r3, r0
  44:	606b      	str	r3, [r5, #4]
  46:	bd70      	pop	{r4, r5, r6, pc}
  48:	40018000 	.word	0x40018000
  4c:	7fffd900 	.word	0x7fffd900

00000050 <sdio_hardware_clock_enable>:
  50:	4a02      	ldr	r2, [pc, #8]	; (5c <sdio_hardware_clock_enable+0xc>)
  52:	6853      	ldr	r3, [r2, #4]
  54:	f443 4380 	orr.w	r3, r3, #16384	; 0x4000
  58:	6053      	str	r3, [r2, #4]
  5a:	4770      	bx	lr
  5c:	40018000 	.word	0x40018000

00000060 <sdio_hardware_clock_disable>:
  60:	4a02      	ldr	r2, [pc, #8]	; (6c <sdio_hardware_clock_disable+0xc>)
  62:	6853      	ldr	r3, [r2, #4]
  64:	f423 4380 	bic.w	r3, r3, #16384	; 0x4000
  68:	6053      	str	r3, [r2, #4]
  6a:	4770      	bx	lr
  6c:	40018000 	.word	0x40018000

00000070 <sdio_bus_mode_set>:
  70:	4b04      	ldr	r3, [pc, #16]	; (84 <sdio_bus_mode_set+0x14>)
  72:	685a      	ldr	r2, [r3, #4]
  74:	f422 52c0 	bic.w	r2, r2, #6144	; 0x1800
  78:	605a      	str	r2, [r3, #4]
  7a:	685a      	ldr	r2, [r3, #4]
  7c:	4302      	orrs	r2, r0
  7e:	605a      	str	r2, [r3, #4]
  80:	4770      	bx	lr
  82:	bf00      	nop
  84:	40018000 	.word	0x40018000

00000088 <sdio_power_state_set>:
  88:	4b01      	ldr	r3, [pc, #4]	; (90 <sdio_power_state_set+0x8>)
  8a:	6018      	str	r0, [r3, #0]
  8c:	4770      	bx	lr
  8e:	bf00      	nop
  90:	40018000 	.word	0x40018000

00000094 <sdio_power_state_get>:
  94:	4b01      	ldr	r3, [pc, #4]	; (9c <sdio_power_state_get+0x8>)
  96:	6818      	ldr	r0, [r3, #0]
  98:	4770      	bx	lr
  9a:	bf00      	nop
  9c:	40018000 	.word	0x40018000

000000a0 <sdio_clock_enable>:
  a0:	4a02      	ldr	r2, [pc, #8]	; (ac <sdio_clock_enable+0xc>)
  a2:	6853      	ldr	r3, [r2, #4]
  a4:	f443 7380 	orr.w	r3, r3, #256	; 0x100
  a8:	6053      	str	r3, [r2, #4]
  aa:	4770      	bx	lr
  ac:	40018000 	.word	0x40018000

000000b0 <sdio_clock_disable>:
  b0:	4a02      	ldr	r2, [pc, #8]	; (bc <sdio_clock_disable+0xc>)
  b2:	6853      	ldr	r3, [r2, #4]
  b4:	f423 7380 	bic.w	r3, r3, #256	; 0x100
  b8:	6053      	str	r3, [r2, #4]
  ba:	4770      	bx	lr
  bc:	40018000 	.word	0x40018000

000000c0 <sdio_command_response_config>:
  c0:	4b06      	ldr	r3, [pc, #24]	; (dc <sdio_command_response_config+0x1c>)
  c2:	b510      	push	{r4, lr}
  c4:	689c      	ldr	r4, [r3, #8]
  c6:	2400      	movs	r4, #0
  c8:	609c      	str	r4, [r3, #8]
  ca:	6099      	str	r1, [r3, #8]
  cc:	68d9      	ldr	r1, [r3, #12]
  ce:	f021 01ff 	bic.w	r1, r1, #255	; 0xff
  d2:	4311      	orrs	r1, r2
  d4:	4308      	orrs	r0, r1
  d6:	60d8      	str	r0, [r3, #12]
  d8:	bd10      	pop	{r4, pc}
  da:	bf00      	nop
  dc:	40018000 	.word	0x40018000

000000e0 <sdio_wait_type_set>:
  e0:	4b04      	ldr	r3, [pc, #16]	; (f4 <sdio_wait_type_set+0x14>)
  e2:	68da      	ldr	r2, [r3, #12]
  e4:	f422 7240 	bic.w	r2, r2, #768	; 0x300
  e8:	60da      	str	r2, [r3, #12]
  ea:	68da      	ldr	r2, [r3, #12]
  ec:	4302      	orrs	r2, r0
  ee:	60da      	str	r2, [r3, #12]
  f0:	4770      	bx	lr
  f2:	bf00      	nop
  f4:	40018000 	.word	0x40018000

000000f8 <sdio_csm_enable>:
  f8:	4a02      	ldr	r2, [pc, #8]	; (104 <sdio_csm_enable+0xc>)
  fa:	68d3      	ldr	r3, [r2, #12]
  fc:	f443 6380 	orr.w	r3, r3, #1024	; 0x400
 100:	60d3      	str	r3, [r2, #12]
 102:	4770      	bx	lr
 104:	40018000 	.word	0x40018000

00000108 <sdio_csm_disable>:
 108:	4a02      	ldr	r2, [pc, #8]	; (114 <sdio_csm_disable+0xc>)
 10a:	68d3      	ldr	r3, [r2, #12]
 10c:	f423 6380 	bic.w	r3, r3, #1024	; 0x400
 110:	60d3      	str	r3, [r2, #12]
 112:	4770      	bx	lr
 114:	40018000 	.word	0x40018000

00000118 <sdio_command_index_get>:
 118:	4b01      	ldr	r3, [pc, #4]	; (120 <sdio_command_index_get+0x8>)
 11a:	6918      	ldr	r0, [r3, #16]
 11c:	b2c0      	uxtb	r0, r0
 11e:	4770      	bx	lr
 120:	40018000 	.word	0x40018000

00000124 <sdio_response_get>:
 124:	2803      	cmp	r0, #3
 126:	d80f      	bhi.n	148 <sdio_response_get+0x24>
 128:	e8df f000 	tbb	[pc, r0]
 12c:	0b080502 	.word	0x0b080502
 130:	4b06      	ldr	r3, [pc, #24]	; (14c <sdio_response_get+0x28>)
 132:	6958      	ldr	r0, [r3, #20]
 134:	4770      	bx	lr
 136:	4b05      	ldr	r3, [pc, #20]	; (14c <sdio_response_get+0x28>)
 138:	6998      	ldr	r0, [r3, #24]
 13a:	4770      	bx	lr
 13c:	4b03      	ldr	r3, [pc, #12]	; (14c <sdio_response_get+0x28>)
 13e:	69d8      	ldr	r0, [r3, #28]
 140:	4770      	bx	lr
 142:	4b02      	ldr	r3, [pc, #8]	; (14c <sdio_response_get+0x28>)
 144:	6a18      	ldr	r0, [r3, #32]
 146:	4770      	bx	lr
 148:	2000      	movs	r0, #0
 14a:	4770      	bx	lr
 14c:	40018000 	.word	0x40018000

00000150 <sdio_data_config>:
 150:	4b09      	ldr	r3, [pc, #36]	; (178 <sdio_data_config+0x28>)
 152:	b510      	push	{r4, lr}
 154:	6a5c      	ldr	r4, [r3, #36]	; 0x24
 156:	2400      	movs	r4, #0
 158:	625c      	str	r4, [r3, #36]	; 0x24
 15a:	6a9c      	ldr	r4, [r3, #40]	; 0x28
 15c:	f004 447e 	and.w	r4, r4, #4261412864	; 0xfe000000
 160:	629c      	str	r4, [r3, #40]	; 0x28
 162:	6adc      	ldr	r4, [r3, #44]	; 0x2c
 164:	f024 04f0 	bic.w	r4, r4, #240	; 0xf0
 168:	62dc      	str	r4, [r3, #44]	; 0x2c
 16a:	6258      	str	r0, [r3, #36]	; 0x24
 16c:	6299      	str	r1, [r3, #40]	; 0x28
 16e:	6ad9      	ldr	r1, [r3, #44]	; 0x2c
 170:	4311      	orrs	r1, r2
 172:	62d9      	str	r1, [r3, #44]	; 0x2c
 174:	bd10      	pop	{r4, pc}
 176:	bf00      	nop
 178:	40018000 	.word	0x40018000

0000017c <sdio_data_transfer_config>:
 17c:	4a03      	ldr	r2, [pc, #12]	; (18c <sdio_data_transfer_config+0x10>)
 17e:	6ad3      	ldr	r3, [r2, #44]	; 0x2c
 180:	f023 0306 	bic.w	r3, r3, #6
 184:	430b      	orrs	r3, r1
 186:	4318      	orrs	r0, r3
 188:	62d0      	str	r0, [r2, #44]	; 0x2c
 18a:	4770      	bx	lr
 18c:	40018000 	.word	0x40018000

00000190 <sdio_dsm_enable>:
 190:	4a02      	ldr	r2, [pc, #8]	; (19c <sdio_dsm_enable+0xc>)
 192:	6ad3      	ldr	r3, [r2, #44]	; 0x2c
 194:	f043 0301 	orr.w	r3, r3, #1
 198:	62d3      	str	r3, [r2, #44]	; 0x2c
 19a:	4770      	bx	lr
 19c:	40018000 	.word	0x40018000

000001a0 <sdio_dsm_disable>:
 1a0:	4a02      	ldr	r2, [pc, #8]	; (1ac <sdio_dsm_disable+0xc>)
 1a2:	6ad3      	ldr	r3, [r2, #44]	; 0x2c
 1a4:	f023 0301 	bic.w	r3, r3, #1
 1a8:	62d3      	str	r3, [r2, #44]	; 0x2c
 1aa:	4770      	bx	lr
 1ac:	40018000 	.word	0x40018000

000001b0 <sdio_data_write>:
 1b0:	4b01      	ldr	r3, [pc, #4]	; (1b8 <sdio_data_write+0x8>)
 1b2:	f8c3 0080 	str.w	r0, [r3, #128]	; 0x80
 1b6:	4770      	bx	lr
 1b8:	40018000 	.word	0x40018000

000001bc <sdio_data_read>:
 1bc:	4b01      	ldr	r3, [pc, #4]	; (1c4 <sdio_data_read+0x8>)
 1be:	f8d3 0080 	ldr.w	r0, [r3, #128]	; 0x80
 1c2:	4770      	bx	lr
 1c4:	40018000 	.word	0x40018000

000001c8 <sdio_data_counter_get>:
 1c8:	4b01      	ldr	r3, [pc, #4]	; (1d0 <sdio_data_counter_get+0x8>)
 1ca:	6b18      	ldr	r0, [r3, #48]	; 0x30
 1cc:	4770      	bx	lr
 1ce:	bf00      	nop
 1d0:	40018000 	.word	0x40018000

000001d4 <sdio_fifo_counter_get>:
 1d4:	4b01      	ldr	r3, [pc, #4]	; (1dc <sdio_fifo_counter_get+0x8>)
 1d6:	6c98      	ldr	r0, [r3, #72]	; 0x48
 1d8:	4770      	bx	lr
 1da:	bf00      	nop
 1dc:	40018000 	.word	0x40018000

000001e0 <sdio_dma_enable>:
 1e0:	4a02      	ldr	r2, [pc, #8]	; (1ec <sdio_dma_enable+0xc>)
 1e2:	6ad3      	ldr	r3, [r2, #44]	; 0x2c
 1e4:	f043 0308 	orr.w	r3, r3, #8
 1e8:	62d3      	str	r3, [r2, #44]	; 0x2c
 1ea:	4770      	bx	lr
 1ec:	40018000 	.word	0x40018000

000001f0 <sdio_dma_disable>:
 1f0:	4a02      	ldr	r2, [pc, #8]	; (1fc <sdio_dma_disable+0xc>)
 1f2:	6ad3      	ldr	r3, [r2, #44]	; 0x2c
 1f4:	f023 0308 	bic.w	r3, r3, #8
 1f8:	62d3      	str	r3, [r2, #44]	; 0x2c
 1fa:	4770      	bx	lr
 1fc:	40018000 	.word	0x40018000

00000200 <sdio_readwait_enable>:
 200:	4a02      	ldr	r2, [pc, #8]	; (20c <sdio_readwait_enable+0xc>)
 202:	6ad3      	ldr	r3, [r2, #44]	; 0x2c
 204:	f443 7380 	orr.w	r3, r3, #256	; 0x100
 208:	62d3      	str	r3, [r2, #44]	; 0x2c
 20a:	4770      	bx	lr
 20c:	40018000 	.word	0x40018000

00000210 <sdio_readwait_disable>:
 210:	4a02      	ldr	r2, [pc, #8]	; (21c <sdio_readwait_disable+0xc>)
 212:	6ad3      	ldr	r3, [r2, #44]	; 0x2c
 214:	f423 7380 	bic.w	r3, r3, #256	; 0x100
 218:	62d3      	str	r3, [r2, #44]	; 0x2c
 21a:	4770      	bx	lr
 21c:	40018000 	.word	0x40018000

00000220 <sdio_stop_readwait_enable>:
 220:	4a02      	ldr	r2, [pc, #8]	; (22c <sdio_stop_readwait_enable+0xc>)
 222:	6ad3      	ldr	r3, [r2, #44]	; 0x2c
 224:	f443 7300 	orr.w	r3, r3, #512	; 0x200
 228:	62d3      	str	r3, [r2, #44]	; 0x2c
 22a:	4770      	bx	lr
 22c:	40018000 	.word	0x40018000

00000230 <sdio_stop_readwait_disable>:
 230:	4a02      	ldr	r2, [pc, #8]	; (23c <sdio_stop_readwait_disable+0xc>)
 232:	6ad3      	ldr	r3, [r2, #44]	; 0x2c
 234:	f423 7300 	bic.w	r3, r3, #512	; 0x200
 238:	62d3      	str	r3, [r2, #44]	; 0x2c
 23a:	4770      	bx	lr
 23c:	40018000 	.word	0x40018000

00000240 <sdio_readwait_type_set>:
 240:	4b05      	ldr	r3, [pc, #20]	; (258 <sdio_readwait_type_set+0x18>)
 242:	f5b0 6f80 	cmp.w	r0, #1024	; 0x400
 246:	6ada      	ldr	r2, [r3, #44]	; 0x2c
 248:	bf0c      	ite	eq
 24a:	f442 6280 	orreq.w	r2, r2, #1024	; 0x400
 24e:	f422 6280 	bicne.w	r2, r2, #1024	; 0x400
 252:	62da      	str	r2, [r3, #44]	; 0x2c
 254:	4770      	bx	lr
 256:	bf00      	nop
 258:	40018000 	.word	0x40018000

0000025c <sdio_operation_enable>:
 25c:	4a02      	ldr	r2, [pc, #8]	; (268 <sdio_operation_enable+0xc>)
 25e:	6ad3      	ldr	r3, [r2, #44]	; 0x2c
 260:	f443 6300 	orr.w	r3, r3, #2048	; 0x800
 264:	62d3      	str	r3, [r2, #44]	; 0x2c
 266:	4770      	bx	lr
 268:	40018000 	.word	0x40018000

0000026c <sdio_operation_disable>:
 26c:	4a02      	ldr	r2, [pc, #8]	; (278 <sdio_operation_disable+0xc>)
 26e:	6ad3      	ldr	r3, [r2, #44]	; 0x2c
 270:	f423 6300 	bic.w	r3, r3, #2048	; 0x800
 274:	62d3      	str	r3, [r2, #44]	; 0x2c
 276:	4770      	bx	lr
 278:	40018000 	.word	0x40018000

0000027c <sdio_suspend_enable>:
 27c:	4a02      	ldr	r2, [pc, #8]	; (288 <sdio_suspend_enable+0xc>)
 27e:	68d3      	ldr	r3, [r2, #12]
 280:	f443 6300 	orr.w	r3, r3, #2048	; 0x800
 284:	60d3      	str	r3, [r2, #12]
 286:	4770      	bx	lr
 288:	40018000 	.word	0x40018000

0000028c <sdio_suspend_disable>:
 28c:	4a02      	ldr	r2, [pc, #8]	; (298 <sdio_suspend_disable+0xc>)
 28e:	68d3      	ldr	r3, [r2, #12]
 290:	f423 6300 	bic.w	r3, r3, #2048	; 0x800
 294:	60d3      	str	r3, [r2, #12]
 296:	4770      	bx	lr
 298:	40018000 	.word	0x40018000

0000029c <sdio_ceata_command_enable>:
 29c:	4a02      	ldr	r2, [pc, #8]	; (2a8 <sdio_ceata_command_enable+0xc>)
 29e:	68d3      	ldr	r3, [r2, #12]
 2a0:	f443 4380 	orr.w	r3, r3, #16384	; 0x4000
 2a4:	60d3      	str	r3, [r2, #12]
 2a6:	4770      	bx	lr
 2a8:	40018000 	.word	0x40018000

000002ac <sdio_ceata_command_disable>:
 2ac:	4a02      	ldr	r2, [pc, #8]	; (2b8 <sdio_ceata_command_disable+0xc>)
 2ae:	68d3      	ldr	r3, [r2, #12]
 2b0:	f423 4380 	bic.w	r3, r3, #16384	; 0x4000
 2b4:	60d3      	str	r3, [r2, #12]
 2b6:	4770      	bx	lr
 2b8:	40018000 	.word	0x40018000

000002bc <sdio_ceata_interrupt_enable>:
 2bc:	4a02      	ldr	r2, [pc, #8]	; (2c8 <sdio_ceata_interrupt_enable+0xc>)
 2be:	68d3      	ldr	r3, [r2, #12]
 2c0:	f423 5300 	bic.w	r3, r3, #8192	; 0x2000
 2c4:	60d3      	str	r3, [r2, #12]
 2c6:	4770      	bx	lr
 2c8:	40018000 	.word	0x40018000

000002cc <sdio_ceata_interrupt_disable>:
 2cc:	4a02      	ldr	r2, [pc, #8]	; (2d8 <sdio_ceata_interrupt_disable+0xc>)
 2ce:	68d3      	ldr	r3, [r2, #12]
 2d0:	f443 5300 	orr.w	r3, r3, #8192	; 0x2000
 2d4:	60d3      	str	r3, [r2, #12]
 2d6:	4770      	bx	lr
 2d8:	40018000 	.word	0x40018000

000002dc <sdio_ceata_command_completion_enable>:
 2dc:	4a02      	ldr	r2, [pc, #8]	; (2e8 <sdio_ceata_command_completion_enable+0xc>)
 2de:	68d3      	ldr	r3, [r2, #12]
 2e0:	f443 5380 	orr.w	r3, r3, #4096	; 0x1000
 2e4:	60d3      	str	r3, [r2, #12]
 2e6:	4770      	bx	lr
 2e8:	40018000 	.word	0x40018000

000002ec <sdio_ceata_command_completion_disable>:
 2ec:	4a02      	ldr	r2, [pc, #8]	; (2f8 <sdio_ceata_command_completion_disable+0xc>)
 2ee:	68d3      	ldr	r3, [r2, #12]
 2f0:	f423 5380 	bic.w	r3, r3, #4096	; 0x1000
 2f4:	60d3      	str	r3, [r2, #12]
 2f6:	4770      	bx	lr
 2f8:	40018000 	.word	0x40018000

000002fc <sdio_flag_get>:
 2fc:	4b03      	ldr	r3, [pc, #12]	; (30c <sdio_flag_get+0x10>)
 2fe:	6b5b      	ldr	r3, [r3, #52]	; 0x34
 300:	4203      	tst	r3, r0
 302:	bf14      	ite	ne
 304:	2001      	movne	r0, #1
 306:	2000      	moveq	r0, #0
 308:	4770      	bx	lr
 30a:	bf00      	nop
 30c:	40018000 	.word	0x40018000

00000310 <sdio_flag_clear>:
 310:	4b01      	ldr	r3, [pc, #4]	; (318 <sdio_flag_clear+0x8>)
 312:	6398      	str	r0, [r3, #56]	; 0x38
 314:	4770      	bx	lr
 316:	bf00      	nop
 318:	40018000 	.word	0x40018000

0000031c <sdio_interrupt_enable>:
 31c:	4a02      	ldr	r2, [pc, #8]	; (328 <sdio_interrupt_enable+0xc>)
 31e:	6bd3      	ldr	r3, [r2, #60]	; 0x3c
 320:	4303      	orrs	r3, r0
 322:	63d3      	str	r3, [r2, #60]	; 0x3c
 324:	4770      	bx	lr
 326:	bf00      	nop
 328:	40018000 	.word	0x40018000

0000032c <sdio_interrupt_disable>:
 32c:	4a02      	ldr	r2, [pc, #8]	; (338 <sdio_interrupt_disable+0xc>)
 32e:	6bd3      	ldr	r3, [r2, #60]	; 0x3c
 330:	ea23 0300 	bic.w	r3, r3, r0
 334:	63d3      	str	r3, [r2, #60]	; 0x3c
 336:	4770      	bx	lr
 338:	40018000 	.word	0x40018000

0000033c <sdio_interrupt_flag_get>:
 33c:	4602      	mov	r2, r0
 33e:	4905      	ldr	r1, [pc, #20]	; (354 <sdio_interrupt_flag_get+0x18>)
 340:	6b48      	ldr	r0, [r1, #52]	; 0x34
 342:	4010      	ands	r0, r2
 344:	d004      	beq.n	350 <sdio_interrupt_flag_get+0x14>
 346:	6bcb      	ldr	r3, [r1, #60]	; 0x3c
 348:	421a      	tst	r2, r3
 34a:	bf14      	ite	ne
 34c:	2001      	movne	r0, #1
 34e:	2000      	moveq	r0, #0
 350:	4770      	bx	lr
 352:	bf00      	nop
 354:	40018000 	.word	0x40018000

00000358 <sdio_interrupt_flag_clear>:
 358:	4b01      	ldr	r3, [pc, #4]	; (360 <sdio_interrupt_flag_clear+0x8>)
 35a:	6398      	str	r0, [r3, #56]	; 0x38
 35c:	4770      	bx	lr
 35e:	bf00      	nop
 360:	40018000 	.word	0x40018000

gd32f20x_spi.o:     file format elf32-littlearm


Disassembly of section .text:

00000000 <spi_i2s_deinit>:
   0:	b508      	push	{r3, lr}
   2:	4b12      	ldr	r3, [pc, #72]	; (4c <spi_i2s_deinit+0x4c>)
   4:	4298      	cmp	r0, r3
   6:	d018      	beq.n	3a <spi_i2s_deinit+0x3a>
   8:	f503 4374 	add.w	r3, r3, #62464	; 0xf400
   c:	4298      	cmp	r0, r3
   e:	d00a      	beq.n	26 <spi_i2s_deinit+0x26>
  10:	f5a3 4378 	sub.w	r3, r3, #63488	; 0xf800
  14:	4298      	cmp	r0, r3
  16:	d117      	bne.n	48 <spi_i2s_deinit+0x48>
  18:	f240 400e 	movw	r0, #1038	; 0x40e
  1c:	f7ff fffe 	bl	0 <rcu_periph_reset_enable>
  20:	f240 400e 	movw	r0, #1038	; 0x40e
  24:	e005      	b.n	32 <spi_i2s_deinit+0x32>
  26:	f44f 7043 	mov.w	r0, #780	; 0x30c
  2a:	f7ff fffe 	bl	0 <rcu_periph_reset_enable>
  2e:	f44f 7043 	mov.w	r0, #780	; 0x30c
  32:	e8bd 4008 	ldmia.w	sp!, {r3, lr}
  36:	f7ff bffe 	b.w	0 <rcu_periph_reset_disable>
  3a:	f240 400f 	movw	r0, #1039	; 0x40f
  3e:	f7ff fffe 	bl	0 <rcu_periph_reset_enable>
  42:	f240 400f 	movw	r0, #1039	; 0x40f
  46:	e7f4      	b.n	32 <spi_i2s_deinit+0x32>
  48:	bd08      	pop	{r3, pc}
  4a:	bf00      	nop
  4c:	40003c00 	.word	0x40003c00

00000050 <spi_struct_para_init>:
  50:	2300      	movs	r3, #0
  52:	e9c0 3300 	strd	r3, r3, [r0]
  56:	e9c0 3302 	strd	r3, r3, [r0, #8]
  5a:	e9c0 3305 	strd	r3, r3, [r0, #20]
  5e:	4770      	bx	lr

00000060 <spi_init>:
  60:	b510      	push	{r4, lr}
  62:	e9d1 3400 	ldrd	r3, r4, [r1]
  66:	4323      	orrs	r3, r4
  68:	688c      	ldr	r4, [r1, #8]
  6a:	6802      	ldr	r2, [r0, #0]
  6c:	4323      	orrs	r3, r4
  6e:	68cc      	ldr	r4, [r1, #12]
  70:	f402 5241 	and.w	r2, r2, #12352	; 0x3040
  74:	4323      	orrs	r3, r4
  76:	690c      	ldr	r4, [r1, #16]
  78:	4323      	orrs	r3, r4
  7a:	694c      	ldr	r4, [r1, #20]
  7c:	6989      	ldr	r1, [r1, #24]
  7e:	4323      	orrs	r3, r4
  80:	430b      	orrs	r3, r1
  82:	4313      	orrs	r3, r2
  84:	6003      	str	r3, [r0, #0]
  86:	69c3      	ldr	r3, [r0, #28]
  88:	f423 6300 	bic.w	r3, r3, #2048	; 0x800
  8c:	61c3      	str	r3, [r0, #28]
  8e:	bd10      	pop	{r4, pc}

00000090 <spi_enable>:
  90:	6803      	ldr	r3, [r0, #0]
  92:	f043 0340 	orr.w	r3, r3, #64	; 0x40
  96:	6003      	str	r3, [r0, #0]
  98:	4770      	bx	lr

0000009a <spi_disable>:
  9a:	6803      	ldr	r3, [r0, #0]
  9c:	f023 0340 	bic.w	r3, r3, #64	; 0x40
  a0:	6003      	str	r3, [r0, #0]
  a2:	4770      	bx	lr

000000a4 <i2s_init>:
  a4:	b510      	push	{r4, lr}
  a6:	69c4      	ldr	r4, [r0, #28]
  a8:	f424 647b 	bic.w	r4, r4, #4016	; 0xfb0
  ac:	f024 0408 	bic.w	r4, r4, #8
  b0:	0424      	lsls	r4, r4, #16
  b2:	0c24      	lsrs	r4, r4, #16
  b4:	431c      	orrs	r4, r3
  b6:	4314      	orrs	r4, r2
  b8:	430c      	orrs	r4, r1
  ba:	f444 6400 	orr.w	r4, r4, #2048	; 0x800
  be:	61c4      	str	r4, [r0, #28]
  c0:	bd10      	pop	{r4, pc}

000000c2 <i2s_psc_config>:
  c2:	e92d 41f0 	stmdb	sp!, {r4, r5, r6, r7, r8, lr}
  c6:	4698      	mov	r8, r3
  c8:	2302      	movs	r3, #2
  ca:	6203      	str	r3, [r0, #32]
  cc:	4b26      	ldr	r3, [pc, #152]	; (168 <i2s_psc_config+0xa6>)
  ce:	4617      	mov	r7, r2
  d0:	4298      	cmp	r0, r3
  d2:	bf0c      	ite	eq
  d4:	f44f 3300 	moveq.w	r3, #131072	; 0x20000
  d8:	f44f 2380 	movne.w	r3, #262144	; 0x40000
  dc:	4a23      	ldr	r2, [pc, #140]	; (16c <i2s_psc_config+0xaa>)
  de:	4605      	mov	r5, r0
  e0:	6ad0      	ldr	r0, [r2, #44]	; 0x2c
  e2:	460e      	mov	r6, r1
  e4:	4018      	ands	r0, r3
  e6:	d036      	beq.n	156 <i2s_psc_config+0x94>
  e8:	6ad3      	ldr	r3, [r2, #44]	; 0x2c
  ea:	f3c3 3303 	ubfx	r3, r3, #12, #4
  ee:	1f99      	subs	r1, r3, #6
  f0:	2908      	cmp	r1, #8
  f2:	d82c      	bhi.n	14e <i2s_psc_config+0x8c>
  f4:	3302      	adds	r3, #2
  f6:	6ad2      	ldr	r2, [r2, #44]	; 0x2c
  f8:	481d      	ldr	r0, [pc, #116]	; (170 <i2s_psc_config+0xae>)
  fa:	f3c2 1203 	ubfx	r2, r2, #4, #4
  fe:	3201      	adds	r2, #1
 100:	fbb0 f0f2 	udiv	r0, r0, r2
 104:	4358      	muls	r0, r3
 106:	0040      	lsls	r0, r0, #1
 108:	f5b8 7f00 	cmp.w	r8, #512	; 0x200
 10c:	f04f 030a 	mov.w	r3, #10
 110:	d124      	bne.n	15c <i2s_psc_config+0x9a>
 112:	0a04      	lsrs	r4, r0, #8
 114:	435c      	muls	r4, r3
 116:	fbb4 f6f6 	udiv	r6, r4, r6
 11a:	230a      	movs	r3, #10
 11c:	3605      	adds	r6, #5
 11e:	fbb6 f6f3 	udiv	r6, r6, r3
 122:	f006 0301 	and.w	r3, r6, #1
 126:	0876      	lsrs	r6, r6, #1
 128:	1eb2      	subs	r2, r6, #2
 12a:	2afd      	cmp	r2, #253	; 0xfd
 12c:	bf86      	itte	hi
 12e:	2300      	movhi	r3, #0
 130:	2602      	movhi	r6, #2
 132:	021b      	lslls	r3, r3, #8
 134:	431e      	orrs	r6, r3
 136:	ea46 0608 	orr.w	r6, r6, r8
 13a:	622e      	str	r6, [r5, #32]
 13c:	69eb      	ldr	r3, [r5, #28]
 13e:	f023 0307 	bic.w	r3, r3, #7
 142:	61eb      	str	r3, [r5, #28]
 144:	69eb      	ldr	r3, [r5, #28]
 146:	433b      	orrs	r3, r7
 148:	61eb      	str	r3, [r5, #28]
 14a:	e8bd 81f0 	ldmia.w	sp!, {r4, r5, r6, r7, r8, pc}
 14e:	2b0f      	cmp	r3, #15
 150:	bf08      	it	eq
 152:	2314      	moveq	r3, #20
 154:	e7cf      	b.n	f6 <i2s_psc_config+0x34>
 156:	f7ff fffe 	bl	0 <rcu_clock_freq_get>
 15a:	e7d5      	b.n	108 <i2s_psc_config+0x46>
 15c:	b90f      	cbnz	r7, 162 <i2s_psc_config+0xa0>
 15e:	0944      	lsrs	r4, r0, #5
 160:	e7d8      	b.n	114 <i2s_psc_config+0x52>
 162:	0984      	lsrs	r4, r0, #6
 164:	e7d6      	b.n	114 <i2s_psc_config+0x52>
 166:	bf00      	nop
 168:	40003800 	.word	0x40003800
 16c:	40021000 	.word	0x40021000
 170:	017d7840 	.word	0x017d7840

00000174 <i2s_enable>:
 174:	69c3      	ldr	r3, [r0, #28]
 176:	f443 6380 	orr.w	r3, r3, #1024	; 0x400
 17a:	61c3      	str	r3, [r0, #28]
 17c:	4770      	bx	lr

0000017e <i2s_disable>:
 17e:	69c3      	ldr	r3, [r0, #28]
 180:	f423 6380 	bic.w	r3, r3, #1024	; 0x400
 184:	61c3      	str	r3, [r0, #28]
 186:	4770      	bx	lr

00000188 <spi_nss_output_enable>:
 188:	6843      	ldr	r3, [r0, #4]
 18a:	f043 0304 	orr.w	r3, r3, #4
 18e:	6043      	str	r3, [r0, #4]
 190:	4770      	bx	lr

00000192 <spi_nss_output_disable>:
 192:	6843      	ldr	r3, [r0, #4]
 194:	f023 0304 	bic.w	r3, r3, #4
 198:	6043      	str	r3, [r0, #4]
 19a:	4770      	bx	lr

0000019c <spi_nss_internal_high>:
 19c:	6803      	ldr	r3, [r0, #0]
 19e:	f443 7380 	orr.w	r3, r3, #256	; 0x100
 1a2:	6003      	str	r3, [r0, #0]
 1a4:	4770      	bx	lr

000001a6 <spi_nss_internal_low>:
 1a6:	6803      	ldr	r3, [r0, #0]
 1a8:	f423 7380 	bic.w	r3, r3, #256	; 0x100
 1ac:	6003      	str	r3, [r0, #0]
 1ae:	4770      	bx	lr

000001b0 <spi_dma_enable>:
 1b0:	6843      	ldr	r3, [r0, #4]
 1b2:	b919      	cbnz	r1, 1bc <spi_dma_enable+0xc>
 1b4:	f043 0302 	orr.w	r3, r3, #2
 1b8:	6043      	str	r3, [r0, #4]
 1ba:	4770      	bx	lr
 1bc:	f043 0301 	orr.w	r3, r3, #1
 1c0:	e7fa      	b.n	1b8 <spi_dma_enable+0x8>

000001c2 <spi_dma_disable>:
 1c2:	6843      	ldr	r3, [r0, #4]
 1c4:	b919      	cbnz	r1, 1ce <spi_dma_disable+0xc>
 1c6:	f023 0302 	bic.w	r3, r3, #2
 1ca:	6043      	str	r3, [r0, #4]
 1cc:	4770      	bx	lr
 1ce:	f023 0301 	bic.w	r3, r3, #1
 1d2:	e7fa      	b.n	1ca <spi_dma_disable+0x8>

000001d4 <spi_i2s_data_frame_format_config>:
 1d4:	6803      	ldr	r3, [r0, #0]
 1d6:	f423 6300 	bic.w	r3, r3, #2048	; 0x800
 1da:	6003      	str	r3, [r0, #0]
 1dc:	6803      	ldr	r3, [r0, #0]
 1de:	4319      	orrs	r1, r3
 1e0:	6001      	str	r1, [r0, #0]
 1e2:	4770      	bx	lr

000001e4 <spi_i2s_data_transmit>:
 1e4:	60c1      	str	r1, [r0, #12]
 1e6:	4770      	bx	lr

000001e8 <spi_i2s_data_receive>:
 1e8:	68c0      	ldr	r0, [r0, #12]
 1ea:	b280      	uxth	r0, r0
 1ec:	4770      	bx	lr

000001ee <spi_bidirectional_transfer_config>:
 1ee:	6803      	ldr	r3, [r0, #0]
 1f0:	f5b1 4f80 	cmp.w	r1, #16384	; 0x4000
 1f4:	bf0c      	ite	eq
 1f6:	f443 4380 	orreq.w	r3, r3, #16384	; 0x4000
 1fa:	f423 4380 	bicne.w	r3, r3, #16384	; 0x4000
 1fe:	6003      	str	r3, [r0, #0]
 200:	4770      	bx	lr

00000202 <spi_crc_polynomial_set>:
 202:	6803      	ldr	r3, [r0, #0]
 204:	f443 5300 	orr.w	r3, r3, #8192	; 0x2000
 208:	6003      	str	r3, [r0, #0]
 20a:	6101      	str	r1, [r0, #16]
 20c:	4770      	bx	lr

0000020e <spi_crc_polynomial_get>:
 20e:	6900      	ldr	r0, [r0, #16]
 210:	b280      	uxth	r0, r0
 212:	4770      	bx	lr

00000214 <spi_crc_on>:
 214:	6803      	ldr	r3, [r0, #0]
 216:	f443 5300 	orr.w	r3, r3, #8192	; 0x2000
 21a:	6003      	str	r3, [r0, #0]
 21c:	4770      	bx	lr

0000021e <spi_crc_off>:
 21e:	6803      	ldr	r3, [r0, #0]
 220:	f423 5300 	bic.w	r3, r3, #8192	; 0x2000
 224:	6003      	str	r3, [r0, #0]
 226:	4770      	bx	lr

00000228 <spi_crc_next>:
 228:	6803      	ldr	r3, [r0, #0]
 22a:	f443 5380 	orr.w	r3, r3, #4096	; 0x1000
 22e:	6003      	str	r3, [r0, #0]
 230:	4770      	bx	lr

00000232 <spi_crc_get>:
 232:	b911      	cbnz	r1, 23a <spi_crc_get+0x8>
 234:	6980      	ldr	r0, [r0, #24]
 236:	b280      	uxth	r0, r0
 238:	4770      	bx	lr
 23a:	6940      	ldr	r0, [r0, #20]
 23c:	e7fb      	b.n	236 <spi_crc_get+0x4>

0000023e <spi_i2s_interrupt_enable>:
 23e:	2901      	cmp	r1, #1
 240:	d007      	beq.n	252 <spi_i2s_interrupt_enable+0x14>
 242:	2902      	cmp	r1, #2
 244:	d009      	beq.n	25a <spi_i2s_interrupt_enable+0x1c>
 246:	b919      	cbnz	r1, 250 <spi_i2s_interrupt_enable+0x12>
 248:	6843      	ldr	r3, [r0, #4]
 24a:	f043 0380 	orr.w	r3, r3, #128	; 0x80
 24e:	6043      	str	r3, [r0, #4]
 250:	4770      	bx	lr
 252:	6843      	ldr	r3, [r0, #4]
 254:	f043 0340 	orr.w	r3, r3, #64	; 0x40
 258:	e7f9      	b.n	24e <spi_i2s_interrupt_enable+0x10>
 25a:	6843      	ldr	r3, [r0, #4]
 25c:	f043 0320 	orr.w	r3, r3, #32
 260:	e7f5      	b.n	24e <spi_i2s_interrupt_enable+0x10>

00000262 <spi_i2s_interrupt_disable>:
 262:	2901      	cmp	r1, #1
 264:	d007      	beq.n	276 <spi_i2s_interrupt_disable+0x14>
 266:	2902      	cmp	r1, #2
 268:	d009      	beq.n	27e <spi_i2s_interrupt_disable+0x1c>
 26a:	b919      	cbnz	r1, 274 <spi_i2s_interrupt_disable+0x12>
 26c:	6843      	ldr	r3, [r0, #4]
 26e:	f023 0380 	bic.w	r3, r3, #128	; 0x80
 272:	6043      	str	r3, [r0, #4]
 274:	4770      	bx	lr
 276:	6843      	ldr	r3, [r0, #4]
 278:	f023 0340 	bic.w	r3, r3, #64	; 0x40
 27c:	e7f9      	b.n	272 <spi_i2s_interrupt_disable+0x10>
 27e:	6843      	ldr	r3, [r0, #4]
 280:	f023 0320 	bic.w	r3, r3, #32
 284:	e7f5      	b.n	272 <spi_i2s_interrupt_disable+0x10>

00000286 <spi_i2s_interrupt_flag_get>:
 286:	6883      	ldr	r3, [r0, #8]
 288:	6842      	ldr	r2, [r0, #4]
 28a:	2905      	cmp	r1, #5
 28c:	d808      	bhi.n	2a0 <spi_i2s_interrupt_flag_get+0x1a>
 28e:	e8df f001 	tbb	[pc, r1]
 292:	0c03      	.short	0x0c03
 294:	1c191611 	.word	0x1c191611
 298:	f003 0302 	and.w	r3, r3, #2
 29c:	f002 0280 	and.w	r2, r2, #128	; 0x80
 2a0:	b1b3      	cbz	r3, 2d0 <spi_i2s_interrupt_flag_get+0x4a>
 2a2:	1e10      	subs	r0, r2, #0
 2a4:	bf18      	it	ne
 2a6:	2001      	movne	r0, #1
 2a8:	4770      	bx	lr
 2aa:	f003 0301 	and.w	r3, r3, #1
 2ae:	f002 0240 	and.w	r2, r2, #64	; 0x40
 2b2:	e7f5      	b.n	2a0 <spi_i2s_interrupt_flag_get+0x1a>
 2b4:	f003 0340 	and.w	r3, r3, #64	; 0x40
 2b8:	f002 0220 	and.w	r2, r2, #32
 2bc:	e7f0      	b.n	2a0 <spi_i2s_interrupt_flag_get+0x1a>
 2be:	f003 0320 	and.w	r3, r3, #32
 2c2:	e7f9      	b.n	2b8 <spi_i2s_interrupt_flag_get+0x32>
 2c4:	f003 0310 	and.w	r3, r3, #16
 2c8:	e7f6      	b.n	2b8 <spi_i2s_interrupt_flag_get+0x32>
 2ca:	f003 0308 	and.w	r3, r3, #8
 2ce:	e7f3      	b.n	2b8 <spi_i2s_interrupt_flag_get+0x32>
 2d0:	4618      	mov	r0, r3
 2d2:	4770      	bx	lr

000002d4 <spi_i2s_flag_get>:
 2d4:	6883      	ldr	r3, [r0, #8]
 2d6:	420b      	tst	r3, r1
 2d8:	bf14      	ite	ne
 2da:	2001      	movne	r0, #1
 2dc:	2000      	moveq	r0, #0
 2de:	4770      	bx	lr

000002e0 <spi_crc_error_clear>:
 2e0:	6883      	ldr	r3, [r0, #8]
 2e2:	f023 0310 	bic.w	r3, r3, #16
 2e6:	6083      	str	r3, [r0, #8]
 2e8:	4770      	bx	lr

000002ea <qspi_enable>:
 2ea:	f8d0 3080 	ldr.w	r3, [r0, #128]	; 0x80
 2ee:	f043 0301 	orr.w	r3, r3, #1
 2f2:	f8c0 3080 	str.w	r3, [r0, #128]	; 0x80
 2f6:	4770      	bx	lr

000002f8 <qspi_disable>:
 2f8:	f8d0 3080 	ldr.w	r3, [r0, #128]	; 0x80
 2fc:	f023 0301 	bic.w	r3, r3, #1
 300:	f8c0 3080 	str.w	r3, [r0, #128]	; 0x80
 304:	4770      	bx	lr

00000306 <qspi_write_enable>:
 306:	f8d0 3080 	ldr.w	r3, [r0, #128]	; 0x80
 30a:	f023 0302 	bic.w	r3, r3, #2
 30e:	f8c0 3080 	str.w	r3, [r0, #128]	; 0x80
 312:	4770      	bx	lr

00000314 <qspi_read_enable>:
 314:	f8d0 3080 	ldr.w	r3, [r0, #128]	; 0x80
 318:	f043 0302 	orr.w	r3, r3, #2
 31c:	f8c0 3080 	str.w	r3, [r0, #128]	; 0x80
 320:	4770      	bx	lr

00000322 <qspi_io23_output_enable>:
 322:	f8d0 3080 	ldr.w	r3, [r0, #128]	; 0x80
 326:	f043 0304 	orr.w	r3, r3, #4
 32a:	f8c0 3080 	str.w	r3, [r0, #128]	; 0x80
 32e:	4770      	bx	lr

00000330 <qspi_io23_output_disable>:
 330:	f8d0 3080 	ldr.w	r3, [r0, #128]	; 0x80
 334:	f023 0304 	bic.w	r3, r3, #4
 338:	f8c0 3080 	str.w	r3, [r0, #128]	; 0x80
 33c:	4770      	bx	lr
 33e:	bf00      	nop

gd32f20x_timer.o:     file format elf32-littlearm


Disassembly of section .text:

00000000 <timer_deinit>:
   0:	b508      	push	{r3, lr}
   2:	4b4e      	ldr	r3, [pc, #312]	; (13c <timer_deinit+0x13c>)
   4:	4298      	cmp	r0, r3
   6:	f000 8092 	beq.w	12e <timer_deinit+0x12e>
   a:	d822      	bhi.n	52 <timer_deinit+0x52>
   c:	f5a3 5380 	sub.w	r3, r3, #4096	; 0x1000
  10:	4298      	cmp	r0, r3
  12:	d062      	beq.n	da <timer_deinit+0xda>
  14:	d80b      	bhi.n	2e <timer_deinit+0x2e>
  16:	f5a3 6300 	sub.w	r3, r3, #2048	; 0x800
  1a:	4298      	cmp	r0, r3
  1c:	d04f      	beq.n	be <timer_deinit+0xbe>
  1e:	f503 6380 	add.w	r3, r3, #1024	; 0x400
  22:	4298      	cmp	r0, r3
  24:	d052      	beq.n	cc <timer_deinit+0xcc>
  26:	f1b0 4f80 	cmp.w	r0, #1073741824	; 0x40000000
  2a:	d041      	beq.n	b0 <timer_deinit+0xb0>
  2c:	bd08      	pop	{r3, pc}
  2e:	4b44      	ldr	r3, [pc, #272]	; (140 <timer_deinit+0x140>)
  30:	4298      	cmp	r0, r3
  32:	d059      	beq.n	e8 <timer_deinit+0xe8>
  34:	f503 6380 	add.w	r3, r3, #1024	; 0x400
  38:	4298      	cmp	r0, r3
  3a:	d071      	beq.n	120 <timer_deinit+0x120>
  3c:	f5a3 6300 	sub.w	r3, r3, #2048	; 0x800
  40:	4298      	cmp	r0, r3
  42:	d1f3      	bne.n	2c <timer_deinit+0x2c>
  44:	f240 4004 	movw	r0, #1028	; 0x404
  48:	f7ff fffe 	bl	0 <rcu_periph_reset_enable>
  4c:	f240 4004 	movw	r0, #1028	; 0x404
  50:	e02a      	b.n	a8 <timer_deinit+0xa8>
  52:	4b3c      	ldr	r3, [pc, #240]	; (144 <timer_deinit+0x144>)
  54:	4298      	cmp	r0, r3
  56:	d055      	beq.n	104 <timer_deinit+0x104>
  58:	d812      	bhi.n	80 <timer_deinit+0x80>
  5a:	f5a3 5300 	sub.w	r3, r3, #8192	; 0x2000
  5e:	4298      	cmp	r0, r3
  60:	d01c      	beq.n	9c <timer_deinit+0x9c>
  62:	f503 6300 	add.w	r3, r3, #2048	; 0x800
  66:	4298      	cmp	r0, r3
  68:	d045      	beq.n	f6 <timer_deinit+0xf6>
  6a:	f5a3 338a 	sub.w	r3, r3, #70656	; 0x11400
  6e:	4298      	cmp	r0, r3
  70:	d1dc      	bne.n	2c <timer_deinit+0x2c>
  72:	f44f 6081 	mov.w	r0, #1032	; 0x408
  76:	f7ff fffe 	bl	0 <rcu_periph_reset_enable>
  7a:	f44f 6081 	mov.w	r0, #1032	; 0x408
  7e:	e013      	b.n	a8 <timer_deinit+0xa8>
  80:	4b31      	ldr	r3, [pc, #196]	; (148 <timer_deinit+0x148>)
  82:	4298      	cmp	r0, r3
  84:	d045      	beq.n	112 <timer_deinit+0x112>
  86:	f503 6380 	add.w	r3, r3, #1024	; 0x400
  8a:	4298      	cmp	r0, r3
  8c:	d1ce      	bne.n	2c <timer_deinit+0x2c>
  8e:	f240 3015 	movw	r0, #789	; 0x315
  92:	f7ff fffe 	bl	0 <rcu_periph_reset_enable>
  96:	f240 3015 	movw	r0, #789	; 0x315
  9a:	e005      	b.n	a8 <timer_deinit+0xa8>
  9c:	f240 300b 	movw	r0, #779	; 0x30b
  a0:	f7ff fffe 	bl	0 <rcu_periph_reset_enable>
  a4:	f240 300b 	movw	r0, #779	; 0x30b
  a8:	e8bd 4008 	ldmia.w	sp!, {r3, lr}
  ac:	f7ff bffe 	b.w	0 <rcu_periph_reset_disable>
  b0:	f44f 6080 	mov.w	r0, #1024	; 0x400
  b4:	f7ff fffe 	bl	0 <rcu_periph_reset_enable>
  b8:	f44f 6080 	mov.w	r0, #1024	; 0x400
  bc:	e7f4      	b.n	a8 <timer_deinit+0xa8>
  be:	f240 4001 	movw	r0, #1025	; 0x401
  c2:	f7ff fffe 	bl	0 <rcu_periph_reset_enable>
  c6:	f240 4001 	movw	r0, #1025	; 0x401
  ca:	e7ed      	b.n	a8 <timer_deinit+0xa8>
  cc:	f240 4002 	movw	r0, #1026	; 0x402
  d0:	f7ff fffe 	bl	0 <rcu_periph_reset_enable>
  d4:	f240 4002 	movw	r0, #1026	; 0x402
  d8:	e7e6      	b.n	a8 <timer_deinit+0xa8>
  da:	f240 4003 	movw	r0, #1027	; 0x403
  de:	f7ff fffe 	bl	0 <rcu_periph_reset_enable>
  e2:	f240 4003 	movw	r0, #1027	; 0x403
  e6:	e7df      	b.n	a8 <timer_deinit+0xa8>
  e8:	f240 4005 	movw	r0, #1029	; 0x405
  ec:	f7ff fffe 	bl	0 <rcu_periph_reset_enable>
  f0:	f240 4005 	movw	r0, #1029	; 0x405
  f4:	e7d8      	b.n	a8 <timer_deinit+0xa8>
  f6:	f240 300d 	movw	r0, #781	; 0x30d
  fa:	f7ff fffe 	bl	0 <rcu_periph_reset_enable>
  fe:	f240 300d 	movw	r0, #781	; 0x30d
 102:	e7d1      	b.n	a8 <timer_deinit+0xa8>
 104:	f240 3013 	movw	r0, #787	; 0x313
 108:	f7ff fffe 	bl	0 <rcu_periph_reset_enable>
 10c:	f240 3013 	movw	r0, #787	; 0x313
 110:	e7ca      	b.n	a8 <timer_deinit+0xa8>
 112:	f44f 7045 	mov.w	r0, #788	; 0x314
 116:	f7ff fffe 	bl	0 <rcu_periph_reset_enable>
 11a:	f44f 7045 	mov.w	r0, #788	; 0x314
 11e:	e7c3      	b.n	a8 <timer_deinit+0xa8>
 120:	f240 4006 	movw	r0, #1030	; 0x406
 124:	f7ff fffe 	bl	0 <rcu_periph_reset_enable>
 128:	f240 4006 	movw	r0, #1030	; 0x406
 12c:	e7bc      	b.n	a8 <timer_deinit+0xa8>
 12e:	f240 4007 	movw	r0, #1031	; 0x407
 132:	f7ff fffe 	bl	0 <rcu_periph_reset_enable>
 136:	f240 4007 	movw	r0, #1031	; 0x407
 13a:	e7b5      	b.n	a8 <timer_deinit+0xa8>
 13c:	40001c00 	.word	0x40001c00
 140:	40001400 	.word	0x40001400
 144:	40014c00 	.word	0x40014c00
 148:	40015000 	.word	0x40015000

0000014c <timer_struct_para_init>:
 14c:	2300      	movs	r3, #0
 14e:	f64f 72ff 	movw	r2, #65535	; 0xffff
 152:	6003      	str	r3, [r0, #0]
 154:	8083      	strh	r3, [r0, #4]
 156:	6082      	str	r2, [r0, #8]
 158:	8183      	strh	r3, [r0, #12]
 15a:	7383      	strb	r3, [r0, #14]
 15c:	4770      	bx	lr

0000015e <timer_init>:
 15e:	880b      	ldrh	r3, [r1, #0]
 160:	b510      	push	{r4, lr}
 162:	6283      	str	r3, [r0, #40]	; 0x28
 164:	4b24      	ldr	r3, [pc, #144]	; (1f8 <timer_init+0x9a>)
 166:	f420 6280 	bic.w	r2, r0, #1024	; 0x400
 16a:	4298      	cmp	r0, r3
 16c:	d017      	beq.n	19e <timer_init+0x40>
 16e:	f420 6340 	bic.w	r3, r0, #3072	; 0xc00
 172:	f1b3 4f80 	cmp.w	r3, #1073741824	; 0x40000000
 176:	d012      	beq.n	19e <timer_init+0x40>
 178:	4b20      	ldr	r3, [pc, #128]	; (1fc <timer_init+0x9e>)
 17a:	4298      	cmp	r0, r3
 17c:	d00f      	beq.n	19e <timer_init+0x40>
 17e:	f503 53c0 	add.w	r3, r3, #6144	; 0x1800
 182:	4298      	cmp	r0, r3
 184:	d00b      	beq.n	19e <timer_init+0x40>
 186:	f503 6380 	add.w	r3, r3, #1024	; 0x400
 18a:	429a      	cmp	r2, r3
 18c:	d007      	beq.n	19e <timer_init+0x40>
 18e:	f5a3 339c 	sub.w	r3, r3, #79872	; 0x13800
 192:	429a      	cmp	r2, r3
 194:	d003      	beq.n	19e <timer_init+0x40>
 196:	f503 6300 	add.w	r3, r3, #2048	; 0x800
 19a:	4298      	cmp	r0, r3
 19c:	d10f      	bne.n	1be <timer_init+0x60>
 19e:	6803      	ldr	r3, [r0, #0]
 1a0:	f023 0370 	bic.w	r3, r3, #112	; 0x70
 1a4:	6003      	str	r3, [r0, #0]
 1a6:	884b      	ldrh	r3, [r1, #2]
 1a8:	6804      	ldr	r4, [r0, #0]
 1aa:	f003 0360 	and.w	r3, r3, #96	; 0x60
 1ae:	4323      	orrs	r3, r4
 1b0:	6003      	str	r3, [r0, #0]
 1b2:	888b      	ldrh	r3, [r1, #4]
 1b4:	6804      	ldr	r4, [r0, #0]
 1b6:	f003 0310 	and.w	r3, r3, #16
 1ba:	4323      	orrs	r3, r4
 1bc:	6003      	str	r3, [r0, #0]
 1be:	688b      	ldr	r3, [r1, #8]
 1c0:	62c3      	str	r3, [r0, #44]	; 0x2c
 1c2:	4b0f      	ldr	r3, [pc, #60]	; (200 <timer_init+0xa2>)
 1c4:	429a      	cmp	r2, r3
 1c6:	d012      	beq.n	1ee <timer_init+0x90>
 1c8:	6803      	ldr	r3, [r0, #0]
 1ca:	f423 7340 	bic.w	r3, r3, #768	; 0x300
 1ce:	6003      	str	r3, [r0, #0]
 1d0:	898b      	ldrh	r3, [r1, #12]
 1d2:	6802      	ldr	r2, [r0, #0]
 1d4:	f403 7340 	and.w	r3, r3, #768	; 0x300
 1d8:	4313      	orrs	r3, r2
 1da:	6003      	str	r3, [r0, #0]
 1dc:	4b06      	ldr	r3, [pc, #24]	; (1f8 <timer_init+0x9a>)
 1de:	4298      	cmp	r0, r3
 1e0:	d003      	beq.n	1ea <timer_init+0x8c>
 1e2:	f503 6300 	add.w	r3, r3, #2048	; 0x800
 1e6:	4298      	cmp	r0, r3
 1e8:	d101      	bne.n	1ee <timer_init+0x90>
 1ea:	7b8b      	ldrb	r3, [r1, #14]
 1ec:	6303      	str	r3, [r0, #48]	; 0x30
 1ee:	6943      	ldr	r3, [r0, #20]
 1f0:	f043 0301 	orr.w	r3, r3, #1
 1f4:	6143      	str	r3, [r0, #20]
 1f6:	bd10      	pop	{r4, pc}
 1f8:	40012c00 	.word	0x40012c00
 1fc:	40013400 	.word	0x40013400
 200:	40001000 	.word	0x40001000

00000204 <timer_enable>:
 204:	6803      	ldr	r3, [r0, #0]
 206:	f043 0301 	orr.w	r3, r3, #1
 20a:	6003      	str	r3, [r0, #0]
 20c:	4770      	bx	lr

0000020e <timer_disable>:
 20e:	6803      	ldr	r3, [r0, #0]
 210:	f023 0301 	bic.w	r3, r3, #1
 214:	6003      	str	r3, [r0, #0]
 216:	4770      	bx	lr

00000218 <timer_auto_reload_shadow_enable>:
 218:	6803      	ldr	r3, [r0, #0]
 21a:	f043 0380 	orr.w	r3, r3, #128	; 0x80
 21e:	6003      	str	r3, [r0, #0]
 220:	4770      	bx	lr

00000222 <timer_auto_reload_shadow_disable>:
 222:	6803      	ldr	r3, [r0, #0]
 224:	f023 0380 	bic.w	r3, r3, #128	; 0x80
 228:	6003      	str	r3, [r0, #0]
 22a:	4770      	bx	lr

0000022c <timer_update_event_enable>:
 22c:	6803      	ldr	r3, [r0, #0]
 22e:	f023 0302 	bic.w	r3, r3, #2
 232:	6003      	str	r3, [r0, #0]
 234:	4770      	bx	lr

00000236 <timer_update_event_disable>:
 236:	6803      	ldr	r3, [r0, #0]
 238:	f043 0302 	orr.w	r3, r3, #2
 23c:	6003      	str	r3, [r0, #0]
 23e:	4770      	bx	lr

00000240 <timer_counter_alignment>:
 240:	6803      	ldr	r3, [r0, #0]
 242:	f023 0360 	bic.w	r3, r3, #96	; 0x60
 246:	6003      	str	r3, [r0, #0]
 248:	6803      	ldr	r3, [r0, #0]
 24a:	4319      	orrs	r1, r3
 24c:	6001      	str	r1, [r0, #0]
 24e:	4770      	bx	lr

00000250 <timer_counter_up_direction>:
 250:	6803      	ldr	r3, [r0, #0]
 252:	f023 0310 	bic.w	r3, r3, #16
 256:	6003      	str	r3, [r0, #0]
 258:	4770      	bx	lr

0000025a <timer_counter_down_direction>:
 25a:	6803      	ldr	r3, [r0, #0]
 25c:	f043 0310 	orr.w	r3, r3, #16
 260:	6003      	str	r3, [r0, #0]
 262:	4770      	bx	lr

00000264 <timer_prescaler_config>:
 264:	2a01      	cmp	r2, #1
 266:	6281      	str	r1, [r0, #40]	; 0x28
 268:	bf02      	ittt	eq
 26a:	6943      	ldreq	r3, [r0, #20]
 26c:	f043 0301 	orreq.w	r3, r3, #1
 270:	6143      	streq	r3, [r0, #20]
 272:	4770      	bx	lr

00000274 <timer_repetition_value_config>:
 274:	6301      	str	r1, [r0, #48]	; 0x30
 276:	4770      	bx	lr

00000278 <timer_autoreload_value_config>:
 278:	62c1      	str	r1, [r0, #44]	; 0x2c
 27a:	4770      	bx	lr

0000027c <timer_counter_value_config>:
 27c:	6241      	str	r1, [r0, #36]	; 0x24
 27e:	4770      	bx	lr

00000280 <timer_counter_read>:
 280:	6a40      	ldr	r0, [r0, #36]	; 0x24
 282:	4770      	bx	lr

00000284 <timer_prescaler_read>:
 284:	6a80      	ldr	r0, [r0, #40]	; 0x28
 286:	b280      	uxth	r0, r0
 288:	4770      	bx	lr

0000028a <timer_single_pulse_mode_config>:
 28a:	2908      	cmp	r1, #8
 28c:	d104      	bne.n	298 <timer_single_pulse_mode_config+0xe>
 28e:	6803      	ldr	r3, [r0, #0]
 290:	f043 0308 	orr.w	r3, r3, #8
 294:	6003      	str	r3, [r0, #0]
 296:	4770      	bx	lr
 298:	2900      	cmp	r1, #0
 29a:	d1fc      	bne.n	296 <timer_single_pulse_mode_config+0xc>
 29c:	6803      	ldr	r3, [r0, #0]
 29e:	f023 0308 	bic.w	r3, r3, #8
 2a2:	e7f7      	b.n	294 <timer_single_pulse_mode_config+0xa>

000002a4 <timer_update_source_config>:
 2a4:	2904      	cmp	r1, #4
 2a6:	d104      	bne.n	2b2 <timer_update_source_config+0xe>
 2a8:	6803      	ldr	r3, [r0, #0]
 2aa:	f043 0304 	orr.w	r3, r3, #4
 2ae:	6003      	str	r3, [r0, #0]
 2b0:	4770      	bx	lr
 2b2:	2900      	cmp	r1, #0
 2b4:	d1fc      	bne.n	2b0 <timer_update_source_config+0xc>
 2b6:	6803      	ldr	r3, [r0, #0]
 2b8:	f023 0304 	bic.w	r3, r3, #4
 2bc:	e7f7      	b.n	2ae <timer_update_source_config+0xa>

000002be <timer_dma_enable>:
 2be:	68c3      	ldr	r3, [r0, #12]
 2c0:	4319      	orrs	r1, r3
 2c2:	60c1      	str	r1, [r0, #12]
 2c4:	4770      	bx	lr

000002c6 <timer_dma_disable>:
 2c6:	68c3      	ldr	r3, [r0, #12]
 2c8:	ea23 0301 	bic.w	r3, r3, r1
 2cc:	60c3      	str	r3, [r0, #12]
 2ce:	4770      	bx	lr

000002d0 <timer_channel_dma_request_source_select>:
 2d0:	2908      	cmp	r1, #8
 2d2:	d104      	bne.n	2de <timer_channel_dma_request_source_select+0xe>
 2d4:	6843      	ldr	r3, [r0, #4]
 2d6:	f043 0308 	orr.w	r3, r3, #8
 2da:	6043      	str	r3, [r0, #4]
 2dc:	4770      	bx	lr
 2de:	2900      	cmp	r1, #0
 2e0:	d1fc      	bne.n	2dc <timer_channel_dma_request_source_select+0xc>
 2e2:	6843      	ldr	r3, [r0, #4]
 2e4:	f023 0308 	bic.w	r3, r3, #8
 2e8:	e7f7      	b.n	2da <timer_channel_dma_request_source_select+0xa>

000002ea <timer_dma_transfer_config>:
 2ea:	6c83      	ldr	r3, [r0, #72]	; 0x48
 2ec:	4311      	orrs	r1, r2
 2ee:	f423 53f8 	bic.w	r3, r3, #7936	; 0x1f00
 2f2:	f023 031f 	bic.w	r3, r3, #31
 2f6:	6483      	str	r3, [r0, #72]	; 0x48
 2f8:	6c83      	ldr	r3, [r0, #72]	; 0x48
 2fa:	4319      	orrs	r1, r3
 2fc:	6481      	str	r1, [r0, #72]	; 0x48
 2fe:	4770      	bx	lr

00000300 <timer_event_software_generate>:
 300:	6943      	ldr	r3, [r0, #20]
 302:	4319      	orrs	r1, r3
 304:	6141      	str	r1, [r0, #20]
 306:	4770      	bx	lr

00000308 <timer_break_struct_para_init>:
 308:	2300      	movs	r3, #0
 30a:	8003      	strh	r3, [r0, #0]
 30c:	8043      	strh	r3, [r0, #2]
 30e:	8083      	strh	r3, [r0, #4]
 310:	80c3      	strh	r3, [r0, #6]
 312:	8103      	strh	r3, [r0, #8]
 314:	8143      	strh	r3, [r0, #10]
 316:	8183      	strh	r3, [r0, #12]
 318:	4770      	bx	lr

0000031a <timer_break_config>:
 31a:	884a      	ldrh	r2, [r1, #2]
 31c:	880b      	ldrh	r3, [r1, #0]
 31e:	4313      	orrs	r3, r2
 320:	888a      	ldrh	r2, [r1, #4]
 322:	4313      	orrs	r3, r2
 324:	88ca      	ldrh	r2, [r1, #6]
 326:	4313      	orrs	r3, r2
 328:	890a      	ldrh	r2, [r1, #8]
 32a:	4313      	orrs	r3, r2
 32c:	894a      	ldrh	r2, [r1, #10]
 32e:	4313      	orrs	r3, r2
 330:	898a      	ldrh	r2, [r1, #12]
 332:	4313      	orrs	r3, r2
 334:	b29b      	uxth	r3, r3
 336:	6443      	str	r3, [r0, #68]	; 0x44
 338:	4770      	bx	lr

0000033a <timer_break_enable>:
 33a:	6c43      	ldr	r3, [r0, #68]	; 0x44
 33c:	f443 5380 	orr.w	r3, r3, #4096	; 0x1000
 340:	6443      	str	r3, [r0, #68]	; 0x44
 342:	4770      	bx	lr

00000344 <timer_break_disable>:
 344:	6c43      	ldr	r3, [r0, #68]	; 0x44
 346:	f423 5380 	bic.w	r3, r3, #4096	; 0x1000
 34a:	6443      	str	r3, [r0, #68]	; 0x44
 34c:	4770      	bx	lr

0000034e <timer_automatic_output_enable>:
 34e:	6c43      	ldr	r3, [r0, #68]	; 0x44
 350:	f443 4380 	orr.w	r3, r3, #16384	; 0x4000
 354:	6443      	str	r3, [r0, #68]	; 0x44
 356:	4770      	bx	lr

00000358 <timer_automatic_output_disable>:
 358:	6c43      	ldr	r3, [r0, #68]	; 0x44
 35a:	f423 4380 	bic.w	r3, r3, #16384	; 0x4000
 35e:	6443      	str	r3, [r0, #68]	; 0x44
 360:	4770      	bx	lr

00000362 <timer_primary_output_config>:
 362:	6c43      	ldr	r3, [r0, #68]	; 0x44
 364:	2901      	cmp	r1, #1
 366:	bf0c      	ite	eq
 368:	f443 4300 	orreq.w	r3, r3, #32768	; 0x8000
 36c:	f423 4300 	bicne.w	r3, r3, #32768	; 0x8000
 370:	6443      	str	r3, [r0, #68]	; 0x44
 372:	4770      	bx	lr

00000374 <timer_channel_control_shadow_config>:
 374:	6843      	ldr	r3, [r0, #4]
 376:	2901      	cmp	r1, #1
 378:	bf0c      	ite	eq
 37a:	f043 0301 	orreq.w	r3, r3, #1
 37e:	f023 0301 	bicne.w	r3, r3, #1
 382:	6043      	str	r3, [r0, #4]
 384:	4770      	bx	lr

00000386 <timer_channel_control_shadow_update_config>:
 386:	b921      	cbnz	r1, 392 <timer_channel_control_shadow_update_config+0xc>
 388:	6843      	ldr	r3, [r0, #4]
 38a:	f023 0304 	bic.w	r3, r3, #4
 38e:	6043      	str	r3, [r0, #4]
 390:	4770      	bx	lr
 392:	2904      	cmp	r1, #4
 394:	d1fc      	bne.n	390 <timer_channel_control_shadow_update_config+0xa>
 396:	6843      	ldr	r3, [r0, #4]
 398:	f043 0304 	orr.w	r3, r3, #4
 39c:	e7f7      	b.n	38e <timer_channel_control_shadow_update_config+0x8>

0000039e <timer_channel_output_struct_para_init>:
 39e:	2300      	movs	r3, #0
 3a0:	8003      	strh	r3, [r0, #0]
 3a2:	8043      	strh	r3, [r0, #2]
 3a4:	8083      	strh	r3, [r0, #4]
 3a6:	80c3      	strh	r3, [r0, #6]
 3a8:	8103      	strh	r3, [r0, #8]
 3aa:	8143      	strh	r3, [r0, #10]
 3ac:	4770      	bx	lr

000003ae <timer_channel_output_config>:
 3ae:	2903      	cmp	r1, #3
 3b0:	d840      	bhi.n	434 <timer_channel_output_config+0x86>
 3b2:	e8df f011 	tbh	[pc, r1, lsl #1]
 3b6:	0004      	.short	0x0004
 3b8:	00810040 	.word	0x00810040
 3bc:	00c2      	.short	0x00c2
 3be:	6a03      	ldr	r3, [r0, #32]
 3c0:	f023 0301 	bic.w	r3, r3, #1
 3c4:	6203      	str	r3, [r0, #32]
 3c6:	6983      	ldr	r3, [r0, #24]
 3c8:	f023 0303 	bic.w	r3, r3, #3
 3cc:	6183      	str	r3, [r0, #24]
 3ce:	6a01      	ldr	r1, [r0, #32]
 3d0:	8813      	ldrh	r3, [r2, #0]
 3d2:	430b      	orrs	r3, r1
 3d4:	6203      	str	r3, [r0, #32]
 3d6:	6a03      	ldr	r3, [r0, #32]
 3d8:	f023 0302 	bic.w	r3, r3, #2
 3dc:	6203      	str	r3, [r0, #32]
 3de:	6a01      	ldr	r1, [r0, #32]
 3e0:	8893      	ldrh	r3, [r2, #4]
 3e2:	430b      	orrs	r3, r1
 3e4:	6203      	str	r3, [r0, #32]
 3e6:	4b68      	ldr	r3, [pc, #416]	; (588 <timer_channel_output_config+0x1da>)
 3e8:	4298      	cmp	r0, r3
 3ea:	d003      	beq.n	3f4 <timer_channel_output_config+0x46>
 3ec:	f503 6300 	add.w	r3, r3, #2048	; 0x800
 3f0:	4298      	cmp	r0, r3
 3f2:	d11f      	bne.n	434 <timer_channel_output_config+0x86>
 3f4:	6a03      	ldr	r3, [r0, #32]
 3f6:	f023 0304 	bic.w	r3, r3, #4
 3fa:	6203      	str	r3, [r0, #32]
 3fc:	6a01      	ldr	r1, [r0, #32]
 3fe:	8853      	ldrh	r3, [r2, #2]
 400:	430b      	orrs	r3, r1
 402:	6203      	str	r3, [r0, #32]
 404:	6a03      	ldr	r3, [r0, #32]
 406:	f023 0308 	bic.w	r3, r3, #8
 40a:	6203      	str	r3, [r0, #32]
 40c:	6a01      	ldr	r1, [r0, #32]
 40e:	88d3      	ldrh	r3, [r2, #6]
 410:	430b      	orrs	r3, r1
 412:	6203      	str	r3, [r0, #32]
 414:	6843      	ldr	r3, [r0, #4]
 416:	f423 7380 	bic.w	r3, r3, #256	; 0x100
 41a:	6043      	str	r3, [r0, #4]
 41c:	6841      	ldr	r1, [r0, #4]
 41e:	8913      	ldrh	r3, [r2, #8]
 420:	430b      	orrs	r3, r1
 422:	6043      	str	r3, [r0, #4]
 424:	6843      	ldr	r3, [r0, #4]
 426:	f423 7300 	bic.w	r3, r3, #512	; 0x200
 42a:	6043      	str	r3, [r0, #4]
 42c:	6841      	ldr	r1, [r0, #4]
 42e:	8953      	ldrh	r3, [r2, #10]
 430:	430b      	orrs	r3, r1
 432:	6043      	str	r3, [r0, #4]
 434:	4770      	bx	lr
 436:	6a03      	ldr	r3, [r0, #32]
 438:	8811      	ldrh	r1, [r2, #0]
 43a:	f023 0310 	bic.w	r3, r3, #16
 43e:	6203      	str	r3, [r0, #32]
 440:	6983      	ldr	r3, [r0, #24]
 442:	f423 7340 	bic.w	r3, r3, #768	; 0x300
 446:	6183      	str	r3, [r0, #24]
 448:	6a03      	ldr	r3, [r0, #32]
 44a:	ea43 1301 	orr.w	r3, r3, r1, lsl #4
 44e:	6203      	str	r3, [r0, #32]
 450:	6a03      	ldr	r3, [r0, #32]
 452:	8891      	ldrh	r1, [r2, #4]
 454:	f023 0320 	bic.w	r3, r3, #32
 458:	6203      	str	r3, [r0, #32]
 45a:	6a03      	ldr	r3, [r0, #32]
 45c:	ea43 1301 	orr.w	r3, r3, r1, lsl #4
 460:	6203      	str	r3, [r0, #32]
 462:	4b49      	ldr	r3, [pc, #292]	; (588 <timer_channel_output_config+0x1da>)
 464:	4298      	cmp	r0, r3
 466:	d003      	beq.n	470 <timer_channel_output_config+0xc2>
 468:	f503 6300 	add.w	r3, r3, #2048	; 0x800
 46c:	4298      	cmp	r0, r3
 46e:	d1e1      	bne.n	434 <timer_channel_output_config+0x86>
 470:	6a03      	ldr	r3, [r0, #32]
 472:	8851      	ldrh	r1, [r2, #2]
 474:	f023 0340 	bic.w	r3, r3, #64	; 0x40
 478:	6203      	str	r3, [r0, #32]
 47a:	6a03      	ldr	r3, [r0, #32]
 47c:	ea43 1301 	orr.w	r3, r3, r1, lsl #4
 480:	6203      	str	r3, [r0, #32]
 482:	6a03      	ldr	r3, [r0, #32]
 484:	88d1      	ldrh	r1, [r2, #6]
 486:	f023 0380 	bic.w	r3, r3, #128	; 0x80
 48a:	6203      	str	r3, [r0, #32]
 48c:	6a03      	ldr	r3, [r0, #32]
 48e:	ea43 1301 	orr.w	r3, r3, r1, lsl #4
 492:	6203      	str	r3, [r0, #32]
 494:	6843      	ldr	r3, [r0, #4]
 496:	8911      	ldrh	r1, [r2, #8]
 498:	f423 6380 	bic.w	r3, r3, #1024	; 0x400
 49c:	6043      	str	r3, [r0, #4]
 49e:	6843      	ldr	r3, [r0, #4]
 4a0:	8952      	ldrh	r2, [r2, #10]
 4a2:	ea43 0381 	orr.w	r3, r3, r1, lsl #2
 4a6:	6043      	str	r3, [r0, #4]
 4a8:	6843      	ldr	r3, [r0, #4]
 4aa:	f423 6300 	bic.w	r3, r3, #2048	; 0x800
 4ae:	6043      	str	r3, [r0, #4]
 4b0:	6843      	ldr	r3, [r0, #4]
 4b2:	ea43 0382 	orr.w	r3, r3, r2, lsl #2
 4b6:	e7bc      	b.n	432 <timer_channel_output_config+0x84>
 4b8:	6a03      	ldr	r3, [r0, #32]
 4ba:	8811      	ldrh	r1, [r2, #0]
 4bc:	f423 7380 	bic.w	r3, r3, #256	; 0x100
 4c0:	6203      	str	r3, [r0, #32]
 4c2:	69c3      	ldr	r3, [r0, #28]
 4c4:	f023 0303 	bic.w	r3, r3, #3
 4c8:	61c3      	str	r3, [r0, #28]
 4ca:	6a03      	ldr	r3, [r0, #32]
 4cc:	ea43 2301 	orr.w	r3, r3, r1, lsl #8
 4d0:	6203      	str	r3, [r0, #32]
 4d2:	6a03      	ldr	r3, [r0, #32]
 4d4:	8891      	ldrh	r1, [r2, #4]
 4d6:	f423 7300 	bic.w	r3, r3, #512	; 0x200
 4da:	6203      	str	r3, [r0, #32]
 4dc:	6a03      	ldr	r3, [r0, #32]
 4de:	ea43 2301 	orr.w	r3, r3, r1, lsl #8
 4e2:	6203      	str	r3, [r0, #32]
 4e4:	4b28      	ldr	r3, [pc, #160]	; (588 <timer_channel_output_config+0x1da>)
 4e6:	4298      	cmp	r0, r3
 4e8:	d003      	beq.n	4f2 <timer_channel_output_config+0x144>
 4ea:	f503 6300 	add.w	r3, r3, #2048	; 0x800
 4ee:	4298      	cmp	r0, r3
 4f0:	d1a0      	bne.n	434 <timer_channel_output_config+0x86>
 4f2:	6a03      	ldr	r3, [r0, #32]
 4f4:	8851      	ldrh	r1, [r2, #2]
 4f6:	f423 6380 	bic.w	r3, r3, #1024	; 0x400
 4fa:	6203      	str	r3, [r0, #32]
 4fc:	6a03      	ldr	r3, [r0, #32]
 4fe:	ea43 2301 	orr.w	r3, r3, r1, lsl #8
 502:	6203      	str	r3, [r0, #32]
 504:	6a03      	ldr	r3, [r0, #32]
 506:	88d1      	ldrh	r1, [r2, #6]
 508:	f423 6300 	bic.w	r3, r3, #2048	; 0x800
 50c:	6203      	str	r3, [r0, #32]
 50e:	6a03      	ldr	r3, [r0, #32]
 510:	ea43 2301 	orr.w	r3, r3, r1, lsl #8
 514:	6203      	str	r3, [r0, #32]
 516:	6843      	ldr	r3, [r0, #4]
 518:	8911      	ldrh	r1, [r2, #8]
 51a:	f423 5380 	bic.w	r3, r3, #4096	; 0x1000
 51e:	6043      	str	r3, [r0, #4]
 520:	6843      	ldr	r3, [r0, #4]
 522:	8952      	ldrh	r2, [r2, #10]
 524:	ea43 1301 	orr.w	r3, r3, r1, lsl #4
 528:	6043      	str	r3, [r0, #4]
 52a:	6843      	ldr	r3, [r0, #4]
 52c:	f423 5300 	bic.w	r3, r3, #8192	; 0x2000
 530:	6043      	str	r3, [r0, #4]
 532:	6843      	ldr	r3, [r0, #4]
 534:	ea43 1302 	orr.w	r3, r3, r2, lsl #4
 538:	e77b      	b.n	432 <timer_channel_output_config+0x84>
 53a:	6a03      	ldr	r3, [r0, #32]
 53c:	8811      	ldrh	r1, [r2, #0]
 53e:	f423 5380 	bic.w	r3, r3, #4096	; 0x1000
 542:	6203      	str	r3, [r0, #32]
 544:	69c3      	ldr	r3, [r0, #28]
 546:	f423 7340 	bic.w	r3, r3, #768	; 0x300
 54a:	61c3      	str	r3, [r0, #28]
 54c:	6a03      	ldr	r3, [r0, #32]
 54e:	ea43 3301 	orr.w	r3, r3, r1, lsl #12
 552:	6203      	str	r3, [r0, #32]
 554:	6a03      	ldr	r3, [r0, #32]
 556:	8891      	ldrh	r1, [r2, #4]
 558:	f423 5300 	bic.w	r3, r3, #8192	; 0x2000
 55c:	6203      	str	r3, [r0, #32]
 55e:	6a03      	ldr	r3, [r0, #32]
 560:	ea43 3301 	orr.w	r3, r3, r1, lsl #12
 564:	6203      	str	r3, [r0, #32]
 566:	4b08      	ldr	r3, [pc, #32]	; (588 <timer_channel_output_config+0x1da>)
 568:	4298      	cmp	r0, r3
 56a:	d004      	beq.n	576 <timer_channel_output_config+0x1c8>
 56c:	f503 6300 	add.w	r3, r3, #2048	; 0x800
 570:	4298      	cmp	r0, r3
 572:	f47f af5f 	bne.w	434 <timer_channel_output_config+0x86>
 576:	6843      	ldr	r3, [r0, #4]
 578:	8912      	ldrh	r2, [r2, #8]
 57a:	f423 4380 	bic.w	r3, r3, #16384	; 0x4000
 57e:	6043      	str	r3, [r0, #4]
 580:	6843      	ldr	r3, [r0, #4]
 582:	ea43 1382 	orr.w	r3, r3, r2, lsl #6
 586:	e754      	b.n	432 <timer_channel_output_config+0x84>
 588:	40012c00 	.word	0x40012c00

0000058c <timer_channel_output_mode_config>:
 58c:	2903      	cmp	r1, #3
 58e:	d81a      	bhi.n	5c6 <timer_channel_output_mode_config+0x3a>
 590:	e8df f001 	tbb	[pc, r1]
 594:	1a120a02 	.word	0x1a120a02
 598:	6983      	ldr	r3, [r0, #24]
 59a:	f023 0370 	bic.w	r3, r3, #112	; 0x70
 59e:	6183      	str	r3, [r0, #24]
 5a0:	6983      	ldr	r3, [r0, #24]
 5a2:	4313      	orrs	r3, r2
 5a4:	6183      	str	r3, [r0, #24]
 5a6:	4770      	bx	lr
 5a8:	6983      	ldr	r3, [r0, #24]
 5aa:	f423 43e0 	bic.w	r3, r3, #28672	; 0x7000
 5ae:	6183      	str	r3, [r0, #24]
 5b0:	6983      	ldr	r3, [r0, #24]
 5b2:	ea43 2302 	orr.w	r3, r3, r2, lsl #8
 5b6:	e7f5      	b.n	5a4 <timer_channel_output_mode_config+0x18>
 5b8:	69c3      	ldr	r3, [r0, #28]
 5ba:	f023 0370 	bic.w	r3, r3, #112	; 0x70
 5be:	61c3      	str	r3, [r0, #28]
 5c0:	69c3      	ldr	r3, [r0, #28]
 5c2:	4313      	orrs	r3, r2
 5c4:	61c3      	str	r3, [r0, #28]
 5c6:	4770      	bx	lr
 5c8:	69c3      	ldr	r3, [r0, #28]
 5ca:	f423 43e0 	bic.w	r3, r3, #28672	; 0x7000
 5ce:	61c3      	str	r3, [r0, #28]
 5d0:	69c3      	ldr	r3, [r0, #28]
 5d2:	ea43 2302 	orr.w	r3, r3, r2, lsl #8
 5d6:	e7f5      	b.n	5c4 <timer_channel_output_mode_config+0x38>

000005d8 <timer_channel_output_pulse_value_config>:
 5d8:	2903      	cmp	r1, #3
 5da:	d80a      	bhi.n	5f2 <timer_channel_output_pulse_value_config+0x1a>
 5dc:	e8df f001 	tbb	[pc, r1]
 5e0:	08060402 	.word	0x08060402
 5e4:	6342      	str	r2, [r0, #52]	; 0x34
 5e6:	4770      	bx	lr
 5e8:	6382      	str	r2, [r0, #56]	; 0x38
 5ea:	4770      	bx	lr
 5ec:	63c2      	str	r2, [r0, #60]	; 0x3c
 5ee:	4770      	bx	lr
 5f0:	6402      	str	r2, [r0, #64]	; 0x40
 5f2:	4770      	bx	lr

000005f4 <timer_channel_output_shadow_config>:
 5f4:	2903      	cmp	r1, #3
 5f6:	d81a      	bhi.n	62e <timer_channel_output_shadow_config+0x3a>
 5f8:	e8df f001 	tbb	[pc, r1]
 5fc:	1a120a02 	.word	0x1a120a02
 600:	6983      	ldr	r3, [r0, #24]
 602:	f023 0308 	bic.w	r3, r3, #8
 606:	6183      	str	r3, [r0, #24]
 608:	6983      	ldr	r3, [r0, #24]
 60a:	4313      	orrs	r3, r2
 60c:	6183      	str	r3, [r0, #24]
 60e:	4770      	bx	lr
 610:	6983      	ldr	r3, [r0, #24]
 612:	f423 6300 	bic.w	r3, r3, #2048	; 0x800
 616:	6183      	str	r3, [r0, #24]
 618:	6983      	ldr	r3, [r0, #24]
 61a:	ea43 2302 	orr.w	r3, r3, r2, lsl #8
 61e:	e7f5      	b.n	60c <timer_channel_output_shadow_config+0x18>
 620:	69c3      	ldr	r3, [r0, #28]
 622:	f023 0308 	bic.w	r3, r3, #8
 626:	61c3      	str	r3, [r0, #28]
 628:	69c3      	ldr	r3, [r0, #28]
 62a:	4313      	orrs	r3, r2
 62c:	61c3      	str	r3, [r0, #28]
 62e:	4770      	bx	lr
 630:	69c3      	ldr	r3, [r0, #28]
 632:	f423 6300 	bic.w	r3, r3, #2048	; 0x800
 636:	61c3      	str	r3, [r0, #28]
 638:	69c3      	ldr	r3, [r0, #28]
 63a:	ea43 2302 	orr.w	r3, r3, r2, lsl #8
 63e:	e7f5      	b.n	62c <timer_channel_output_shadow_config+0x38>

00000640 <timer_channel_output_fast_config>:
 640:	2903      	cmp	r1, #3
 642:	d81a      	bhi.n	67a <timer_channel_output_fast_config+0x3a>
 644:	e8df f001 	tbb	[pc, r1]
 648:	1a120a02 	.word	0x1a120a02
 64c:	6983      	ldr	r3, [r0, #24]
 64e:	f023 0304 	bic.w	r3, r3, #4
 652:	6183      	str	r3, [r0, #24]
 654:	6983      	ldr	r3, [r0, #24]
 656:	4313      	orrs	r3, r2
 658:	6183      	str	r3, [r0, #24]
 65a:	4770      	bx	lr
 65c:	6983      	ldr	r3, [r0, #24]
 65e:	f423 6380 	bic.w	r3, r3, #1024	; 0x400
 662:	6183      	str	r3, [r0, #24]
 664:	6983      	ldr	r3, [r0, #24]
 666:	ea43 2302 	orr.w	r3, r3, r2, lsl #8
 66a:	e7f5      	b.n	658 <timer_channel_output_fast_config+0x18>
 66c:	69c3      	ldr	r3, [r0, #28]
 66e:	f023 0304 	bic.w	r3, r3, #4
 672:	61c3      	str	r3, [r0, #28]
 674:	69c3      	ldr	r3, [r0, #28]
 676:	4313      	orrs	r3, r2
 678:	61c3      	str	r3, [r0, #28]
 67a:	4770      	bx	lr
 67c:	69c3      	ldr	r3, [r0, #28]
 67e:	f423 6380 	bic.w	r3, r3, #1024	; 0x400
 682:	61c3      	str	r3, [r0, #28]
 684:	69c3      	ldr	r3, [r0, #28]
 686:	ea43 2302 	orr.w	r3, r3, r2, lsl #8
 68a:	e7f5      	b.n	678 <timer_channel_output_fast_config+0x38>

0000068c <timer_channel_output_clear_config>:
 68c:	2903      	cmp	r1, #3
 68e:	d81a      	bhi.n	6c6 <timer_channel_output_clear_config+0x3a>
 690:	e8df f001 	tbb	[pc, r1]
 694:	1a120a02 	.word	0x1a120a02
 698:	6983      	ldr	r3, [r0, #24]
 69a:	f023 0380 	bic.w	r3, r3, #128	; 0x80
 69e:	6183      	str	r3, [r0, #24]
 6a0:	6983      	ldr	r3, [r0, #24]
 6a2:	4313      	orrs	r3, r2
 6a4:	6183      	str	r3, [r0, #24]
 6a6:	4770      	bx	lr
 6a8:	6983      	ldr	r3, [r0, #24]
 6aa:	f423 4300 	bic.w	r3, r3, #32768	; 0x8000
 6ae:	6183      	str	r3, [r0, #24]
 6b0:	6983      	ldr	r3, [r0, #24]
 6b2:	ea43 2302 	orr.w	r3, r3, r2, lsl #8
 6b6:	e7f5      	b.n	6a4 <timer_channel_output_clear_config+0x18>
 6b8:	69c3      	ldr	r3, [r0, #28]
 6ba:	f023 0380 	bic.w	r3, r3, #128	; 0x80
 6be:	61c3      	str	r3, [r0, #28]
 6c0:	69c3      	ldr	r3, [r0, #28]
 6c2:	4313      	orrs	r3, r2
 6c4:	61c3      	str	r3, [r0, #28]
 6c6:	4770      	bx	lr
 6c8:	69c3      	ldr	r3, [r0, #28]
 6ca:	f423 4300 	bic.w	r3, r3, #32768	; 0x8000
 6ce:	61c3      	str	r3, [r0, #28]
 6d0:	69c3      	ldr	r3, [r0, #28]
 6d2:	ea43 2302 	orr.w	r3, r3, r2, lsl #8
 6d6:	e7f5      	b.n	6c4 <timer_channel_output_clear_config+0x38>

000006d8 <timer_channel_output_polarity_config>:
 6d8:	2903      	cmp	r1, #3
 6da:	d80a      	bhi.n	6f2 <timer_channel_output_polarity_config+0x1a>
 6dc:	e8df f001 	tbb	[pc, r1]
 6e0:	1a120a02 	.word	0x1a120a02
 6e4:	6a03      	ldr	r3, [r0, #32]
 6e6:	f023 0302 	bic.w	r3, r3, #2
 6ea:	6203      	str	r3, [r0, #32]
 6ec:	6a03      	ldr	r3, [r0, #32]
 6ee:	4313      	orrs	r3, r2
 6f0:	6203      	str	r3, [r0, #32]
 6f2:	4770      	bx	lr
 6f4:	6a03      	ldr	r3, [r0, #32]
 6f6:	f023 0320 	bic.w	r3, r3, #32
 6fa:	6203      	str	r3, [r0, #32]
 6fc:	6a03      	ldr	r3, [r0, #32]
 6fe:	ea43 1302 	orr.w	r3, r3, r2, lsl #4
 702:	e7f5      	b.n	6f0 <timer_channel_output_polarity_config+0x18>
 704:	6a03      	ldr	r3, [r0, #32]
 706:	f423 7300 	bic.w	r3, r3, #512	; 0x200
 70a:	6203      	str	r3, [r0, #32]
 70c:	6a03      	ldr	r3, [r0, #32]
 70e:	ea43 2302 	orr.w	r3, r3, r2, lsl #8
 712:	e7ed      	b.n	6f0 <timer_channel_output_polarity_config+0x18>
 714:	6a03      	ldr	r3, [r0, #32]
 716:	f423 5300 	bic.w	r3, r3, #8192	; 0x2000
 71a:	6203      	str	r3, [r0, #32]
 71c:	6a03      	ldr	r3, [r0, #32]
 71e:	ea43 3302 	orr.w	r3, r3, r2, lsl #12
 722:	e7e5      	b.n	6f0 <timer_channel_output_polarity_config+0x18>

00000724 <timer_channel_complementary_output_polarity_config>:
 724:	2901      	cmp	r1, #1
 726:	d00a      	beq.n	73e <timer_channel_complementary_output_polarity_config+0x1a>
 728:	2902      	cmp	r1, #2
 72a:	d011      	beq.n	750 <timer_channel_complementary_output_polarity_config+0x2c>
 72c:	b979      	cbnz	r1, 74e <timer_channel_complementary_output_polarity_config+0x2a>
 72e:	6a03      	ldr	r3, [r0, #32]
 730:	f023 0308 	bic.w	r3, r3, #8
 734:	6203      	str	r3, [r0, #32]
 736:	6a03      	ldr	r3, [r0, #32]
 738:	431a      	orrs	r2, r3
 73a:	6202      	str	r2, [r0, #32]
 73c:	4770      	bx	lr
 73e:	6a03      	ldr	r3, [r0, #32]
 740:	f023 0380 	bic.w	r3, r3, #128	; 0x80
 744:	6203      	str	r3, [r0, #32]
 746:	6a03      	ldr	r3, [r0, #32]
 748:	ea43 1302 	orr.w	r3, r3, r2, lsl #4
 74c:	6203      	str	r3, [r0, #32]
 74e:	4770      	bx	lr
 750:	6a03      	ldr	r3, [r0, #32]
 752:	f423 6300 	bic.w	r3, r3, #2048	; 0x800
 756:	6203      	str	r3, [r0, #32]
 758:	6a03      	ldr	r3, [r0, #32]
 75a:	ea43 2302 	orr.w	r3, r3, r2, lsl #8
 75e:	e7f5      	b.n	74c <timer_channel_complementary_output_polarity_config+0x28>

00000760 <timer_channel_output_state_config>:
 760:	2903      	cmp	r1, #3
 762:	d80a      	bhi.n	77a <timer_channel_output_state_config+0x1a>
 764:	e8df f001 	tbb	[pc, r1]
 768:	1a120a02 	.word	0x1a120a02
 76c:	6a03      	ldr	r3, [r0, #32]
 76e:	f023 0301 	bic.w	r3, r3, #1
 772:	6203      	str	r3, [r0, #32]
 774:	6a03      	ldr	r3, [r0, #32]
 776:	4313      	orrs	r3, r2
 778:	6203      	str	r3, [r0, #32]
 77a:	4770      	bx	lr
 77c:	6a03      	ldr	r3, [r0, #32]
 77e:	f023 0310 	bic.w	r3, r3, #16
 782:	6203      	str	r3, [r0, #32]
 784:	6a03      	ldr	r3, [r0, #32]
 786:	ea43 1302 	orr.w	r3, r3, r2, lsl #4
 78a:	e7f5      	b.n	778 <timer_channel_output_state_config+0x18>
 78c:	6a03      	ldr	r3, [r0, #32]
 78e:	f423 7380 	bic.w	r3, r3, #256	; 0x100
 792:	6203      	str	r3, [r0, #32]
 794:	6a03      	ldr	r3, [r0, #32]
 796:	ea43 2302 	orr.w	r3, r3, r2, lsl #8
 79a:	e7ed      	b.n	778 <timer_channel_output_state_config+0x18>
 79c:	6a03      	ldr	r3, [r0, #32]
 79e:	f423 5380 	bic.w	r3, r3, #4096	; 0x1000
 7a2:	6203      	str	r3, [r0, #32]
 7a4:	6a03      	ldr	r3, [r0, #32]
 7a6:	ea43 3302 	orr.w	r3, r3, r2, lsl #12
 7aa:	e7e5      	b.n	778 <timer_channel_output_state_config+0x18>

000007ac <timer_channel_complementary_output_state_config>:
 7ac:	2901      	cmp	r1, #1
 7ae:	d00a      	beq.n	7c6 <timer_channel_complementary_output_state_config+0x1a>
 7b0:	2902      	cmp	r1, #2
 7b2:	d011      	beq.n	7d8 <timer_channel_complementary_output_state_config+0x2c>
 7b4:	b979      	cbnz	r1, 7d6 <timer_channel_complementary_output_state_config+0x2a>
 7b6:	6a03      	ldr	r3, [r0, #32]
 7b8:	f023 0304 	bic.w	r3, r3, #4
 7bc:	6203      	str	r3, [r0, #32]
 7be:	6a03      	ldr	r3, [r0, #32]
 7c0:	431a      	orrs	r2, r3
 7c2:	6202      	str	r2, [r0, #32]
 7c4:	4770      	bx	lr
 7c6:	6a03      	ldr	r3, [r0, #32]
 7c8:	f023 0340 	bic.w	r3, r3, #64	; 0x40
 7cc:	6203      	str	r3, [r0, #32]
 7ce:	6a03      	ldr	r3, [r0, #32]
 7d0:	ea43 1302 	orr.w	r3, r3, r2, lsl #4
 7d4:	6203      	str	r3, [r0, #32]
 7d6:	4770      	bx	lr
 7d8:	6a03      	ldr	r3, [r0, #32]
 7da:	f423 6380 	bic.w	r3, r3, #1024	; 0x400
 7de:	6203      	str	r3, [r0, #32]
 7e0:	6a03      	ldr	r3, [r0, #32]
 7e2:	ea43 2302 	orr.w	r3, r3, r2, lsl #8
 7e6:	e7f5      	b.n	7d4 <timer_channel_complementary_output_state_config+0x28>

000007e8 <timer_channel_input_struct_para_init>:
 7e8:	2300      	movs	r3, #0
 7ea:	2201      	movs	r2, #1
 7ec:	8003      	strh	r3, [r0, #0]
 7ee:	8042      	strh	r2, [r0, #2]
 7f0:	8083      	strh	r3, [r0, #4]
 7f2:	80c3      	strh	r3, [r0, #6]
 7f4:	4770      	bx	lr

000007f6 <timer_channel_input_capture_prescaler_config>:
 7f6:	2903      	cmp	r1, #3
 7f8:	d81a      	bhi.n	830 <timer_channel_input_capture_prescaler_config+0x3a>
 7fa:	e8df f001 	tbb	[pc, r1]
 7fe:	0a02      	.short	0x0a02
 800:	1a12      	.short	0x1a12
 802:	6983      	ldr	r3, [r0, #24]
 804:	f023 030c 	bic.w	r3, r3, #12
 808:	6183      	str	r3, [r0, #24]
 80a:	6983      	ldr	r3, [r0, #24]
 80c:	4313      	orrs	r3, r2
 80e:	6183      	str	r3, [r0, #24]
 810:	4770      	bx	lr
 812:	6983      	ldr	r3, [r0, #24]
 814:	f423 6340 	bic.w	r3, r3, #3072	; 0xc00
 818:	6183      	str	r3, [r0, #24]
 81a:	6983      	ldr	r3, [r0, #24]
 81c:	ea43 2302 	orr.w	r3, r3, r2, lsl #8
 820:	e7f5      	b.n	80e <timer_channel_input_capture_prescaler_config+0x18>
 822:	69c3      	ldr	r3, [r0, #28]
 824:	f023 030c 	bic.w	r3, r3, #12
 828:	61c3      	str	r3, [r0, #28]
 82a:	69c3      	ldr	r3, [r0, #28]
 82c:	4313      	orrs	r3, r2
 82e:	61c3      	str	r3, [r0, #28]
 830:	4770      	bx	lr
 832:	69c3      	ldr	r3, [r0, #28]
 834:	f423 6340 	bic.w	r3, r3, #3072	; 0xc00
 838:	61c3      	str	r3, [r0, #28]
 83a:	69c3      	ldr	r3, [r0, #28]
 83c:	ea43 2302 	orr.w	r3, r3, r2, lsl #8
 840:	e7f5      	b.n	82e <timer_channel_input_capture_prescaler_config+0x38>

00000842 <timer_input_capture_config>:
 842:	b410      	push	{r4}
 844:	2903      	cmp	r1, #3
 846:	d824      	bhi.n	892 <timer_input_capture_config+0x50>
 848:	e8df f001 	tbb	[pc, r1]
 84c:	6c4a2702 	.word	0x6c4a2702
 850:	6a03      	ldr	r3, [r0, #32]
 852:	f023 0301 	bic.w	r3, r3, #1
 856:	6203      	str	r3, [r0, #32]
 858:	6a03      	ldr	r3, [r0, #32]
 85a:	f023 030a 	bic.w	r3, r3, #10
 85e:	6203      	str	r3, [r0, #32]
 860:	6a04      	ldr	r4, [r0, #32]
 862:	8813      	ldrh	r3, [r2, #0]
 864:	4323      	orrs	r3, r4
 866:	6203      	str	r3, [r0, #32]
 868:	6983      	ldr	r3, [r0, #24]
 86a:	f023 0303 	bic.w	r3, r3, #3
 86e:	6183      	str	r3, [r0, #24]
 870:	6984      	ldr	r4, [r0, #24]
 872:	8853      	ldrh	r3, [r2, #2]
 874:	4323      	orrs	r3, r4
 876:	6183      	str	r3, [r0, #24]
 878:	6983      	ldr	r3, [r0, #24]
 87a:	88d4      	ldrh	r4, [r2, #6]
 87c:	f023 03f0 	bic.w	r3, r3, #240	; 0xf0
 880:	6183      	str	r3, [r0, #24]
 882:	6983      	ldr	r3, [r0, #24]
 884:	ea43 1304 	orr.w	r3, r3, r4, lsl #4
 888:	6183      	str	r3, [r0, #24]
 88a:	6a03      	ldr	r3, [r0, #32]
 88c:	f043 0301 	orr.w	r3, r3, #1
 890:	6203      	str	r3, [r0, #32]
 892:	8892      	ldrh	r2, [r2, #4]
 894:	bc10      	pop	{r4}
 896:	f7ff bffe 	b.w	7f6 <timer_channel_input_capture_prescaler_config>
 89a:	6a03      	ldr	r3, [r0, #32]
 89c:	8814      	ldrh	r4, [r2, #0]
 89e:	f023 0310 	bic.w	r3, r3, #16
 8a2:	6203      	str	r3, [r0, #32]
 8a4:	6a03      	ldr	r3, [r0, #32]
 8a6:	f023 03a0 	bic.w	r3, r3, #160	; 0xa0
 8aa:	6203      	str	r3, [r0, #32]
 8ac:	6a03      	ldr	r3, [r0, #32]
 8ae:	ea43 1304 	orr.w	r3, r3, r4, lsl #4
 8b2:	6203      	str	r3, [r0, #32]
 8b4:	6983      	ldr	r3, [r0, #24]
 8b6:	8854      	ldrh	r4, [r2, #2]
 8b8:	f423 7340 	bic.w	r3, r3, #768	; 0x300
 8bc:	6183      	str	r3, [r0, #24]
 8be:	6983      	ldr	r3, [r0, #24]
 8c0:	ea43 2304 	orr.w	r3, r3, r4, lsl #8
 8c4:	6183      	str	r3, [r0, #24]
 8c6:	6983      	ldr	r3, [r0, #24]
 8c8:	88d4      	ldrh	r4, [r2, #6]
 8ca:	f423 4370 	bic.w	r3, r3, #61440	; 0xf000
 8ce:	6183      	str	r3, [r0, #24]
 8d0:	6983      	ldr	r3, [r0, #24]
 8d2:	ea43 3304 	orr.w	r3, r3, r4, lsl #12
 8d6:	6183      	str	r3, [r0, #24]
 8d8:	6a03      	ldr	r3, [r0, #32]
 8da:	f043 0310 	orr.w	r3, r3, #16
 8de:	e7d7      	b.n	890 <timer_input_capture_config+0x4e>
 8e0:	6a03      	ldr	r3, [r0, #32]
 8e2:	8814      	ldrh	r4, [r2, #0]
 8e4:	f423 7380 	bic.w	r3, r3, #256	; 0x100
 8e8:	6203      	str	r3, [r0, #32]
 8ea:	6a03      	ldr	r3, [r0, #32]
 8ec:	f423 6320 	bic.w	r3, r3, #2560	; 0xa00
 8f0:	6203      	str	r3, [r0, #32]
 8f2:	6a03      	ldr	r3, [r0, #32]
 8f4:	ea43 2304 	orr.w	r3, r3, r4, lsl #8
 8f8:	6203      	str	r3, [r0, #32]
 8fa:	69c3      	ldr	r3, [r0, #28]
 8fc:	f023 0303 	bic.w	r3, r3, #3
 900:	61c3      	str	r3, [r0, #28]
 902:	69c4      	ldr	r4, [r0, #28]
 904:	8853      	ldrh	r3, [r2, #2]
 906:	4323      	orrs	r3, r4
 908:	61c3      	str	r3, [r0, #28]
 90a:	69c3      	ldr	r3, [r0, #28]
 90c:	88d4      	ldrh	r4, [r2, #6]
 90e:	f023 03f0 	bic.w	r3, r3, #240	; 0xf0
 912:	61c3      	str	r3, [r0, #28]
 914:	69c3      	ldr	r3, [r0, #28]
 916:	ea43 1304 	orr.w	r3, r3, r4, lsl #4
 91a:	61c3      	str	r3, [r0, #28]
 91c:	6a03      	ldr	r3, [r0, #32]
 91e:	f443 7380 	orr.w	r3, r3, #256	; 0x100
 922:	e7b5      	b.n	890 <timer_input_capture_config+0x4e>
 924:	6a03      	ldr	r3, [r0, #32]
 926:	8814      	ldrh	r4, [r2, #0]
 928:	f423 5380 	bic.w	r3, r3, #4096	; 0x1000
 92c:	6203      	str	r3, [r0, #32]
 92e:	6a03      	ldr	r3, [r0, #32]
 930:	f423 5300 	bic.w	r3, r3, #8192	; 0x2000
 934:	6203      	str	r3, [r0, #32]
 936:	6a03      	ldr	r3, [r0, #32]
 938:	ea43 3304 	orr.w	r3, r3, r4, lsl #12
 93c:	6203      	str	r3, [r0, #32]
 93e:	69c3      	ldr	r3, [r0, #28]
 940:	8854      	ldrh	r4, [r2, #2]
 942:	f423 7340 	bic.w	r3, r3, #768	; 0x300
 946:	61c3      	str	r3, [r0, #28]
 948:	69c3      	ldr	r3, [r0, #28]
 94a:	ea43 2304 	orr.w	r3, r3, r4, lsl #8
 94e:	61c3      	str	r3, [r0, #28]
 950:	69c3      	ldr	r3, [r0, #28]
 952:	88d4      	ldrh	r4, [r2, #6]
 954:	f423 4370 	bic.w	r3, r3, #61440	; 0xf000
 958:	61c3      	str	r3, [r0, #28]
 95a:	69c3      	ldr	r3, [r0, #28]
 95c:	ea43 3304 	orr.w	r3, r3, r4, lsl #12
 960:	61c3      	str	r3, [r0, #28]
 962:	6a03      	ldr	r3, [r0, #32]
 964:	f443 5380 	orr.w	r3, r3, #4096	; 0x1000
 968:	e792      	b.n	890 <timer_input_capture_config+0x4e>

0000096a <timer_channel_capture_value_register_read>:
 96a:	2903      	cmp	r1, #3
 96c:	d80b      	bhi.n	986 <timer_channel_capture_value_register_read+0x1c>
 96e:	e8df f001 	tbb	[pc, r1]
 972:	0402      	.short	0x0402
 974:	0806      	.short	0x0806
 976:	6b40      	ldr	r0, [r0, #52]	; 0x34
 978:	4770      	bx	lr
 97a:	6b80      	ldr	r0, [r0, #56]	; 0x38
 97c:	4770      	bx	lr
 97e:	6bc0      	ldr	r0, [r0, #60]	; 0x3c
 980:	4770      	bx	lr
 982:	6c00      	ldr	r0, [r0, #64]	; 0x40
 984:	4770      	bx	lr
 986:	2000      	movs	r0, #0
 988:	4770      	bx	lr

0000098a <timer_input_pwm_capture_config>:
 98a:	e92d 41f0 	stmdb	sp!, {r4, r5, r6, r7, r8, lr}
 98e:	f8b2 e000 	ldrh.w	lr, [r2]
 992:	f8b2 c002 	ldrh.w	ip, [r2, #2]
 996:	fabe f58e 	clz	r5, lr
 99a:	88d6      	ldrh	r6, [r2, #6]
 99c:	f1bc 0f01 	cmp.w	ip, #1
 9a0:	ea4f 1555 	mov.w	r5, r5, lsr #5
 9a4:	ea4f 3806 	mov.w	r8, r6, lsl #12
 9a8:	bf0c      	ite	eq
 9aa:	2702      	moveq	r7, #2
 9ac:	2701      	movne	r7, #1
 9ae:	8892      	ldrh	r2, [r2, #4]
 9b0:	6a03      	ldr	r3, [r0, #32]
 9b2:	006d      	lsls	r5, r5, #1
 9b4:	0136      	lsls	r6, r6, #4
 9b6:	2900      	cmp	r1, #0
 9b8:	d144      	bne.n	a44 <timer_input_pwm_capture_config+0xba>
 9ba:	f023 0301 	bic.w	r3, r3, #1
 9be:	6203      	str	r3, [r0, #32]
 9c0:	6a03      	ldr	r3, [r0, #32]
 9c2:	f023 030a 	bic.w	r3, r3, #10
 9c6:	6203      	str	r3, [r0, #32]
 9c8:	6a03      	ldr	r3, [r0, #32]
 9ca:	ea43 030e 	orr.w	r3, r3, lr
 9ce:	6203      	str	r3, [r0, #32]
 9d0:	6983      	ldr	r3, [r0, #24]
 9d2:	f023 0303 	bic.w	r3, r3, #3
 9d6:	6183      	str	r3, [r0, #24]
 9d8:	6983      	ldr	r3, [r0, #24]
 9da:	ea43 030c 	orr.w	r3, r3, ip
 9de:	6183      	str	r3, [r0, #24]
 9e0:	6983      	ldr	r3, [r0, #24]
 9e2:	f023 03f0 	bic.w	r3, r3, #240	; 0xf0
 9e6:	6183      	str	r3, [r0, #24]
 9e8:	6983      	ldr	r3, [r0, #24]
 9ea:	4333      	orrs	r3, r6
 9ec:	6183      	str	r3, [r0, #24]
 9ee:	6a03      	ldr	r3, [r0, #32]
 9f0:	f043 0301 	orr.w	r3, r3, #1
 9f4:	6203      	str	r3, [r0, #32]
 9f6:	f7ff fffe 	bl	7f6 <timer_channel_input_capture_prescaler_config>
 9fa:	6a03      	ldr	r3, [r0, #32]
 9fc:	2101      	movs	r1, #1
 9fe:	f023 0310 	bic.w	r3, r3, #16
 a02:	6203      	str	r3, [r0, #32]
 a04:	6a03      	ldr	r3, [r0, #32]
 a06:	f023 03a0 	bic.w	r3, r3, #160	; 0xa0
 a0a:	6203      	str	r3, [r0, #32]
 a0c:	6a03      	ldr	r3, [r0, #32]
 a0e:	ea43 1305 	orr.w	r3, r3, r5, lsl #4
 a12:	6203      	str	r3, [r0, #32]
 a14:	6983      	ldr	r3, [r0, #24]
 a16:	f423 7340 	bic.w	r3, r3, #768	; 0x300
 a1a:	6183      	str	r3, [r0, #24]
 a1c:	6983      	ldr	r3, [r0, #24]
 a1e:	ea43 2307 	orr.w	r3, r3, r7, lsl #8
 a22:	6183      	str	r3, [r0, #24]
 a24:	6983      	ldr	r3, [r0, #24]
 a26:	f423 4370 	bic.w	r3, r3, #61440	; 0xf000
 a2a:	6183      	str	r3, [r0, #24]
 a2c:	6983      	ldr	r3, [r0, #24]
 a2e:	ea43 0308 	orr.w	r3, r3, r8
 a32:	6183      	str	r3, [r0, #24]
 a34:	6a03      	ldr	r3, [r0, #32]
 a36:	f043 0310 	orr.w	r3, r3, #16
 a3a:	6203      	str	r3, [r0, #32]
 a3c:	e8bd 41f0 	ldmia.w	sp!, {r4, r5, r6, r7, r8, lr}
 a40:	f7ff bffe 	b.w	7f6 <timer_channel_input_capture_prescaler_config>
 a44:	f023 0310 	bic.w	r3, r3, #16
 a48:	6203      	str	r3, [r0, #32]
 a4a:	6a03      	ldr	r3, [r0, #32]
 a4c:	2101      	movs	r1, #1
 a4e:	f023 03a0 	bic.w	r3, r3, #160	; 0xa0
 a52:	6203      	str	r3, [r0, #32]
 a54:	6a03      	ldr	r3, [r0, #32]
 a56:	ea43 130e 	orr.w	r3, r3, lr, lsl #4
 a5a:	6203      	str	r3, [r0, #32]
 a5c:	6983      	ldr	r3, [r0, #24]
 a5e:	f423 7340 	bic.w	r3, r3, #768	; 0x300
 a62:	6183      	str	r3, [r0, #24]
 a64:	6983      	ldr	r3, [r0, #24]
 a66:	ea43 230c 	orr.w	r3, r3, ip, lsl #8
 a6a:	6183      	str	r3, [r0, #24]
 a6c:	6983      	ldr	r3, [r0, #24]
 a6e:	f423 4370 	bic.w	r3, r3, #61440	; 0xf000
 a72:	6183      	str	r3, [r0, #24]
 a74:	6983      	ldr	r3, [r0, #24]
 a76:	ea43 0308 	orr.w	r3, r3, r8
 a7a:	6183      	str	r3, [r0, #24]
 a7c:	6a03      	ldr	r3, [r0, #32]
 a7e:	f043 0310 	orr.w	r3, r3, #16
 a82:	6203      	str	r3, [r0, #32]
 a84:	f7ff fffe 	bl	7f6 <timer_channel_input_capture_prescaler_config>
 a88:	6a03      	ldr	r3, [r0, #32]
 a8a:	f023 0301 	bic.w	r3, r3, #1
 a8e:	6203      	str	r3, [r0, #32]
 a90:	6a03      	ldr	r3, [r0, #32]
 a92:	f023 030a 	bic.w	r3, r3, #10
 a96:	6203      	str	r3, [r0, #32]
 a98:	6a03      	ldr	r3, [r0, #32]
 a9a:	432b      	orrs	r3, r5
 a9c:	6203      	str	r3, [r0, #32]
 a9e:	6983      	ldr	r3, [r0, #24]
 aa0:	f023 0303 	bic.w	r3, r3, #3
 aa4:	6183      	str	r3, [r0, #24]
 aa6:	6983      	ldr	r3, [r0, #24]
 aa8:	433b      	orrs	r3, r7
 aaa:	6183      	str	r3, [r0, #24]
 aac:	6983      	ldr	r3, [r0, #24]
 aae:	f023 03f0 	bic.w	r3, r3, #240	; 0xf0
 ab2:	6183      	str	r3, [r0, #24]
 ab4:	6983      	ldr	r3, [r0, #24]
 ab6:	4333      	orrs	r3, r6
 ab8:	6183      	str	r3, [r0, #24]
 aba:	6a03      	ldr	r3, [r0, #32]
 abc:	430b      	orrs	r3, r1
 abe:	6203      	str	r3, [r0, #32]
 ac0:	2100      	movs	r1, #0
 ac2:	e7bb      	b.n	a3c <timer_input_pwm_capture_config+0xb2>

00000ac4 <timer_hall_mode_config>:
 ac4:	2980      	cmp	r1, #128	; 0x80
 ac6:	d104      	bne.n	ad2 <timer_hall_mode_config+0xe>
 ac8:	6843      	ldr	r3, [r0, #4]
 aca:	f043 0380 	orr.w	r3, r3, #128	; 0x80
 ace:	6043      	str	r3, [r0, #4]
 ad0:	4770      	bx	lr
 ad2:	2900      	cmp	r1, #0
 ad4:	d1fc      	bne.n	ad0 <timer_hall_mode_config+0xc>
 ad6:	6843      	ldr	r3, [r0, #4]
 ad8:	f023 0380 	bic.w	r3, r3, #128	; 0x80
 adc:	e7f7      	b.n	ace <timer_hall_mode_config+0xa>

00000ade <timer_input_trigger_source_select>:
 ade:	6883      	ldr	r3, [r0, #8]
 ae0:	f023 0370 	bic.w	r3, r3, #112	; 0x70
 ae4:	6083      	str	r3, [r0, #8]
 ae6:	6883      	ldr	r3, [r0, #8]
 ae8:	430b      	orrs	r3, r1
 aea:	6083      	str	r3, [r0, #8]
 aec:	4770      	bx	lr

00000aee <timer_master_output_trigger_source_select>:
 aee:	6843      	ldr	r3, [r0, #4]
 af0:	f023 0370 	bic.w	r3, r3, #112	; 0x70
 af4:	6043      	str	r3, [r0, #4]
 af6:	6843      	ldr	r3, [r0, #4]
 af8:	430b      	orrs	r3, r1
 afa:	6043      	str	r3, [r0, #4]
 afc:	4770      	bx	lr

00000afe <timer_slave_mode_select>:
 afe:	6883      	ldr	r3, [r0, #8]
 b00:	f023 0307 	bic.w	r3, r3, #7
 b04:	6083      	str	r3, [r0, #8]
 b06:	6883      	ldr	r3, [r0, #8]
 b08:	430b      	orrs	r3, r1
 b0a:	6083      	str	r3, [r0, #8]
 b0c:	4770      	bx	lr

00000b0e <timer_master_slave_mode_config>:
 b0e:	2980      	cmp	r1, #128	; 0x80
 b10:	d104      	bne.n	b1c <timer_master_slave_mode_config+0xe>
 b12:	6883      	ldr	r3, [r0, #8]
 b14:	f043 0380 	orr.w	r3, r3, #128	; 0x80
 b18:	6083      	str	r3, [r0, #8]
 b1a:	4770      	bx	lr
 b1c:	2900      	cmp	r1, #0
 b1e:	d1fc      	bne.n	b1a <timer_master_slave_mode_config+0xc>
 b20:	6883      	ldr	r3, [r0, #8]
 b22:	f023 0380 	bic.w	r3, r3, #128	; 0x80
 b26:	e7f7      	b.n	b18 <timer_master_slave_mode_config+0xa>

00000b28 <timer_external_trigger_config>:
 b28:	b510      	push	{r4, lr}
 b2a:	6884      	ldr	r4, [r0, #8]
 b2c:	4311      	orrs	r1, r2
 b2e:	f424 443f 	bic.w	r4, r4, #48896	; 0xbf00
 b32:	6084      	str	r4, [r0, #8]
 b34:	6884      	ldr	r4, [r0, #8]
 b36:	4321      	orrs	r1, r4
 b38:	6081      	str	r1, [r0, #8]
 b3a:	6882      	ldr	r2, [r0, #8]
 b3c:	ea42 2203 	orr.w	r2, r2, r3, lsl #8
 b40:	6082      	str	r2, [r0, #8]
 b42:	bd10      	pop	{r4, pc}

00000b44 <timer_quadrature_decoder_mode_config>:
 b44:	b510      	push	{r4, lr}
 b46:	6884      	ldr	r4, [r0, #8]
 b48:	ea42 1203 	orr.w	r2, r2, r3, lsl #4
 b4c:	f024 0407 	bic.w	r4, r4, #7
 b50:	6084      	str	r4, [r0, #8]
 b52:	6884      	ldr	r4, [r0, #8]
 b54:	430c      	orrs	r4, r1
 b56:	6084      	str	r4, [r0, #8]
 b58:	6981      	ldr	r1, [r0, #24]
 b5a:	f421 7140 	bic.w	r1, r1, #768	; 0x300
 b5e:	f021 0103 	bic.w	r1, r1, #3
 b62:	6181      	str	r1, [r0, #24]
 b64:	6981      	ldr	r1, [r0, #24]
 b66:	f441 7180 	orr.w	r1, r1, #256	; 0x100
 b6a:	f041 0101 	orr.w	r1, r1, #1
 b6e:	6181      	str	r1, [r0, #24]
 b70:	6a01      	ldr	r1, [r0, #32]
 b72:	f021 010a 	bic.w	r1, r1, #10
 b76:	6201      	str	r1, [r0, #32]
 b78:	6a01      	ldr	r1, [r0, #32]
 b7a:	f021 01a0 	bic.w	r1, r1, #160	; 0xa0
 b7e:	6201      	str	r1, [r0, #32]
 b80:	6a01      	ldr	r1, [r0, #32]
 b82:	430a      	orrs	r2, r1
 b84:	6202      	str	r2, [r0, #32]
 b86:	bd10      	pop	{r4, pc}

00000b88 <timer_internal_clock_config>:
 b88:	6883      	ldr	r3, [r0, #8]
 b8a:	f023 0307 	bic.w	r3, r3, #7
 b8e:	6083      	str	r3, [r0, #8]
 b90:	4770      	bx	lr

00000b92 <timer_internal_trigger_as_external_clock_config>:
 b92:	b508      	push	{r3, lr}
 b94:	f7ff fffe 	bl	ade <timer_input_trigger_source_select>
 b98:	6883      	ldr	r3, [r0, #8]
 b9a:	f023 0307 	bic.w	r3, r3, #7
 b9e:	6083      	str	r3, [r0, #8]
 ba0:	6883      	ldr	r3, [r0, #8]
 ba2:	f043 0307 	orr.w	r3, r3, #7
 ba6:	6083      	str	r3, [r0, #8]
 ba8:	bd08      	pop	{r3, pc}

00000baa <timer_external_trigger_as_external_clock_config>:
 baa:	2960      	cmp	r1, #96	; 0x60
 bac:	b510      	push	{r4, lr}
 bae:	6a04      	ldr	r4, [r0, #32]
 bb0:	d129      	bne.n	c06 <timer_external_trigger_as_external_clock_config+0x5c>
 bb2:	f024 0410 	bic.w	r4, r4, #16
 bb6:	6204      	str	r4, [r0, #32]
 bb8:	6a04      	ldr	r4, [r0, #32]
 bba:	f024 04a0 	bic.w	r4, r4, #160	; 0xa0
 bbe:	6204      	str	r4, [r0, #32]
 bc0:	6a04      	ldr	r4, [r0, #32]
 bc2:	ea44 1202 	orr.w	r2, r4, r2, lsl #4
 bc6:	6202      	str	r2, [r0, #32]
 bc8:	6982      	ldr	r2, [r0, #24]
 bca:	f422 7240 	bic.w	r2, r2, #768	; 0x300
 bce:	6182      	str	r2, [r0, #24]
 bd0:	6982      	ldr	r2, [r0, #24]
 bd2:	f442 7280 	orr.w	r2, r2, #256	; 0x100
 bd6:	6182      	str	r2, [r0, #24]
 bd8:	6982      	ldr	r2, [r0, #24]
 bda:	f422 4270 	bic.w	r2, r2, #61440	; 0xf000
 bde:	6182      	str	r2, [r0, #24]
 be0:	6982      	ldr	r2, [r0, #24]
 be2:	ea42 3303 	orr.w	r3, r2, r3, lsl #12
 be6:	6183      	str	r3, [r0, #24]
 be8:	6a03      	ldr	r3, [r0, #32]
 bea:	f043 0310 	orr.w	r3, r3, #16
 bee:	6203      	str	r3, [r0, #32]
 bf0:	f7ff fffe 	bl	ade <timer_input_trigger_source_select>
 bf4:	6883      	ldr	r3, [r0, #8]
 bf6:	f023 0307 	bic.w	r3, r3, #7
 bfa:	6083      	str	r3, [r0, #8]
 bfc:	6883      	ldr	r3, [r0, #8]
 bfe:	f043 0307 	orr.w	r3, r3, #7
 c02:	6083      	str	r3, [r0, #8]
 c04:	bd10      	pop	{r4, pc}
 c06:	f024 0401 	bic.w	r4, r4, #1
 c0a:	6204      	str	r4, [r0, #32]
 c0c:	6a04      	ldr	r4, [r0, #32]
 c0e:	f024 040a 	bic.w	r4, r4, #10
 c12:	6204      	str	r4, [r0, #32]
 c14:	6a04      	ldr	r4, [r0, #32]
 c16:	4322      	orrs	r2, r4
 c18:	6202      	str	r2, [r0, #32]
 c1a:	6982      	ldr	r2, [r0, #24]
 c1c:	f022 0203 	bic.w	r2, r2, #3
 c20:	6182      	str	r2, [r0, #24]
 c22:	6982      	ldr	r2, [r0, #24]
 c24:	f042 0201 	orr.w	r2, r2, #1
 c28:	6182      	str	r2, [r0, #24]
 c2a:	6982      	ldr	r2, [r0, #24]
 c2c:	f022 02f0 	bic.w	r2, r2, #240	; 0xf0
 c30:	6182      	str	r2, [r0, #24]
 c32:	6982      	ldr	r2, [r0, #24]
 c34:	ea42 1303 	orr.w	r3, r2, r3, lsl #4
 c38:	6183      	str	r3, [r0, #24]
 c3a:	6a03      	ldr	r3, [r0, #32]
 c3c:	f043 0301 	orr.w	r3, r3, #1
 c40:	e7d5      	b.n	bee <timer_external_trigger_as_external_clock_config+0x44>

00000c42 <timer_external_clock_mode0_config>:
 c42:	b510      	push	{r4, lr}
 c44:	f7ff fffe 	bl	b28 <timer_external_trigger_config>
 c48:	6883      	ldr	r3, [r0, #8]
 c4a:	f023 0377 	bic.w	r3, r3, #119	; 0x77
 c4e:	6083      	str	r3, [r0, #8]
 c50:	6883      	ldr	r3, [r0, #8]
 c52:	f043 0377 	orr.w	r3, r3, #119	; 0x77
 c56:	6083      	str	r3, [r0, #8]
 c58:	bd10      	pop	{r4, pc}

00000c5a <timer_external_clock_mode1_config>:
 c5a:	b510      	push	{r4, lr}
 c5c:	f7ff fffe 	bl	b28 <timer_external_trigger_config>
 c60:	6883      	ldr	r3, [r0, #8]
 c62:	f443 4380 	orr.w	r3, r3, #16384	; 0x4000
 c66:	6083      	str	r3, [r0, #8]
 c68:	bd10      	pop	{r4, pc}

00000c6a <timer_external_clock_mode1_disable>:
 c6a:	6883      	ldr	r3, [r0, #8]
 c6c:	f423 4380 	bic.w	r3, r3, #16384	; 0x4000
 c70:	6083      	str	r3, [r0, #8]
 c72:	4770      	bx	lr

00000c74 <timer_interrupt_enable>:
 c74:	68c3      	ldr	r3, [r0, #12]
 c76:	430b      	orrs	r3, r1
 c78:	60c3      	str	r3, [r0, #12]
 c7a:	4770      	bx	lr

00000c7c <timer_interrupt_disable>:
 c7c:	68c3      	ldr	r3, [r0, #12]
 c7e:	ea23 0301 	bic.w	r3, r3, r1
 c82:	60c3      	str	r3, [r0, #12]
 c84:	4770      	bx	lr

00000c86 <timer_interrupt_flag_get>:
 c86:	68c3      	ldr	r3, [r0, #12]
 c88:	6900      	ldr	r0, [r0, #16]
 c8a:	4008      	ands	r0, r1
 c8c:	d003      	beq.n	c96 <timer_interrupt_flag_get+0x10>
 c8e:	420b      	tst	r3, r1
 c90:	bf14      	ite	ne
 c92:	2001      	movne	r0, #1
 c94:	2000      	moveq	r0, #0
 c96:	4770      	bx	lr

00000c98 <timer_interrupt_flag_clear>:
 c98:	43c9      	mvns	r1, r1
 c9a:	6101      	str	r1, [r0, #16]
 c9c:	4770      	bx	lr

00000c9e <timer_flag_get>:
 c9e:	6903      	ldr	r3, [r0, #16]
 ca0:	420b      	tst	r3, r1
 ca2:	bf14      	ite	ne
 ca4:	2001      	movne	r0, #1
 ca6:	2000      	moveq	r0, #0
 ca8:	4770      	bx	lr

00000caa <timer_flag_clear>:
 caa:	43c9      	mvns	r1, r1
 cac:	6101      	str	r1, [r0, #16]
 cae:	4770      	bx	lr

gd32f20x_tli.o:     file format elf32-littlearm


Disassembly of section .text:

00000000 <tli_deinit>:
   0:	b508      	push	{r3, lr}
   2:	f641 501a 	movw	r0, #7450	; 0x1d1a
   6:	f7ff fffe 	bl	0 <rcu_periph_reset_enable>
   a:	e8bd 4008 	ldmia.w	sp!, {r3, lr}
   e:	f641 501a 	movw	r0, #7450	; 0x1d1a
  12:	f7ff bffe 	b.w	0 <rcu_periph_reset_disable>

00000016 <tli_init>:
  16:	4b2a      	ldr	r3, [pc, #168]	; (c0 <tli_init+0xaa>)
  18:	b510      	push	{r4, lr}
  1a:	f8d3 2808 	ldr.w	r2, [r3, #2056]	; 0x808
  1e:	f002 22f0 	and.w	r2, r2, #4026593280	; 0xf000f000
  22:	f8c3 2808 	str.w	r2, [r3, #2056]	; 0x808
  26:	e9d0 2100 	ldrd	r2, r1, [r0]
  2a:	ea42 4201 	orr.w	r2, r2, r1, lsl #16
  2e:	f8c3 2808 	str.w	r2, [r3, #2056]	; 0x808
  32:	f8d3 280c 	ldr.w	r2, [r3, #2060]	; 0x80c
  36:	f002 22f0 	and.w	r2, r2, #4026593280	; 0xf000f000
  3a:	f8c3 280c 	str.w	r2, [r3, #2060]	; 0x80c
  3e:	e9d0 2102 	ldrd	r2, r1, [r0, #8]
  42:	ea42 4201 	orr.w	r2, r2, r1, lsl #16
  46:	f8c3 280c 	str.w	r2, [r3, #2060]	; 0x80c
  4a:	f8d3 2810 	ldr.w	r2, [r3, #2064]	; 0x810
  4e:	f002 22f0 	and.w	r2, r2, #4026593280	; 0xf000f000
  52:	f8c3 2810 	str.w	r2, [r3, #2064]	; 0x810
  56:	e9d0 2104 	ldrd	r2, r1, [r0, #16]
  5a:	ea42 4201 	orr.w	r2, r2, r1, lsl #16
  5e:	f8c3 2810 	str.w	r2, [r3, #2064]	; 0x810
  62:	f8d3 2814 	ldr.w	r2, [r3, #2068]	; 0x814
  66:	f002 22f0 	and.w	r2, r2, #4026593280	; 0xf000f000
  6a:	f8c3 2814 	str.w	r2, [r3, #2068]	; 0x814
  6e:	e9d0 2106 	ldrd	r2, r1, [r0, #24]
  72:	ea42 4201 	orr.w	r2, r2, r1, lsl #16
  76:	f8c3 2814 	str.w	r2, [r3, #2068]	; 0x814
  7a:	f8d3 282c 	ldr.w	r2, [r3, #2092]	; 0x82c
  7e:	f002 427f 	and.w	r2, r2, #4278190080	; 0xff000000
  82:	f8c3 282c 	str.w	r2, [r3, #2092]	; 0x82c
  86:	e9d0 2108 	ldrd	r2, r1, [r0, #32]
  8a:	0412      	lsls	r2, r2, #16
  8c:	ea42 2201 	orr.w	r2, r2, r1, lsl #8
  90:	6a81      	ldr	r1, [r0, #40]	; 0x28
  92:	430a      	orrs	r2, r1
  94:	f8c3 282c 	str.w	r2, [r3, #2092]	; 0x82c
  98:	f8d3 2818 	ldr.w	r2, [r3, #2072]	; 0x818
  9c:	f022 4270 	bic.w	r2, r2, #4026531840	; 0xf0000000
  a0:	f8c3 2818 	str.w	r2, [r3, #2072]	; 0x818
  a4:	f8d3 1818 	ldr.w	r1, [r3, #2072]	; 0x818
  a8:	e9d0 240b 	ldrd	r2, r4, [r0, #44]	; 0x2c
  ac:	4322      	orrs	r2, r4
  ae:	430a      	orrs	r2, r1
  b0:	6b41      	ldr	r1, [r0, #52]	; 0x34
  b2:	430a      	orrs	r2, r1
  b4:	6b81      	ldr	r1, [r0, #56]	; 0x38
  b6:	430a      	orrs	r2, r1
  b8:	f8c3 2818 	str.w	r2, [r3, #2072]	; 0x818
  bc:	bd10      	pop	{r4, pc}
  be:	bf00      	nop
  c0:	40016000 	.word	0x40016000

000000c4 <tli_dither_config>:
  c4:	4b05      	ldr	r3, [pc, #20]	; (dc <tli_dither_config+0x18>)
  c6:	2801      	cmp	r0, #1
  c8:	f8d3 2818 	ldr.w	r2, [r3, #2072]	; 0x818
  cc:	bf0c      	ite	eq
  ce:	f442 3280 	orreq.w	r2, r2, #65536	; 0x10000
  d2:	f422 3280 	bicne.w	r2, r2, #65536	; 0x10000
  d6:	f8c3 2818 	str.w	r2, [r3, #2072]	; 0x818
  da:	4770      	bx	lr
  dc:	40016000 	.word	0x40016000

000000e0 <tli_enable>:
  e0:	4a03      	ldr	r2, [pc, #12]	; (f0 <tli_enable+0x10>)
  e2:	f8d2 3818 	ldr.w	r3, [r2, #2072]	; 0x818
  e6:	f043 0301 	orr.w	r3, r3, #1
  ea:	f8c2 3818 	str.w	r3, [r2, #2072]	; 0x818
  ee:	4770      	bx	lr
  f0:	40016000 	.word	0x40016000

000000f4 <tli_disable>:
  f4:	4a03      	ldr	r2, [pc, #12]	; (104 <tli_disable+0x10>)
  f6:	f8d2 3818 	ldr.w	r3, [r2, #2072]	; 0x818
  fa:	f023 0301 	bic.w	r3, r3, #1
  fe:	f8c2 3818 	str.w	r3, [r2, #2072]	; 0x818
 102:	4770      	bx	lr
 104:	40016000 	.word	0x40016000

00000108 <tli_reload_config>:
 108:	4b05      	ldr	r3, [pc, #20]	; (120 <tli_reload_config+0x18>)
 10a:	f8d3 2824 	ldr.w	r2, [r3, #2084]	; 0x824
 10e:	b920      	cbnz	r0, 11a <tli_reload_config+0x12>
 110:	f042 0202 	orr.w	r2, r2, #2
 114:	f8c3 2824 	str.w	r2, [r3, #2084]	; 0x824
 118:	4770      	bx	lr
 11a:	f042 0201 	orr.w	r2, r2, #1
 11e:	e7f9      	b.n	114 <tli_reload_config+0xc>
 120:	40016000 	.word	0x40016000

00000124 <tli_line_mark_set>:
 124:	4a05      	ldr	r2, [pc, #20]	; (13c <tli_line_mark_set+0x18>)
 126:	f8d2 3840 	ldr.w	r3, [r2, #2112]	; 0x840
 12a:	f423 63ff 	bic.w	r3, r3, #2040	; 0x7f8
 12e:	f023 0307 	bic.w	r3, r3, #7
 132:	f8c2 3840 	str.w	r3, [r2, #2112]	; 0x840
 136:	f8c2 0840 	str.w	r0, [r2, #2112]	; 0x840
 13a:	4770      	bx	lr
 13c:	40016000 	.word	0x40016000

00000140 <tli_current_pos_get>:
 140:	4b01      	ldr	r3, [pc, #4]	; (148 <tli_current_pos_get+0x8>)
 142:	f8d3 0844 	ldr.w	r0, [r3, #2116]	; 0x844
 146:	4770      	bx	lr
 148:	40016000 	.word	0x40016000

0000014c <tli_layer_enable>:
 14c:	f8d0 3084 	ldr.w	r3, [r0, #132]	; 0x84
 150:	f043 0301 	orr.w	r3, r3, #1
 154:	f8c0 3084 	str.w	r3, [r0, #132]	; 0x84
 158:	4770      	bx	lr

0000015a <tli_layer_disable>:
 15a:	f8d0 3084 	ldr.w	r3, [r0, #132]	; 0x84
 15e:	f023 0301 	bic.w	r3, r3, #1
 162:	f8c0 3084 	str.w	r3, [r0, #132]	; 0x84
 166:	4770      	bx	lr

00000168 <tli_color_key_enable>:
 168:	f8d0 3084 	ldr.w	r3, [r0, #132]	; 0x84
 16c:	f043 0302 	orr.w	r3, r3, #2
 170:	f8c0 3084 	str.w	r3, [r0, #132]	; 0x84
 174:	4770      	bx	lr

00000176 <tli_color_key_disable>:
 176:	f8d0 3084 	ldr.w	r3, [r0, #132]	; 0x84
 17a:	f023 0302 	bic.w	r3, r3, #2
 17e:	f8c0 3084 	str.w	r3, [r0, #132]	; 0x84
 182:	4770      	bx	lr

00000184 <tli_lut_enable>:
 184:	f8d0 3084 	ldr.w	r3, [r0, #132]	; 0x84
 188:	f043 0310 	orr.w	r3, r3, #16
 18c:	f8c0 3084 	str.w	r3, [r0, #132]	; 0x84
 190:	4770      	bx	lr

00000192 <tli_lut_disable>:
 192:	f8d0 3084 	ldr.w	r3, [r0, #132]	; 0x84
 196:	f023 0310 	bic.w	r3, r3, #16
 19a:	f8c0 3084 	str.w	r3, [r0, #132]	; 0x84
 19e:	4770      	bx	lr

000001a0 <tli_layer_init>:
 1a0:	f8d0 3088 	ldr.w	r3, [r0, #136]	; 0x88
 1a4:	b510      	push	{r4, lr}
 1a6:	f003 23f0 	and.w	r3, r3, #4026593280	; 0xf000f000
 1aa:	f8c0 3088 	str.w	r3, [r0, #136]	; 0x88
 1ae:	e9d1 2300 	ldrd	r2, r3, [r1]
 1b2:	ea43 4302 	orr.w	r3, r3, r2, lsl #16
 1b6:	f8c0 3088 	str.w	r3, [r0, #136]	; 0x88
 1ba:	f8d0 308c 	ldr.w	r3, [r0, #140]	; 0x8c
 1be:	f003 23f0 	and.w	r3, r3, #4026593280	; 0xf000f000
 1c2:	f8c0 308c 	str.w	r3, [r0, #140]	; 0x8c
 1c6:	e9d1 2302 	ldrd	r2, r3, [r1, #8]
 1ca:	ea43 4302 	orr.w	r3, r3, r2, lsl #16
 1ce:	2200      	movs	r2, #0
 1d0:	f8c0 308c 	str.w	r3, [r0, #140]	; 0x8c
 1d4:	f8d0 3094 	ldr.w	r3, [r0, #148]	; 0x94
 1d8:	f023 0307 	bic.w	r3, r3, #7
 1dc:	f8c0 3094 	str.w	r3, [r0, #148]	; 0x94
 1e0:	690b      	ldr	r3, [r1, #16]
 1e2:	f8c0 3094 	str.w	r3, [r0, #148]	; 0x94
 1e6:	f8d0 3098 	ldr.w	r3, [r0, #152]	; 0x98
 1ea:	f023 03ff 	bic.w	r3, r3, #255	; 0xff
 1ee:	f8c0 3098 	str.w	r3, [r0, #152]	; 0x98
 1f2:	694b      	ldr	r3, [r1, #20]
 1f4:	f8c0 3098 	str.w	r3, [r0, #152]	; 0x98
 1f8:	f8d0 309c 	ldr.w	r3, [r0, #156]	; 0x9c
 1fc:	f8c0 209c 	str.w	r2, [r0, #156]	; 0x9c
 200:	e9d1 3407 	ldrd	r3, r4, [r1, #28]
 204:	041b      	lsls	r3, r3, #16
 206:	ea43 2304 	orr.w	r3, r3, r4, lsl #8
 20a:	6a4c      	ldr	r4, [r1, #36]	; 0x24
 20c:	4323      	orrs	r3, r4
 20e:	698c      	ldr	r4, [r1, #24]
 210:	ea43 6304 	orr.w	r3, r3, r4, lsl #24
 214:	f8c0 309c 	str.w	r3, [r0, #156]	; 0x9c
 218:	f8d0 30a0 	ldr.w	r3, [r0, #160]	; 0xa0
 21c:	f423 63e0 	bic.w	r3, r3, #1792	; 0x700
 220:	f023 0307 	bic.w	r3, r3, #7
 224:	f8c0 30a0 	str.w	r3, [r0, #160]	; 0xa0
 228:	e9d1 430a 	ldrd	r4, r3, [r1, #40]	; 0x28
 22c:	4323      	orrs	r3, r4
 22e:	f8c0 30a0 	str.w	r3, [r0, #160]	; 0xa0
 232:	f8d0 30ac 	ldr.w	r3, [r0, #172]	; 0xac
 236:	f8c0 20ac 	str.w	r2, [r0, #172]	; 0xac
 23a:	6b0b      	ldr	r3, [r1, #48]	; 0x30
 23c:	f8c0 30ac 	str.w	r3, [r0, #172]	; 0xac
 240:	f8d0 30b0 	ldr.w	r3, [r0, #176]	; 0xb0
 244:	f003 23c0 	and.w	r3, r3, #3221274624	; 0xc000c000
 248:	f8c0 30b0 	str.w	r3, [r0, #176]	; 0xb0
 24c:	e9d1 430d 	ldrd	r4, r3, [r1, #52]	; 0x34
 250:	ea43 4304 	orr.w	r3, r3, r4, lsl #16
 254:	f8c0 30b0 	str.w	r3, [r0, #176]	; 0xb0
 258:	f8d0 30ac 	ldr.w	r3, [r0, #172]	; 0xac
 25c:	f8c0 20ac 	str.w	r2, [r0, #172]	; 0xac
 260:	6b0b      	ldr	r3, [r1, #48]	; 0x30
 262:	f8c0 30ac 	str.w	r3, [r0, #172]	; 0xac
 266:	f8d0 30b4 	ldr.w	r3, [r0, #180]	; 0xb4
 26a:	f423 63ff 	bic.w	r3, r3, #2040	; 0x7f8
 26e:	f023 0307 	bic.w	r3, r3, #7
 272:	f8c0 30b4 	str.w	r3, [r0, #180]	; 0xb4
 276:	6bcb      	ldr	r3, [r1, #60]	; 0x3c
 278:	f8c0 30b4 	str.w	r3, [r0, #180]	; 0xb4
 27c:	bd10      	pop	{r4, pc}

0000027e <tli_layer_window_offset_modify>:
 27e:	f8d0 3088 	ldr.w	r3, [r0, #136]	; 0x88
 282:	b530      	push	{r4, r5, lr}
 284:	f003 23f0 	and.w	r3, r3, #4026593280	; 0xf000f000
 288:	f8c0 3088 	str.w	r3, [r0, #136]	; 0x88
 28c:	f8d0 308c 	ldr.w	r3, [r0, #140]	; 0x8c
 290:	4c25      	ldr	r4, [pc, #148]	; (328 <tli_layer_window_offset_modify+0xaa>)
 292:	f003 23f0 	and.w	r3, r3, #4026593280	; 0xf000f000
 296:	f8c0 308c 	str.w	r3, [r0, #140]	; 0x8c
 29a:	f8d4 380c 	ldr.w	r3, [r4, #2060]	; 0x80c
 29e:	f3c3 430b 	ubfx	r3, r3, #16, #12
 2a2:	3301      	adds	r3, #1
 2a4:	4419      	add	r1, r3
 2a6:	f8d4 380c 	ldr.w	r3, [r4, #2060]	; 0x80c
 2aa:	f8d0 40b4 	ldr.w	r4, [r0, #180]	; 0xb4
 2ae:	f3c3 030b 	ubfx	r3, r3, #0, #12
 2b2:	3301      	adds	r3, #1
 2b4:	441a      	add	r2, r3
 2b6:	f8d0 3094 	ldr.w	r3, [r0, #148]	; 0x94
 2ba:	f3c4 040a 	ubfx	r4, r4, #0, #11
 2be:	f003 0307 	and.w	r3, r3, #7
 2c2:	3b01      	subs	r3, #1
 2c4:	2b06      	cmp	r3, #6
 2c6:	d805      	bhi.n	2d4 <tli_layer_window_offset_modify+0x56>
 2c8:	e8df f003 	tbb	[pc, r3]
 2cc:	20202017 	.word	0x20202017
 2d0:	2727      	.short	0x2727
 2d2:	20          	.byte	0x20
 2d3:	00          	.byte	0x00
 2d4:	f8d0 30b0 	ldr.w	r3, [r0, #176]	; 0xb0
 2d8:	f3c3 030d 	ubfx	r3, r3, #0, #14
 2dc:	3b03      	subs	r3, #3
 2de:	089b      	lsrs	r3, r3, #2
 2e0:	1e4d      	subs	r5, r1, #1
 2e2:	442b      	add	r3, r5
 2e4:	ea41 4103 	orr.w	r1, r1, r3, lsl #16
 2e8:	1e53      	subs	r3, r2, #1
 2ea:	4423      	add	r3, r4
 2ec:	ea42 4203 	orr.w	r2, r2, r3, lsl #16
 2f0:	f8c0 1088 	str.w	r1, [r0, #136]	; 0x88
 2f4:	f8c0 208c 	str.w	r2, [r0, #140]	; 0x8c
 2f8:	bd30      	pop	{r4, r5, pc}
 2fa:	2503      	movs	r5, #3
 2fc:	f8d0 30b0 	ldr.w	r3, [r0, #176]	; 0xb0
 300:	f3c3 030d 	ubfx	r3, r3, #0, #14
 304:	3b03      	subs	r3, #3
 306:	fbb3 f3f5 	udiv	r3, r3, r5
 30a:	e7e9      	b.n	2e0 <tli_layer_window_offset_modify+0x62>
 30c:	f8d0 30b0 	ldr.w	r3, [r0, #176]	; 0xb0
 310:	f3c3 030d 	ubfx	r3, r3, #0, #14
 314:	3b03      	subs	r3, #3
 316:	085b      	lsrs	r3, r3, #1
 318:	e7e2      	b.n	2e0 <tli_layer_window_offset_modify+0x62>
 31a:	f8d0 30b0 	ldr.w	r3, [r0, #176]	; 0xb0
 31e:	f3c3 030d 	ubfx	r3, r3, #0, #14
 322:	3b03      	subs	r3, #3
 324:	e7dc      	b.n	2e0 <tli_layer_window_offset_modify+0x62>
 326:	bf00      	nop
 328:	40016000 	.word	0x40016000

0000032c <tli_lut_init>:
 32c:	f8d0 30c4 	ldr.w	r3, [r0, #196]	; 0xc4
 330:	2300      	movs	r3, #0
 332:	f8c0 30c4 	str.w	r3, [r0, #196]	; 0xc4
 336:	e9d1 3201 	ldrd	r3, r2, [r1, #4]
 33a:	041b      	lsls	r3, r3, #16
 33c:	ea43 2302 	orr.w	r3, r3, r2, lsl #8
 340:	68ca      	ldr	r2, [r1, #12]
 342:	4313      	orrs	r3, r2
 344:	680a      	ldr	r2, [r1, #0]
 346:	ea43 6302 	orr.w	r3, r3, r2, lsl #24
 34a:	f8c0 30c4 	str.w	r3, [r0, #196]	; 0xc4
 34e:	4770      	bx	lr

00000350 <tli_ckey_init>:
 350:	ea43 4301 	orr.w	r3, r3, r1, lsl #16
 354:	ea43 2302 	orr.w	r3, r3, r2, lsl #8
 358:	f8c0 3090 	str.w	r3, [r0, #144]	; 0x90
 35c:	4770      	bx	lr

0000035e <tli_flag_get>:
 35e:	4b06      	ldr	r3, [pc, #24]	; (378 <tli_flag_get+0x1a>)
 360:	2800      	cmp	r0, #0
 362:	bfb4      	ite	lt
 364:	f8d3 3838 	ldrlt.w	r3, [r3, #2104]	; 0x838
 368:	f8d3 3848 	ldrge.w	r3, [r3, #2120]	; 0x848
 36c:	4203      	tst	r3, r0
 36e:	bf14      	ite	ne
 370:	2001      	movne	r0, #1
 372:	2000      	moveq	r0, #0
 374:	4770      	bx	lr
 376:	bf00      	nop
 378:	40016000 	.word	0x40016000

0000037c <tli_interrupt_enable>:
 37c:	4a03      	ldr	r2, [pc, #12]	; (38c <tli_interrupt_enable+0x10>)
 37e:	f8d2 3834 	ldr.w	r3, [r2, #2100]	; 0x834
 382:	4303      	orrs	r3, r0
 384:	f8c2 3834 	str.w	r3, [r2, #2100]	; 0x834
 388:	4770      	bx	lr
 38a:	bf00      	nop
 38c:	40016000 	.word	0x40016000

00000390 <tli_interrupt_disable>:
 390:	4a03      	ldr	r2, [pc, #12]	; (3a0 <tli_interrupt_disable+0x10>)
 392:	f8d2 3834 	ldr.w	r3, [r2, #2100]	; 0x834
 396:	ea23 0300 	bic.w	r3, r3, r0
 39a:	f8c2 3834 	str.w	r3, [r2, #2100]	; 0x834
 39e:	4770      	bx	lr
 3a0:	40016000 	.word	0x40016000

000003a4 <tli_interrupt_flag_get>:
 3a4:	4602      	mov	r2, r0
 3a6:	4906      	ldr	r1, [pc, #24]	; (3c0 <tli_interrupt_flag_get+0x1c>)
 3a8:	f8d1 0838 	ldr.w	r0, [r1, #2104]	; 0x838
 3ac:	4010      	ands	r0, r2
 3ae:	d005      	beq.n	3bc <tli_interrupt_flag_get+0x18>
 3b0:	f8d1 3834 	ldr.w	r3, [r1, #2100]	; 0x834
 3b4:	421a      	tst	r2, r3
 3b6:	bf14      	ite	ne
 3b8:	2001      	movne	r0, #1
 3ba:	2000      	moveq	r0, #0
 3bc:	4770      	bx	lr
 3be:	bf00      	nop
 3c0:	40016000 	.word	0x40016000

000003c4 <tli_interrupt_flag_clear>:
 3c4:	4a03      	ldr	r2, [pc, #12]	; (3d4 <tli_interrupt_flag_clear+0x10>)
 3c6:	f8d2 383c 	ldr.w	r3, [r2, #2108]	; 0x83c
 3ca:	4303      	orrs	r3, r0
 3cc:	f8c2 383c 	str.w	r3, [r2, #2108]	; 0x83c
 3d0:	4770      	bx	lr
 3d2:	bf00      	nop
 3d4:	40016000 	.word	0x40016000

gd32f20x_trng.o:     file format elf32-littlearm


Disassembly of section .text:

00000000 <trng_deinit>:
   0:	b508      	push	{r3, lr}
   2:	f641 4006 	movw	r0, #7174	; 0x1c06
   6:	f7ff fffe 	bl	0 <rcu_periph_reset_enable>
   a:	e8bd 4008 	ldmia.w	sp!, {r3, lr}
   e:	f641 4006 	movw	r0, #7174	; 0x1c06
  12:	f7ff bffe 	b.w	0 <rcu_periph_reset_disable>

00000016 <trng_enable>:
  16:	4a04      	ldr	r2, [pc, #16]	; (28 <trng_enable+0x12>)
  18:	f8d2 3800 	ldr.w	r3, [r2, #2048]	; 0x800
  1c:	f043 0304 	orr.w	r3, r3, #4
  20:	f8c2 3800 	str.w	r3, [r2, #2048]	; 0x800
  24:	4770      	bx	lr
  26:	bf00      	nop
  28:	50060000 	.word	0x50060000

0000002c <trng_disable>:
  2c:	4a03      	ldr	r2, [pc, #12]	; (3c <trng_disable+0x10>)
  2e:	f8d2 3800 	ldr.w	r3, [r2, #2048]	; 0x800
  32:	f023 0304 	bic.w	r3, r3, #4
  36:	f8c2 3800 	str.w	r3, [r2, #2048]	; 0x800
  3a:	4770      	bx	lr
  3c:	50060000 	.word	0x50060000

00000040 <trng_get_true_random_data>:
  40:	4b01      	ldr	r3, [pc, #4]	; (48 <trng_get_true_random_data+0x8>)
  42:	f8d3 0808 	ldr.w	r0, [r3, #2056]	; 0x808
  46:	4770      	bx	lr
  48:	50060000 	.word	0x50060000

0000004c <trng_flag_get>:
  4c:	4b03      	ldr	r3, [pc, #12]	; (5c <trng_flag_get+0x10>)
  4e:	f8d3 3804 	ldr.w	r3, [r3, #2052]	; 0x804
  52:	4218      	tst	r0, r3
  54:	bf14      	ite	ne
  56:	2001      	movne	r0, #1
  58:	2000      	moveq	r0, #0
  5a:	4770      	bx	lr
  5c:	50060000 	.word	0x50060000

00000060 <trng_interrupt_enable>:
  60:	4a03      	ldr	r2, [pc, #12]	; (70 <trng_interrupt_enable+0x10>)
  62:	f8d2 3800 	ldr.w	r3, [r2, #2048]	; 0x800
  66:	f043 0308 	orr.w	r3, r3, #8
  6a:	f8c2 3800 	str.w	r3, [r2, #2048]	; 0x800
  6e:	4770      	bx	lr
  70:	50060000 	.word	0x50060000

00000074 <trng_interrupt_disable>:
  74:	4a03      	ldr	r2, [pc, #12]	; (84 <trng_interrupt_disable+0x10>)
  76:	f8d2 3800 	ldr.w	r3, [r2, #2048]	; 0x800
  7a:	f023 0308 	bic.w	r3, r3, #8
  7e:	f8c2 3800 	str.w	r3, [r2, #2048]	; 0x800
  82:	4770      	bx	lr
  84:	50060000 	.word	0x50060000

00000088 <trng_interrupt_flag_get>:
  88:	f7ff bffe 	b.w	4c <trng_flag_get>

0000008c <trng_interrupt_flag_clear>:
  8c:	4a03      	ldr	r2, [pc, #12]	; (9c <trng_interrupt_flag_clear+0x10>)
  8e:	f8d2 3804 	ldr.w	r3, [r2, #2052]	; 0x804
  92:	ea23 0300 	bic.w	r3, r3, r0
  96:	f8c2 3804 	str.w	r3, [r2, #2052]	; 0x804
  9a:	4770      	bx	lr
  9c:	50060000 	.word	0x50060000

gd32f20x_usart.o:     file format elf32-littlearm


Disassembly of section .text:

00000000 <usart_deinit>:
   0:	b508      	push	{r3, lr}
   2:	4b2d      	ldr	r3, [pc, #180]	; (b8 <usart_deinit+0xb8>)
   4:	4298      	cmp	r0, r3
   6:	d050      	beq.n	aa <usart_deinit+0xaa>
   8:	d817      	bhi.n	3a <usart_deinit+0x3a>
   a:	f5a3 5330 	sub.w	r3, r3, #11264	; 0x2c00
   e:	4298      	cmp	r0, r3
  10:	d044      	beq.n	9c <usart_deinit+0x9c>
  12:	d808      	bhi.n	26 <usart_deinit+0x26>
  14:	f5a3 6300 	sub.w	r3, r3, #2048	; 0x800
  18:	4298      	cmp	r0, r3
  1a:	d02a      	beq.n	72 <usart_deinit+0x72>
  1c:	f503 6380 	add.w	r3, r3, #1024	; 0x400
  20:	4298      	cmp	r0, r3
  22:	d02d      	beq.n	80 <usart_deinit+0x80>
  24:	bd08      	pop	{r3, pc}
  26:	4b25      	ldr	r3, [pc, #148]	; (bc <usart_deinit+0xbc>)
  28:	4298      	cmp	r0, r3
  2a:	d1fb      	bne.n	24 <usart_deinit+0x24>
  2c:	f240 4014 	movw	r0, #1044	; 0x414
  30:	f7ff fffe 	bl	0 <rcu_periph_reset_enable>
  34:	f240 4014 	movw	r0, #1044	; 0x414
  38:	e017      	b.n	6a <usart_deinit+0x6a>
  3a:	4b21      	ldr	r3, [pc, #132]	; (c0 <usart_deinit+0xc0>)
  3c:	4298      	cmp	r0, r3
  3e:	d00e      	beq.n	5e <usart_deinit+0x5e>
  40:	f503 5360 	add.w	r3, r3, #14336	; 0x3800
  44:	4298      	cmp	r0, r3
  46:	d022      	beq.n	8e <usart_deinit+0x8e>
  48:	f5a3 4374 	sub.w	r3, r3, #62464	; 0xf400
  4c:	4298      	cmp	r0, r3
  4e:	d1e9      	bne.n	24 <usart_deinit+0x24>
  50:	f641 601f 	movw	r0, #7711	; 0x1e1f
  54:	f7ff fffe 	bl	0 <rcu_periph_reset_enable>
  58:	f641 601f 	movw	r0, #7711	; 0x1e1f
  5c:	e005      	b.n	6a <usart_deinit+0x6a>
  5e:	f240 300e 	movw	r0, #782	; 0x30e
  62:	f7ff fffe 	bl	0 <rcu_periph_reset_enable>
  66:	f240 300e 	movw	r0, #782	; 0x30e
  6a:	e8bd 4008 	ldmia.w	sp!, {r3, lr}
  6e:	f7ff bffe 	b.w	0 <rcu_periph_reset_disable>
  72:	f240 4011 	movw	r0, #1041	; 0x411
  76:	f7ff fffe 	bl	0 <rcu_periph_reset_enable>
  7a:	f240 4011 	movw	r0, #1041	; 0x411
  7e:	e7f4      	b.n	6a <usart_deinit+0x6a>
  80:	f240 4012 	movw	r0, #1042	; 0x412
  84:	f7ff fffe 	bl	0 <rcu_periph_reset_enable>
  88:	f240 4012 	movw	r0, #1042	; 0x412
  8c:	e7ed      	b.n	6a <usart_deinit+0x6a>
  8e:	f641 5018 	movw	r0, #7448	; 0x1d18
  92:	f7ff fffe 	bl	0 <rcu_periph_reset_enable>
  96:	f641 5018 	movw	r0, #7448	; 0x1d18
  9a:	e7e6      	b.n	6a <usart_deinit+0x6a>
  9c:	f240 4013 	movw	r0, #1043	; 0x413
  a0:	f7ff fffe 	bl	0 <rcu_periph_reset_enable>
  a4:	f240 4013 	movw	r0, #1043	; 0x413
  a8:	e7df      	b.n	6a <usart_deinit+0x6a>
  aa:	f641 601e 	movw	r0, #7710	; 0x1e1e
  ae:	f7ff fffe 	bl	0 <rcu_periph_reset_enable>
  b2:	f641 601e 	movw	r0, #7710	; 0x1e1e
  b6:	e7d8      	b.n	6a <usart_deinit+0x6a>
  b8:	40007800 	.word	0x40007800
  bc:	40005000 	.word	0x40005000
  c0:	40013800 	.word	0x40013800

000000c4 <usart_baudrate_set>:
  c4:	b538      	push	{r3, r4, r5, lr}
  c6:	4b16      	ldr	r3, [pc, #88]	; (120 <usart_baudrate_set+0x5c>)
  c8:	4604      	mov	r4, r0
  ca:	4298      	cmp	r0, r3
  cc:	460d      	mov	r5, r1
  ce:	d025      	beq.n	11c <usart_baudrate_set+0x58>
  d0:	d816      	bhi.n	100 <usart_baudrate_set+0x3c>
  d2:	f5a3 5330 	sub.w	r3, r3, #11264	; 0x2c00
  d6:	4298      	cmp	r0, r3
  d8:	d020      	beq.n	11c <usart_baudrate_set+0x58>
  da:	d80f      	bhi.n	fc <usart_baudrate_set+0x38>
  dc:	f5a3 6300 	sub.w	r3, r3, #2048	; 0x800
  e0:	4298      	cmp	r0, r3
  e2:	d01b      	beq.n	11c <usart_baudrate_set+0x58>
  e4:	f503 6380 	add.w	r3, r3, #1024	; 0x400
  e8:	429c      	cmp	r4, r3
  ea:	d017      	beq.n	11c <usart_baudrate_set+0x58>
  ec:	2000      	movs	r0, #0
  ee:	eb00 0155 	add.w	r1, r0, r5, lsr #1
  f2:	fbb1 f1f5 	udiv	r1, r1, r5
  f6:	b289      	uxth	r1, r1
  f8:	60a1      	str	r1, [r4, #8]
  fa:	bd38      	pop	{r3, r4, r5, pc}
  fc:	4b09      	ldr	r3, [pc, #36]	; (124 <usart_baudrate_set+0x60>)
  fe:	e7f3      	b.n	e8 <usart_baudrate_set+0x24>
 100:	4b09      	ldr	r3, [pc, #36]	; (128 <usart_baudrate_set+0x64>)
 102:	4298      	cmp	r0, r3
 104:	d006      	beq.n	114 <usart_baudrate_set+0x50>
 106:	f503 5360 	add.w	r3, r3, #14336	; 0x3800
 10a:	4298      	cmp	r0, r3
 10c:	d002      	beq.n	114 <usart_baudrate_set+0x50>
 10e:	f5a3 4374 	sub.w	r3, r3, #62464	; 0xf400
 112:	e7e9      	b.n	e8 <usart_baudrate_set+0x24>
 114:	2003      	movs	r0, #3
 116:	f7ff fffe 	bl	0 <rcu_clock_freq_get>
 11a:	e7e8      	b.n	ee <usart_baudrate_set+0x2a>
 11c:	2002      	movs	r0, #2
 11e:	e7fa      	b.n	116 <usart_baudrate_set+0x52>
 120:	40007800 	.word	0x40007800
 124:	40005000 	.word	0x40005000
 128:	40013800 	.word	0x40013800

0000012c <usart_parity_config>:
 12c:	68c3      	ldr	r3, [r0, #12]
 12e:	f423 63c0 	bic.w	r3, r3, #1536	; 0x600
 132:	60c3      	str	r3, [r0, #12]
 134:	68c3      	ldr	r3, [r0, #12]
 136:	430b      	orrs	r3, r1
 138:	60c3      	str	r3, [r0, #12]
 13a:	4770      	bx	lr

0000013c <usart_word_length_set>:
 13c:	68c3      	ldr	r3, [r0, #12]
 13e:	f423 5380 	bic.w	r3, r3, #4096	; 0x1000
 142:	60c3      	str	r3, [r0, #12]
 144:	68c3      	ldr	r3, [r0, #12]
 146:	430b      	orrs	r3, r1
 148:	60c3      	str	r3, [r0, #12]
 14a:	4770      	bx	lr

0000014c <usart_stop_bit_set>:
 14c:	6903      	ldr	r3, [r0, #16]
 14e:	f423 5340 	bic.w	r3, r3, #12288	; 0x3000
 152:	6103      	str	r3, [r0, #16]
 154:	6903      	ldr	r3, [r0, #16]
 156:	430b      	orrs	r3, r1
 158:	6103      	str	r3, [r0, #16]
 15a:	4770      	bx	lr

0000015c <usart_enable>:
 15c:	68c3      	ldr	r3, [r0, #12]
 15e:	f443 5300 	orr.w	r3, r3, #8192	; 0x2000
 162:	60c3      	str	r3, [r0, #12]
 164:	4770      	bx	lr

00000166 <usart_disable>:
 166:	68c3      	ldr	r3, [r0, #12]
 168:	f423 5300 	bic.w	r3, r3, #8192	; 0x2000
 16c:	60c3      	str	r3, [r0, #12]
 16e:	4770      	bx	lr

00000170 <usart_transmit_config>:
 170:	68c3      	ldr	r3, [r0, #12]
 172:	f023 0308 	bic.w	r3, r3, #8
 176:	430b      	orrs	r3, r1
 178:	60c3      	str	r3, [r0, #12]
 17a:	4770      	bx	lr

0000017c <usart_receive_config>:
 17c:	68c3      	ldr	r3, [r0, #12]
 17e:	f023 0304 	bic.w	r3, r3, #4
 182:	430b      	orrs	r3, r1
 184:	60c3      	str	r3, [r0, #12]
 186:	4770      	bx	lr

00000188 <usart_data_first_config>:
 188:	f8d0 3080 	ldr.w	r3, [r0, #128]	; 0x80
 18c:	f423 6300 	bic.w	r3, r3, #2048	; 0x800
 190:	f8c0 3080 	str.w	r3, [r0, #128]	; 0x80
 194:	f8d0 3080 	ldr.w	r3, [r0, #128]	; 0x80
 198:	430b      	orrs	r3, r1
 19a:	f8c0 3080 	str.w	r3, [r0, #128]	; 0x80
 19e:	4770      	bx	lr

000001a0 <usart_invert_config>:
 1a0:	2905      	cmp	r1, #5
 1a2:	d80a      	bhi.n	1ba <usart_invert_config+0x1a>
 1a4:	e8df f001 	tbb	[pc, r1]
 1a8:	190a1403 	.word	0x190a1403
 1ac:	1e0f      	.short	0x1e0f
 1ae:	f8d0 3080 	ldr.w	r3, [r0, #128]	; 0x80
 1b2:	f443 6380 	orr.w	r3, r3, #1024	; 0x400
 1b6:	f8c0 3080 	str.w	r3, [r0, #128]	; 0x80
 1ba:	4770      	bx	lr
 1bc:	f8d0 3080 	ldr.w	r3, [r0, #128]	; 0x80
 1c0:	f443 7300 	orr.w	r3, r3, #512	; 0x200
 1c4:	e7f7      	b.n	1b6 <usart_invert_config+0x16>
 1c6:	f8d0 3080 	ldr.w	r3, [r0, #128]	; 0x80
 1ca:	f443 7380 	orr.w	r3, r3, #256	; 0x100
 1ce:	e7f2      	b.n	1b6 <usart_invert_config+0x16>
 1d0:	f8d0 3080 	ldr.w	r3, [r0, #128]	; 0x80
 1d4:	f423 6380 	bic.w	r3, r3, #1024	; 0x400
 1d8:	e7ed      	b.n	1b6 <usart_invert_config+0x16>
 1da:	f8d0 3080 	ldr.w	r3, [r0, #128]	; 0x80
 1de:	f423 7300 	bic.w	r3, r3, #512	; 0x200
 1e2:	e7e8      	b.n	1b6 <usart_invert_config+0x16>
 1e4:	f8d0 3080 	ldr.w	r3, [r0, #128]	; 0x80
 1e8:	f423 7380 	bic.w	r3, r3, #256	; 0x100
 1ec:	e7e3      	b.n	1b6 <usart_invert_config+0x16>

000001ee <usart_receiver_timeout_enable>:
 1ee:	f8d0 3080 	ldr.w	r3, [r0, #128]	; 0x80
 1f2:	f043 0301 	orr.w	r3, r3, #1
 1f6:	f8c0 3080 	str.w	r3, [r0, #128]	; 0x80
 1fa:	4770      	bx	lr

000001fc <usart_receiver_timeout_disable>:
 1fc:	f8d0 3080 	ldr.w	r3, [r0, #128]	; 0x80
 200:	f023 0301 	bic.w	r3, r3, #1
 204:	f8c0 3080 	str.w	r3, [r0, #128]	; 0x80
 208:	4770      	bx	lr

0000020a <usart_receiver_timeout_threshold_config>:
 20a:	f8d0 3084 	ldr.w	r3, [r0, #132]	; 0x84
 20e:	f003 437f 	and.w	r3, r3, #4278190080	; 0xff000000
 212:	f8c0 3084 	str.w	r3, [r0, #132]	; 0x84
 216:	f8d0 3084 	ldr.w	r3, [r0, #132]	; 0x84
 21a:	430b      	orrs	r3, r1
 21c:	f8c0 3084 	str.w	r3, [r0, #132]	; 0x84
 220:	4770      	bx	lr

00000222 <usart_data_transmit>:
 222:	f3c1 0108 	ubfx	r1, r1, #0, #9
 226:	6041      	str	r1, [r0, #4]
 228:	4770      	bx	lr

0000022a <usart_data_receive>:
 22a:	6840      	ldr	r0, [r0, #4]
 22c:	f3c0 0008 	ubfx	r0, r0, #0, #9
 230:	4770      	bx	lr

00000232 <usart_address_config>:
 232:	6903      	ldr	r3, [r0, #16]
 234:	f001 010f 	and.w	r1, r1, #15
 238:	f023 030f 	bic.w	r3, r3, #15
 23c:	6103      	str	r3, [r0, #16]
 23e:	6903      	ldr	r3, [r0, #16]
 240:	4319      	orrs	r1, r3
 242:	6101      	str	r1, [r0, #16]
 244:	4770      	bx	lr

00000246 <usart_mute_mode_enable>:
 246:	68c3      	ldr	r3, [r0, #12]
 248:	f043 0302 	orr.w	r3, r3, #2
 24c:	60c3      	str	r3, [r0, #12]
 24e:	4770      	bx	lr

00000250 <usart_mute_mode_disable>:
 250:	68c3      	ldr	r3, [r0, #12]
 252:	f023 0302 	bic.w	r3, r3, #2
 256:	60c3      	str	r3, [r0, #12]
 258:	4770      	bx	lr

0000025a <usart_mute_mode_wakeup_config>:
 25a:	68c3      	ldr	r3, [r0, #12]
 25c:	f423 6300 	bic.w	r3, r3, #2048	; 0x800
 260:	60c3      	str	r3, [r0, #12]
 262:	68c3      	ldr	r3, [r0, #12]
 264:	430b      	orrs	r3, r1
 266:	60c3      	str	r3, [r0, #12]
 268:	4770      	bx	lr

0000026a <usart_lin_mode_enable>:
 26a:	6903      	ldr	r3, [r0, #16]
 26c:	f443 4380 	orr.w	r3, r3, #16384	; 0x4000
 270:	6103      	str	r3, [r0, #16]
 272:	4770      	bx	lr

00000274 <usart_lin_mode_disable>:
 274:	6903      	ldr	r3, [r0, #16]
 276:	f423 4380 	bic.w	r3, r3, #16384	; 0x4000
 27a:	6103      	str	r3, [r0, #16]
 27c:	4770      	bx	lr

0000027e <usart_lin_break_detection_length_config>:
 27e:	6903      	ldr	r3, [r0, #16]
 280:	f001 0120 	and.w	r1, r1, #32
 284:	f023 0320 	bic.w	r3, r3, #32
 288:	6103      	str	r3, [r0, #16]
 28a:	6903      	ldr	r3, [r0, #16]
 28c:	4319      	orrs	r1, r3
 28e:	6101      	str	r1, [r0, #16]
 290:	4770      	bx	lr

00000292 <usart_send_break>:
 292:	68c3      	ldr	r3, [r0, #12]
 294:	f043 0301 	orr.w	r3, r3, #1
 298:	60c3      	str	r3, [r0, #12]
 29a:	4770      	bx	lr

0000029c <usart_halfduplex_enable>:
 29c:	6943      	ldr	r3, [r0, #20]
 29e:	f043 0308 	orr.w	r3, r3, #8
 2a2:	6143      	str	r3, [r0, #20]
 2a4:	4770      	bx	lr

000002a6 <usart_halfduplex_disable>:
 2a6:	6943      	ldr	r3, [r0, #20]
 2a8:	f023 0308 	bic.w	r3, r3, #8
 2ac:	6143      	str	r3, [r0, #20]
 2ae:	4770      	bx	lr

000002b0 <usart_synchronous_clock_enable>:
 2b0:	6903      	ldr	r3, [r0, #16]
 2b2:	f443 6300 	orr.w	r3, r3, #2048	; 0x800
 2b6:	6103      	str	r3, [r0, #16]
 2b8:	4770      	bx	lr

000002ba <usart_synchronous_clock_disable>:
 2ba:	6903      	ldr	r3, [r0, #16]
 2bc:	f423 6300 	bic.w	r3, r3, #2048	; 0x800
 2c0:	6103      	str	r3, [r0, #16]
 2c2:	4770      	bx	lr

000002c4 <usart_synchronous_clock_config>:
 2c4:	b510      	push	{r4, lr}
 2c6:	f402 7200 	and.w	r2, r2, #512	; 0x200
 2ca:	6904      	ldr	r4, [r0, #16]
 2cc:	f403 6380 	and.w	r3, r3, #1024	; 0x400
 2d0:	431a      	orrs	r2, r3
 2d2:	f401 7180 	and.w	r1, r1, #256	; 0x100
 2d6:	f424 64e0 	bic.w	r4, r4, #1792	; 0x700
 2da:	430a      	orrs	r2, r1
 2dc:	4322      	orrs	r2, r4
 2de:	6102      	str	r2, [r0, #16]
 2e0:	bd10      	pop	{r4, pc}

000002e2 <usart_guard_time_config>:
 2e2:	6983      	ldr	r3, [r0, #24]
 2e4:	0209      	lsls	r1, r1, #8
 2e6:	f423 437f 	bic.w	r3, r3, #65280	; 0xff00
 2ea:	6183      	str	r3, [r0, #24]
 2ec:	6983      	ldr	r3, [r0, #24]
 2ee:	b289      	uxth	r1, r1
 2f0:	4319      	orrs	r1, r3
 2f2:	6181      	str	r1, [r0, #24]
 2f4:	4770      	bx	lr

000002f6 <usart_smartcard_mode_enable>:
 2f6:	6943      	ldr	r3, [r0, #20]
 2f8:	f043 0320 	orr.w	r3, r3, #32
 2fc:	6143      	str	r3, [r0, #20]
 2fe:	4770      	bx	lr

00000300 <usart_smartcard_mode_disable>:
 300:	6943      	ldr	r3, [r0, #20]
 302:	f023 0320 	bic.w	r3, r3, #32
 306:	6143      	str	r3, [r0, #20]
 308:	4770      	bx	lr

0000030a <usart_smartcard_mode_nack_enable>:
 30a:	6943      	ldr	r3, [r0, #20]
 30c:	f043 0310 	orr.w	r3, r3, #16
 310:	6143      	str	r3, [r0, #20]
 312:	4770      	bx	lr

00000314 <usart_smartcard_mode_nack_disable>:
 314:	6943      	ldr	r3, [r0, #20]
 316:	f023 0310 	bic.w	r3, r3, #16
 31a:	6143      	str	r3, [r0, #20]
 31c:	4770      	bx	lr

0000031e <usart_smartcard_autoretry_config>:
 31e:	f8d0 3080 	ldr.w	r3, [r0, #128]	; 0x80
 322:	0049      	lsls	r1, r1, #1
 324:	f023 030e 	bic.w	r3, r3, #14
 328:	f8c0 3080 	str.w	r3, [r0, #128]	; 0x80
 32c:	f8d0 3080 	ldr.w	r3, [r0, #128]	; 0x80
 330:	f001 010e 	and.w	r1, r1, #14
 334:	4319      	orrs	r1, r3
 336:	f8c0 1080 	str.w	r1, [r0, #128]	; 0x80
 33a:	4770      	bx	lr

0000033c <usart_block_length_config>:
 33c:	f8d0 3084 	ldr.w	r3, [r0, #132]	; 0x84
 340:	f023 437f 	bic.w	r3, r3, #4278190080	; 0xff000000
 344:	f8c0 3084 	str.w	r3, [r0, #132]	; 0x84
 348:	f8d0 3084 	ldr.w	r3, [r0, #132]	; 0x84
 34c:	ea43 6301 	orr.w	r3, r3, r1, lsl #24
 350:	f8c0 3084 	str.w	r3, [r0, #132]	; 0x84
 354:	4770      	bx	lr

00000356 <usart_irda_mode_enable>:
 356:	6943      	ldr	r3, [r0, #20]
 358:	f043 0302 	orr.w	r3, r3, #2
 35c:	6143      	str	r3, [r0, #20]
 35e:	4770      	bx	lr

00000360 <usart_irda_mode_disable>:
 360:	6943      	ldr	r3, [r0, #20]
 362:	f023 0302 	bic.w	r3, r3, #2
 366:	6143      	str	r3, [r0, #20]
 368:	4770      	bx	lr

0000036a <usart_prescaler_config>:
 36a:	6983      	ldr	r3, [r0, #24]
 36c:	f023 03ff 	bic.w	r3, r3, #255	; 0xff
 370:	6183      	str	r3, [r0, #24]
 372:	6983      	ldr	r3, [r0, #24]
 374:	4319      	orrs	r1, r3
 376:	6181      	str	r1, [r0, #24]
 378:	4770      	bx	lr

0000037a <usart_irda_lowpower_config>:
 37a:	6943      	ldr	r3, [r0, #20]
 37c:	f001 0104 	and.w	r1, r1, #4
 380:	f023 0304 	bic.w	r3, r3, #4
 384:	6143      	str	r3, [r0, #20]
 386:	6943      	ldr	r3, [r0, #20]
 388:	4319      	orrs	r1, r3
 38a:	6141      	str	r1, [r0, #20]
 38c:	4770      	bx	lr

0000038e <usart_hardware_flow_rts_config>:
 38e:	6943      	ldr	r3, [r0, #20]
 390:	f423 7380 	bic.w	r3, r3, #256	; 0x100
 394:	430b      	orrs	r3, r1
 396:	6143      	str	r3, [r0, #20]
 398:	4770      	bx	lr

0000039a <usart_hardware_flow_cts_config>:
 39a:	6943      	ldr	r3, [r0, #20]
 39c:	f423 7300 	bic.w	r3, r3, #512	; 0x200
 3a0:	430b      	orrs	r3, r1
 3a2:	6143      	str	r3, [r0, #20]
 3a4:	4770      	bx	lr

000003a6 <usart_dma_receive_config>:
 3a6:	6943      	ldr	r3, [r0, #20]
 3a8:	f023 0340 	bic.w	r3, r3, #64	; 0x40
 3ac:	430b      	orrs	r3, r1
 3ae:	6143      	str	r3, [r0, #20]
 3b0:	4770      	bx	lr

000003b2 <usart_dma_transmit_config>:
 3b2:	6943      	ldr	r3, [r0, #20]
 3b4:	f023 0380 	bic.w	r3, r3, #128	; 0x80
 3b8:	430b      	orrs	r3, r1
 3ba:	6143      	str	r3, [r0, #20]
 3bc:	4770      	bx	lr

000003be <usart_flag_get>:
 3be:	098b      	lsrs	r3, r1, #6
 3c0:	5818      	ldr	r0, [r3, r0]
 3c2:	f001 011f 	and.w	r1, r1, #31
 3c6:	40c8      	lsrs	r0, r1
 3c8:	f000 0001 	and.w	r0, r0, #1
 3cc:	4770      	bx	lr

000003ce <usart_flag_clear>:
 3ce:	2201      	movs	r2, #1
 3d0:	b510      	push	{r4, lr}
 3d2:	098c      	lsrs	r4, r1, #6
 3d4:	5823      	ldr	r3, [r4, r0]
 3d6:	f001 011f 	and.w	r1, r1, #31
 3da:	408a      	lsls	r2, r1
 3dc:	ea23 0302 	bic.w	r3, r3, r2
 3e0:	5023      	str	r3, [r4, r0]
 3e2:	bd10      	pop	{r4, pc}

000003e4 <usart_interrupt_enable>:
 3e4:	2301      	movs	r3, #1
 3e6:	b510      	push	{r4, lr}
 3e8:	f3c1 1289 	ubfx	r2, r1, #6, #10
 3ec:	5814      	ldr	r4, [r2, r0]
 3ee:	f001 011f 	and.w	r1, r1, #31
 3f2:	408b      	lsls	r3, r1
 3f4:	4323      	orrs	r3, r4
 3f6:	5013      	str	r3, [r2, r0]
 3f8:	bd10      	pop	{r4, pc}

000003fa <usart_interrupt_disable>:
 3fa:	2201      	movs	r2, #1
 3fc:	b510      	push	{r4, lr}
 3fe:	f3c1 1489 	ubfx	r4, r1, #6, #10
 402:	5823      	ldr	r3, [r4, r0]
 404:	f001 011f 	and.w	r1, r1, #31
 408:	408a      	lsls	r2, r1
 40a:	ea23 0302 	bic.w	r3, r3, r2
 40e:	5023      	str	r3, [r4, r0]
 410:	bd10      	pop	{r4, pc}

00000412 <usart_interrupt_flag_get>:
 412:	f3c1 1389 	ubfx	r3, r1, #6, #10
 416:	b510      	push	{r4, lr}
 418:	581c      	ldr	r4, [r3, r0]
 41a:	0d8b      	lsrs	r3, r1, #22
 41c:	581a      	ldr	r2, [r3, r0]
 41e:	2301      	movs	r3, #1
 420:	f3c1 4004 	ubfx	r0, r1, #16, #5
 424:	fa03 f000 	lsl.w	r0, r3, r0
 428:	4010      	ands	r0, r2
 42a:	d006      	beq.n	43a <usart_interrupt_flag_get+0x28>
 42c:	f001 011f 	and.w	r1, r1, #31
 430:	408b      	lsls	r3, r1
 432:	4223      	tst	r3, r4
 434:	bf14      	ite	ne
 436:	2001      	movne	r0, #1
 438:	2000      	moveq	r0, #0
 43a:	bd10      	pop	{r4, pc}

0000043c <usart_interrupt_flag_clear>:
 43c:	2201      	movs	r2, #1
 43e:	b510      	push	{r4, lr}
 440:	0d8c      	lsrs	r4, r1, #22
 442:	5823      	ldr	r3, [r4, r0]
 444:	f3c1 4104 	ubfx	r1, r1, #16, #5
 448:	408a      	lsls	r2, r1
 44a:	ea23 0302 	bic.w	r3, r3, r2
 44e:	5023      	str	r3, [r4, r0]
 450:	bd10      	pop	{r4, pc}
 452:	bf00      	nop

gd32f20x_wwdgt.o:     file format elf32-littlearm


Disassembly of section .text:

00000000 <wwdgt_deinit>:
   0:	b508      	push	{r3, lr}
   2:	f240 400b 	movw	r0, #1035	; 0x40b
   6:	f7ff fffe 	bl	0 <rcu_periph_reset_enable>
   a:	e8bd 4008 	ldmia.w	sp!, {r3, lr}
   e:	f240 400b 	movw	r0, #1035	; 0x40b
  12:	f7ff bffe 	b.w	0 <rcu_periph_reset_disable>

00000016 <wwdgt_enable>:
  16:	4a04      	ldr	r2, [pc, #16]	; (28 <wwdgt_enable+0x12>)
  18:	f8d2 3c00 	ldr.w	r3, [r2, #3072]	; 0xc00
  1c:	f043 0380 	orr.w	r3, r3, #128	; 0x80
  20:	f8c2 3c00 	str.w	r3, [r2, #3072]	; 0xc00
  24:	4770      	bx	lr
  26:	bf00      	nop
  28:	40002000 	.word	0x40002000

0000002c <wwdgt_counter_update>:
  2c:	4a05      	ldr	r2, [pc, #20]	; (44 <wwdgt_counter_update+0x18>)
  2e:	f000 007f 	and.w	r0, r0, #127	; 0x7f
  32:	f8d2 3c00 	ldr.w	r3, [r2, #3072]	; 0xc00
  36:	f023 037f 	bic.w	r3, r3, #127	; 0x7f
  3a:	4318      	orrs	r0, r3
  3c:	f8c2 0c00 	str.w	r0, [r2, #3072]	; 0xc00
  40:	4770      	bx	lr
  42:	bf00      	nop
  44:	40002000 	.word	0x40002000

00000048 <wwdgt_config>:
  48:	b530      	push	{r4, r5, lr}
  4a:	4c0b      	ldr	r4, [pc, #44]	; (78 <wwdgt_config+0x30>)
  4c:	f001 017f 	and.w	r1, r1, #127	; 0x7f
  50:	f8d4 3c04 	ldr.w	r3, [r4, #3076]	; 0xc04
  54:	f8d4 5c00 	ldr.w	r5, [r4, #3072]	; 0xc00
  58:	f423 73ff 	bic.w	r3, r3, #510	; 0x1fe
  5c:	f023 0301 	bic.w	r3, r3, #1
  60:	f025 057f 	bic.w	r5, r5, #127	; 0x7f
  64:	4313      	orrs	r3, r2
  66:	f000 007f 	and.w	r0, r0, #127	; 0x7f
  6a:	4319      	orrs	r1, r3
  6c:	4328      	orrs	r0, r5
  6e:	f8c4 0c00 	str.w	r0, [r4, #3072]	; 0xc00
  72:	f8c4 1c04 	str.w	r1, [r4, #3076]	; 0xc04
  76:	bd30      	pop	{r4, r5, pc}
  78:	40002000 	.word	0x40002000

0000007c <wwdgt_interrupt_enable>:
  7c:	4a03      	ldr	r2, [pc, #12]	; (8c <wwdgt_interrupt_enable+0x10>)
  7e:	f8d2 3c04 	ldr.w	r3, [r2, #3076]	; 0xc04
  82:	f443 7300 	orr.w	r3, r3, #512	; 0x200
  86:	f8c2 3c04 	str.w	r3, [r2, #3076]	; 0xc04
  8a:	4770      	bx	lr
  8c:	40002000 	.word	0x40002000

00000090 <wwdgt_flag_get>:
  90:	4b02      	ldr	r3, [pc, #8]	; (9c <wwdgt_flag_get+0xc>)
  92:	f8d3 0c08 	ldr.w	r0, [r3, #3080]	; 0xc08
  96:	f000 0001 	and.w	r0, r0, #1
  9a:	4770      	bx	lr
  9c:	40002000 	.word	0x40002000

000000a0 <wwdgt_flag_clear>:
  a0:	4a03      	ldr	r2, [pc, #12]	; (b0 <wwdgt_flag_clear+0x10>)
  a2:	f8d2 3c08 	ldr.w	r3, [r2, #3080]	; 0xc08
  a6:	f023 0301 	bic.w	r3, r3, #1
  aa:	f8c2 3c08 	str.w	r3, [r2, #3080]	; 0xc08
  ae:	4770      	bx	lr
  b0:	40002000 	.word	0x40002000

usbh_core.o:     file format elf32-littlearm


Disassembly of section .text:

00000000 <usbh_sof>:
   0:	4a06      	ldr	r2, [pc, #24]	; (1c <usbh_sof+0x1c>)
   2:	b508      	push	{r3, lr}
   4:	6992      	ldr	r2, [r2, #24]
   6:	f8d0 3330 	ldr.w	r3, [r0, #816]	; 0x330
   a:	6892      	ldr	r2, [r2, #8]
   c:	81c2      	strh	r2, [r0, #14]
   e:	b113      	cbz	r3, 16 <usbh_sof+0x16>
  10:	695b      	ldr	r3, [r3, #20]
  12:	b103      	cbz	r3, 16 <usbh_sof+0x16>
  14:	4798      	blx	r3
  16:	2000      	movs	r0, #0
  18:	bd08      	pop	{r3, pc}
  1a:	bf00      	nop
  1c:	00000000 	.word	0x00000000

00000020 <usbh_connect>:
  20:	2201      	movs	r2, #1
  22:	4b02      	ldr	r3, [pc, #8]	; (2c <usbh_connect+0xc>)
  24:	2000      	movs	r0, #0
  26:	f8c3 20cc 	str.w	r2, [r3, #204]	; 0xcc
  2a:	4770      	bx	lr
  2c:	00000000 	.word	0x00000000

00000030 <usbh_disconnect>:
  30:	2000      	movs	r0, #0
  32:	4b02      	ldr	r3, [pc, #8]	; (3c <usbh_disconnect+0xc>)
  34:	f8c3 00cc 	str.w	r0, [r3, #204]	; 0xcc
  38:	4770      	bx	lr
  3a:	bf00      	nop
  3c:	00000000 	.word	0x00000000

00000040 <usbh_port_enabled>:
  40:	2201      	movs	r2, #1
  42:	4b02      	ldr	r3, [pc, #8]	; (4c <usbh_port_enabled+0xc>)
  44:	2000      	movs	r0, #0
  46:	f8c3 20d0 	str.w	r2, [r3, #208]	; 0xd0
  4a:	4770      	bx	lr
  4c:	00000000 	.word	0x00000000

00000050 <usbh_port_disabled>:
  50:	2000      	movs	r0, #0
  52:	4b02      	ldr	r3, [pc, #8]	; (5c <usbh_port_disabled+0xc>)
  54:	f8c3 00d0 	str.w	r0, [r3, #208]	; 0xd0
  58:	4770      	bx	lr
  5a:	bf00      	nop
  5c:	00000000 	.word	0x00000000

00000060 <usbh_class_register>:
  60:	b159      	cbz	r1, 7a <usbh_class_register+0x1a>
  62:	f890 3338 	ldrb.w	r3, [r0, #824]	; 0x338
  66:	2b01      	cmp	r3, #1
  68:	d807      	bhi.n	7a <usbh_class_register+0x1a>
  6a:	1c5a      	adds	r2, r3, #1
  6c:	33ca      	adds	r3, #202	; 0xca
  6e:	f880 2338 	strb.w	r2, [r0, #824]	; 0x338
  72:	f840 1023 	str.w	r1, [r0, r3, lsl #2]
  76:	2000      	movs	r0, #0
  78:	4770      	bx	lr
  7a:	2002      	movs	r0, #2
  7c:	4770      	bx	lr

0000007e <usbh_deinit>:
  7e:	2340      	movs	r3, #64	; 0x40
  80:	b570      	push	{r4, r5, r6, lr}
  82:	7183      	strb	r3, [r0, #6]
  84:	f44f 3300 	mov.w	r3, #131072	; 0x20000
  88:	2500      	movs	r5, #0
  8a:	f8c0 3220 	str.w	r3, [r0, #544]	; 0x220
  8e:	23ff      	movs	r3, #255	; 0xff
  90:	4604      	mov	r4, r0
  92:	4e08      	ldr	r6, [pc, #32]	; (b4 <usbh_deinit+0x36>)
  94:	f8a0 321c 	strh.w	r3, [r0, #540]	; 0x21c
  98:	7901      	ldrb	r1, [r0, #4]
  9a:	8005      	strh	r5, [r0, #0]
  9c:	7085      	strb	r5, [r0, #2]
  9e:	7605      	strb	r5, [r0, #24]
  a0:	4630      	mov	r0, r6
  a2:	f7ff fffe 	bl	0 <usbh_pipe_free>
  a6:	4630      	mov	r0, r6
  a8:	7961      	ldrb	r1, [r4, #5]
  aa:	f7ff fffe 	bl	0 <usbh_pipe_free>
  ae:	4628      	mov	r0, r5
  b0:	bd70      	pop	{r4, r5, r6, pc}
  b2:	bf00      	nop
  b4:	00000000 	.word	0x00000000

000000b8 <usbh_init>:
  b8:	b573      	push	{r0, r1, r4, r5, r6, lr}
  ba:	460c      	mov	r4, r1
  bc:	4605      	mov	r5, r0
  be:	f7ff fffe 	bl	7e <usbh_deinit>
  c2:	2300      	movs	r3, #0
  c4:	f8c5 4334 	str.w	r4, [r5, #820]	; 0x334
  c8:	4c1c      	ldr	r4, [pc, #112]	; (13c <usbh_init+0x84>)
  ca:	262c      	movs	r6, #44	; 0x2c
  cc:	4622      	mov	r2, r4
  ce:	4618      	mov	r0, r3
  d0:	f8c4 30cc 	str.w	r3, [r4, #204]	; 0xcc
  d4:	fb06 4103 	mla	r1, r6, r3, r4
  d8:	f8c1 0134 	str.w	r0, [r1, #308]	; 0x134
  dc:	f881 0138 	strb.w	r0, [r1, #312]	; 0x138
  e0:	f103 0134 	add.w	r1, r3, #52	; 0x34
  e4:	3301      	adds	r3, #1
  e6:	eb04 0181 	add.w	r1, r4, r1, lsl #2
  ea:	2b0f      	cmp	r3, #15
  ec:	6048      	str	r0, [r1, #4]
  ee:	d1f1      	bne.n	d4 <usbh_init+0x1c>
  f0:	2308      	movs	r3, #8
  f2:	6921      	ldr	r1, [r4, #16]
  f4:	f8a4 311c 	strh.w	r3, [r4, #284]	; 0x11c
  f8:	688b      	ldr	r3, [r1, #8]
  fa:	4e11      	ldr	r6, [pc, #68]	; (140 <usbh_init+0x88>)
  fc:	f023 0301 	bic.w	r3, r3, #1
 100:	608b      	str	r3, [r1, #8]
 102:	9600      	str	r6, [sp, #0]
 104:	ca0f      	ldmia	r2, {r0, r1, r2, r3}
 106:	f7ff fffe 	bl	0 <usb_core_init>
 10a:	2101      	movs	r1, #1
 10c:	4630      	mov	r0, r6
 10e:	f7ff fffe 	bl	0 <usb_curmode_set>
 112:	f1a6 0010 	sub.w	r0, r6, #16
 116:	f7ff fffe 	bl	0 <usb_host_init>
 11a:	6922      	ldr	r2, [r4, #16]
 11c:	6893      	ldr	r3, [r2, #8]
 11e:	f043 0301 	orr.w	r3, r3, #1
 122:	6093      	str	r3, [r2, #8]
 124:	f8d5 3334 	ldr.w	r3, [r5, #820]	; 0x334
 128:	f8c4 53a4 	str.w	r5, [r4, #932]	; 0x3a4
 12c:	681b      	ldr	r3, [r3, #0]
 12e:	f8c5 433c 	str.w	r4, [r5, #828]	; 0x33c
 132:	b002      	add	sp, #8
 134:	e8bd 4070 	ldmia.w	sp!, {r4, r5, r6, lr}
 138:	4718      	bx	r3
 13a:	bf00      	nop
 13c:	00000000 	.word	0x00000000
 140:	00000010 	.word	0x00000010

00000144 <usbh_error_handler>:
 144:	1f0b      	subs	r3, r1, #4
 146:	2b01      	cmp	r3, #1
 148:	b510      	push	{r4, lr}
 14a:	4604      	mov	r4, r0
 14c:	d806      	bhi.n	15c <usbh_error_handler+0x18>
 14e:	f8d0 3334 	ldr.w	r3, [r0, #820]	; 0x334
 152:	6c5b      	ldr	r3, [r3, #68]	; 0x44
 154:	4798      	blx	r3
 156:	230c      	movs	r3, #12
 158:	7023      	strb	r3, [r4, #0]
 15a:	bd10      	pop	{r4, pc}
 15c:	2906      	cmp	r1, #6
 15e:	d1fc      	bne.n	15a <usbh_error_handler+0x16>
 160:	e8bd 4010 	ldmia.w	sp!, {r4, lr}
 164:	230c      	movs	r3, #12
 166:	7003      	strb	r3, [r0, #0]
 168:	f8d0 3334 	ldr.w	r3, [r0, #820]	; 0x334
 16c:	681b      	ldr	r3, [r3, #0]
 16e:	4718      	bx	r3

00000170 <usbh_core_task>:
 170:	2302      	movs	r3, #2
 172:	b570      	push	{r4, r5, r6, lr}
 174:	4db3      	ldr	r5, [pc, #716]	; (444 <usbh_core_task+0x2d4>)
 176:	b094      	sub	sp, #80	; 0x50
 178:	f88d 300f 	strb.w	r3, [sp, #15]
 17c:	f8d5 20cc 	ldr.w	r2, [r5, #204]	; 0xcc
 180:	4604      	mov	r4, r0
 182:	7803      	ldrb	r3, [r0, #0]
 184:	b112      	cbz	r2, 18c <usbh_core_task+0x1c>
 186:	f8d5 20d0 	ldr.w	r2, [r5, #208]	; 0xd0
 18a:	b9d2      	cbnz	r2, 1c2 <usbh_core_task+0x52>
 18c:	2b00      	cmp	r3, #0
 18e:	d039      	beq.n	204 <usbh_core_task+0x94>
 190:	2b03      	cmp	r3, #3
 192:	d001      	beq.n	198 <usbh_core_task+0x28>
 194:	2303      	movs	r3, #3
 196:	7023      	strb	r3, [r4, #0]
 198:	f8d4 3334 	ldr.w	r3, [r4, #820]	; 0x334
 19c:	691b      	ldr	r3, [r3, #16]
 19e:	4798      	blx	r3
 1a0:	4620      	mov	r0, r4
 1a2:	f7ff fffe 	bl	7e <usbh_deinit>
 1a6:	f8d4 3334 	ldr.w	r3, [r4, #820]	; 0x334
 1aa:	685b      	ldr	r3, [r3, #4]
 1ac:	4798      	blx	r3
 1ae:	f8d4 3330 	ldr.w	r3, [r4, #816]	; 0x330
 1b2:	4620      	mov	r0, r4
 1b4:	689b      	ldr	r3, [r3, #8]
 1b6:	4798      	blx	r3
 1b8:	48a2      	ldr	r0, [pc, #648]	; (444 <usbh_core_task+0x2d4>)
 1ba:	f7ff fffe 	bl	0 <usbh_pipe_delete>
 1be:	2300      	movs	r3, #0
 1c0:	e06d      	b.n	29e <usbh_core_task+0x12e>
 1c2:	2b0c      	cmp	r3, #12
 1c4:	f200 80fc 	bhi.w	3c0 <usbh_core_task+0x250>
 1c8:	a201      	add	r2, pc, #4	; (adr r2, 1d0 <usbh_core_task+0x60>)
 1ca:	f852 f023 	ldr.w	pc, [r2, r3, lsl #2]
 1ce:	bf00      	nop
 1d0:	00000205 	.word	0x00000205
 1d4:	0000022d 	.word	0x0000022d
 1d8:	0000025d 	.word	0x0000025d
 1dc:	00000199 	.word	0x00000199
 1e0:	000002a3 	.word	0x000002a3
 1e4:	0000042d 	.word	0x0000042d
 1e8:	00000449 	.word	0x00000449
 1ec:	000004cd 	.word	0x000004cd
 1f0:	000004e3 	.word	0x000004e3
 1f4:	000004ad 	.word	0x000004ad
 1f8:	000003c1 	.word	0x000003c1
 1fc:	000003c1 	.word	0x000003c1
 200:	000004ff 	.word	0x000004ff
 204:	f8d5 30cc 	ldr.w	r3, [r5, #204]	; 0xcc
 208:	2b00      	cmp	r3, #0
 20a:	f000 80d9 	beq.w	3c0 <usbh_core_task+0x250>
 20e:	2301      	movs	r3, #1
 210:	2064      	movs	r0, #100	; 0x64
 212:	7023      	strb	r3, [r4, #0]
 214:	f7ff fffe 	bl	0 <usb_mdelay>
 218:	488a      	ldr	r0, [pc, #552]	; (444 <usbh_core_task+0x2d4>)
 21a:	f7ff fffe 	bl	0 <usb_port_reset>
 21e:	f8d4 3334 	ldr.w	r3, [r4, #820]	; 0x334
 222:	68db      	ldr	r3, [r3, #12]
 224:	b014      	add	sp, #80	; 0x50
 226:	e8bd 4070 	ldmia.w	sp!, {r4, r5, r6, lr}
 22a:	4718      	bx	r3
 22c:	f8d5 30d0 	ldr.w	r3, [r5, #208]	; 0xd0
 230:	2b00      	cmp	r3, #0
 232:	f000 80c5 	beq.w	3c0 <usbh_core_task+0x250>
 236:	2302      	movs	r3, #2
 238:	7003      	strb	r3, [r0, #0]
 23a:	f8d5 3088 	ldr.w	r3, [r5, #136]	; 0x88
 23e:	6818      	ldr	r0, [r3, #0]
 240:	f8d4 3334 	ldr.w	r3, [r4, #820]	; 0x334
 244:	f400 20c0 	and.w	r0, r0, #393216	; 0x60000
 248:	f8c4 0220 	str.w	r0, [r4, #544]	; 0x220
 24c:	699b      	ldr	r3, [r3, #24]
 24e:	4798      	blx	r3
 250:	2032      	movs	r0, #50	; 0x32
 252:	b014      	add	sp, #80	; 0x50
 254:	e8bd 4070 	ldmia.w	sp!, {r4, r5, r6, lr}
 258:	f7ff bffe 	b.w	0 <usb_mdelay>
 25c:	f8d0 3334 	ldr.w	r3, [r0, #820]	; 0x334
 260:	f104 051c 	add.w	r5, r4, #28
 264:	689b      	ldr	r3, [r3, #8]
 266:	4798      	blx	r3
 268:	2100      	movs	r1, #0
 26a:	4876      	ldr	r0, [pc, #472]	; (444 <usbh_core_task+0x2d4>)
 26c:	f7ff fffe 	bl	0 <usbh_pipe_allocate>
 270:	2180      	movs	r1, #128	; 0x80
 272:	7160      	strb	r0, [r4, #5]
 274:	4873      	ldr	r0, [pc, #460]	; (444 <usbh_core_task+0x2d4>)
 276:	f7ff fffe 	bl	0 <usbh_pipe_allocate>
 27a:	79a3      	ldrb	r3, [r4, #6]
 27c:	4602      	mov	r2, r0
 27e:	7120      	strb	r0, [r4, #4]
 280:	4629      	mov	r1, r5
 282:	9300      	str	r3, [sp, #0]
 284:	486f      	ldr	r0, [pc, #444]	; (444 <usbh_core_task+0x2d4>)
 286:	2300      	movs	r3, #0
 288:	f7ff fffe 	bl	0 <usbh_pipe_create>
 28c:	79a3      	ldrb	r3, [r4, #6]
 28e:	4629      	mov	r1, r5
 290:	9300      	str	r3, [sp, #0]
 292:	7962      	ldrb	r2, [r4, #5]
 294:	2300      	movs	r3, #0
 296:	486b      	ldr	r0, [pc, #428]	; (444 <usbh_core_task+0x2d4>)
 298:	f7ff fffe 	bl	0 <usbh_pipe_create>
 29c:	2304      	movs	r3, #4
 29e:	7023      	strb	r3, [r4, #0]
 2a0:	e08e      	b.n	3c0 <usbh_core_task+0x250>
 2a2:	7883      	ldrb	r3, [r0, #2]
 2a4:	2b07      	cmp	r3, #7
 2a6:	f200 808b 	bhi.w	3c0 <usbh_core_task+0x250>
 2aa:	e8df f003 	tbb	[pc, r3]
 2ae:	250a      	.short	0x250a
 2b0:	7766603e 	.word	0x7766603e
 2b4:	04b7      	.short	0x04b7
 2b6:	f8d0 3334 	ldr.w	r3, [r0, #820]	; 0x334
 2ba:	6b5b      	ldr	r3, [r3, #52]	; 0x34
 2bc:	4798      	blx	r3
 2be:	2305      	movs	r3, #5
 2c0:	e7ed      	b.n	29e <usbh_core_task+0x12e>
 2c2:	2108      	movs	r1, #8
 2c4:	f7ff fffe 	bl	0 <usbh_devdesc_get>
 2c8:	4605      	mov	r5, r0
 2ca:	2800      	cmp	r0, #0
 2cc:	d178      	bne.n	3c0 <usbh_core_task+0x250>
 2ce:	f894 322b 	ldrb.w	r3, [r4, #555]	; 0x22b
 2d2:	4602      	mov	r2, r0
 2d4:	71a3      	strb	r3, [r4, #6]
 2d6:	9300      	str	r3, [sp, #0]
 2d8:	7961      	ldrb	r1, [r4, #5]
 2da:	4603      	mov	r3, r0
 2dc:	4859      	ldr	r0, [pc, #356]	; (444 <usbh_core_task+0x2d4>)
 2de:	f7ff fffe 	bl	0 <usbh_pipe_update>
 2e2:	79a3      	ldrb	r3, [r4, #6]
 2e4:	462a      	mov	r2, r5
 2e6:	9300      	str	r3, [sp, #0]
 2e8:	7921      	ldrb	r1, [r4, #4]
 2ea:	462b      	mov	r3, r5
 2ec:	4855      	ldr	r0, [pc, #340]	; (444 <usbh_core_task+0x2d4>)
 2ee:	f7ff fffe 	bl	0 <usbh_pipe_update>
 2f2:	2301      	movs	r3, #1
 2f4:	70a3      	strb	r3, [r4, #2]
 2f6:	e063      	b.n	3c0 <usbh_core_task+0x250>
 2f8:	2112      	movs	r1, #18
 2fa:	f7ff fffe 	bl	0 <usbh_devdesc_get>
 2fe:	2800      	cmp	r0, #0
 300:	d15e      	bne.n	3c0 <usbh_core_task+0x250>
 302:	f8d4 3334 	ldr.w	r3, [r4, #820]	; 0x334
 306:	f504 7009 	add.w	r0, r4, #548	; 0x224
 30a:	69db      	ldr	r3, [r3, #28]
 30c:	4798      	blx	r3
 30e:	f894 3232 	ldrb.w	r3, [r4, #562]	; 0x232
 312:	f885 33a8 	strb.w	r3, [r5, #936]	; 0x3a8
 316:	f894 3233 	ldrb.w	r3, [r4, #563]	; 0x233
 31a:	f885 33a9 	strb.w	r3, [r5, #937]	; 0x3a9
 31e:	f894 3234 	ldrb.w	r3, [r4, #564]	; 0x234
 322:	f885 33aa 	strb.w	r3, [r5, #938]	; 0x3aa
 326:	2302      	movs	r3, #2
 328:	e7e4      	b.n	2f4 <usbh_core_task+0x184>
 32a:	2101      	movs	r1, #1
 32c:	f7ff fffe 	bl	0 <usbh_setaddress>
 330:	4605      	mov	r5, r0
 332:	2800      	cmp	r0, #0
 334:	d144      	bne.n	3c0 <usbh_core_task+0x250>
 336:	2002      	movs	r0, #2
 338:	f7ff fffe 	bl	0 <usb_mdelay>
 33c:	2301      	movs	r3, #1
 33e:	f884 321d 	strb.w	r3, [r4, #541]	; 0x21d
 342:	f8d4 3334 	ldr.w	r3, [r4, #820]	; 0x334
 346:	6a1b      	ldr	r3, [r3, #32]
 348:	4798      	blx	r3
 34a:	9500      	str	r5, [sp, #0]
 34c:	462b      	mov	r3, r5
 34e:	f894 221d 	ldrb.w	r2, [r4, #541]	; 0x21d
 352:	7921      	ldrb	r1, [r4, #4]
 354:	483b      	ldr	r0, [pc, #236]	; (444 <usbh_core_task+0x2d4>)
 356:	f7ff fffe 	bl	0 <usbh_pipe_update>
 35a:	9500      	str	r5, [sp, #0]
 35c:	462b      	mov	r3, r5
 35e:	f894 221d 	ldrb.w	r2, [r4, #541]	; 0x21d
 362:	7961      	ldrb	r1, [r4, #5]
 364:	4837      	ldr	r0, [pc, #220]	; (444 <usbh_core_task+0x2d4>)
 366:	f7ff fffe 	bl	0 <usbh_pipe_update>
 36a:	2303      	movs	r3, #3
 36c:	e7c2      	b.n	2f4 <usbh_core_task+0x184>
 36e:	2109      	movs	r1, #9
 370:	f7ff fffe 	bl	0 <usbh_cfgdesc_get>
 374:	bb20      	cbnz	r0, 3c0 <usbh_core_task+0x250>
 376:	2304      	movs	r3, #4
 378:	e7bc      	b.n	2f4 <usbh_core_task+0x184>
 37a:	f8b0 1238 	ldrh.w	r1, [r0, #568]	; 0x238
 37e:	f7ff fffe 	bl	0 <usbh_cfgdesc_get>
 382:	b9e8      	cbnz	r0, 3c0 <usbh_core_task+0x250>
 384:	f8d4 3334 	ldr.w	r3, [r4, #820]	; 0x334
 388:	f504 7212 	add.w	r2, r4, #584	; 0x248
 38c:	6a5b      	ldr	r3, [r3, #36]	; 0x24
 38e:	f204 213f 	addw	r1, r4, #575	; 0x23f
 392:	f204 2036 	addw	r0, r4, #566	; 0x236
 396:	4798      	blx	r3
 398:	2305      	movs	r3, #5
 39a:	e7ab      	b.n	2f4 <usbh_core_task+0x184>
 39c:	f895 33a8 	ldrb.w	r3, [r5, #936]	; 0x3a8
 3a0:	b183      	cbz	r3, 3c4 <usbh_core_task+0x254>
 3a2:	23ff      	movs	r3, #255	; 0xff
 3a4:	f890 1232 	ldrb.w	r1, [r0, #562]	; 0x232
 3a8:	aa04      	add	r2, sp, #16
 3aa:	f7ff fffe 	bl	0 <usbh_strdesc_get>
 3ae:	4606      	mov	r6, r0
 3b0:	b930      	cbnz	r0, 3c0 <usbh_core_task+0x250>
 3b2:	f8d4 3334 	ldr.w	r3, [r4, #820]	; 0x334
 3b6:	a804      	add	r0, sp, #16
 3b8:	6a9b      	ldr	r3, [r3, #40]	; 0x28
 3ba:	4798      	blx	r3
 3bc:	f885 63a8 	strb.w	r6, [r5, #936]	; 0x3a8
 3c0:	b014      	add	sp, #80	; 0x50
 3c2:	bd70      	pop	{r4, r5, r6, pc}
 3c4:	f895 33a9 	ldrb.w	r3, [r5, #937]	; 0x3a9
 3c8:	b183      	cbz	r3, 3ec <usbh_core_task+0x27c>
 3ca:	23ff      	movs	r3, #255	; 0xff
 3cc:	f890 1233 	ldrb.w	r1, [r0, #563]	; 0x233
 3d0:	aa04      	add	r2, sp, #16
 3d2:	f7ff fffe 	bl	0 <usbh_strdesc_get>
 3d6:	4606      	mov	r6, r0
 3d8:	2800      	cmp	r0, #0
 3da:	d1f1      	bne.n	3c0 <usbh_core_task+0x250>
 3dc:	f8d4 3334 	ldr.w	r3, [r4, #820]	; 0x334
 3e0:	a804      	add	r0, sp, #16
 3e2:	6adb      	ldr	r3, [r3, #44]	; 0x2c
 3e4:	4798      	blx	r3
 3e6:	f885 63a9 	strb.w	r6, [r5, #937]	; 0x3a9
 3ea:	e7e9      	b.n	3c0 <usbh_core_task+0x250>
 3ec:	f895 33aa 	ldrb.w	r3, [r5, #938]	; 0x3aa
 3f0:	b193      	cbz	r3, 418 <usbh_core_task+0x2a8>
 3f2:	23ff      	movs	r3, #255	; 0xff
 3f4:	f890 1234 	ldrb.w	r1, [r0, #564]	; 0x234
 3f8:	aa04      	add	r2, sp, #16
 3fa:	f7ff fffe 	bl	0 <usbh_strdesc_get>
 3fe:	4606      	mov	r6, r0
 400:	2800      	cmp	r0, #0
 402:	d1dd      	bne.n	3c0 <usbh_core_task+0x250>
 404:	f8d4 3334 	ldr.w	r3, [r4, #820]	; 0x334
 408:	a804      	add	r0, sp, #16
 40a:	6b1b      	ldr	r3, [r3, #48]	; 0x30
 40c:	4798      	blx	r3
 40e:	2306      	movs	r3, #6
 410:	f885 63aa 	strb.w	r6, [r5, #938]	; 0x3aa
 414:	70a3      	strb	r3, [r4, #2]
 416:	e7d3      	b.n	3c0 <usbh_core_task+0x250>
 418:	2306      	movs	r3, #6
 41a:	e76b      	b.n	2f4 <usbh_core_task+0x184>
 41c:	f890 123b 	ldrb.w	r1, [r0, #571]	; 0x23b
 420:	f7ff fffe 	bl	0 <usbh_setcfg>
 424:	2800      	cmp	r0, #0
 426:	d1cb      	bne.n	3c0 <usbh_core_task+0x250>
 428:	2307      	movs	r3, #7
 42a:	e763      	b.n	2f4 <usbh_core_task+0x184>
 42c:	f890 323d 	ldrb.w	r3, [r0, #573]	; 0x23d
 430:	069b      	lsls	r3, r3, #26
 432:	d505      	bpl.n	440 <usbh_core_task+0x2d0>
 434:	2200      	movs	r2, #0
 436:	2101      	movs	r1, #1
 438:	f7ff fffe 	bl	0 <usbh_setdevfeature>
 43c:	2800      	cmp	r0, #0
 43e:	d1bf      	bne.n	3c0 <usbh_core_task+0x250>
 440:	2306      	movs	r3, #6
 442:	e72c      	b.n	29e <usbh_core_task+0x12e>
 444:	00000000 	.word	0x00000000
 448:	f890 3338 	ldrb.w	r3, [r0, #824]	; 0x338
 44c:	b90b      	cbnz	r3, 452 <usbh_core_task+0x2e2>
 44e:	230c      	movs	r3, #12
 450:	e725      	b.n	29e <usbh_core_task+0x12e>
 452:	2200      	movs	r2, #0
 454:	f890 1244 	ldrb.w	r1, [r0, #580]	; 0x244
 458:	f8c0 2330 	str.w	r2, [r0, #816]	; 0x330
 45c:	f8d0 0328 	ldr.w	r0, [r0, #808]	; 0x328
 460:	7802      	ldrb	r2, [r0, #0]
 462:	428a      	cmp	r2, r1
 464:	d105      	bne.n	472 <usbh_core_task+0x302>
 466:	2b01      	cmp	r3, #1
 468:	f8c4 0330 	str.w	r0, [r4, #816]	; 0x330
 46c:	d116      	bne.n	49c <usbh_core_task+0x32c>
 46e:	2309      	movs	r3, #9
 470:	e715      	b.n	29e <usbh_core_task+0x12e>
 472:	29ff      	cmp	r1, #255	; 0xff
 474:	d10a      	bne.n	48c <usbh_core_task+0x31c>
 476:	2b01      	cmp	r3, #1
 478:	f8c4 0330 	str.w	r0, [r4, #816]	; 0x330
 47c:	d0f7      	beq.n	46e <usbh_core_task+0x2fe>
 47e:	f8d4 332c 	ldr.w	r3, [r4, #812]	; 0x32c
 482:	f8c4 3330 	str.w	r3, [r4, #816]	; 0x330
 486:	2b00      	cmp	r3, #0
 488:	d1f1      	bne.n	46e <usbh_core_task+0x2fe>
 48a:	e7e0      	b.n	44e <usbh_core_task+0x2de>
 48c:	2b01      	cmp	r3, #1
 48e:	d0de      	beq.n	44e <usbh_core_task+0x2de>
 490:	f8d4 332c 	ldr.w	r3, [r4, #812]	; 0x32c
 494:	781a      	ldrb	r2, [r3, #0]
 496:	428a      	cmp	r2, r1
 498:	d1d9      	bne.n	44e <usbh_core_task+0x2de>
 49a:	e7f2      	b.n	482 <usbh_core_task+0x312>
 49c:	f8d4 332c 	ldr.w	r3, [r4, #812]	; 0x32c
 4a0:	7819      	ldrb	r1, [r3, #0]
 4a2:	4291      	cmp	r1, r2
 4a4:	d0ed      	beq.n	482 <usbh_core_task+0x312>
 4a6:	2aff      	cmp	r2, #255	; 0xff
 4a8:	d1e1      	bne.n	46e <usbh_core_task+0x2fe>
 4aa:	e7ea      	b.n	482 <usbh_core_task+0x312>
 4ac:	f8d0 3334 	ldr.w	r3, [r0, #820]	; 0x334
 4b0:	6b9b      	ldr	r3, [r3, #56]	; 0x38
 4b2:	4798      	blx	r3
 4b4:	2801      	cmp	r0, #1
 4b6:	d183      	bne.n	3c0 <usbh_core_task+0x250>
 4b8:	f8d4 3330 	ldr.w	r3, [r4, #816]	; 0x330
 4bc:	4620      	mov	r0, r4
 4be:	685b      	ldr	r3, [r3, #4]
 4c0:	4798      	blx	r3
 4c2:	2800      	cmp	r0, #0
 4c4:	f47f af7c 	bne.w	3c0 <usbh_core_task+0x250>
 4c8:	2307      	movs	r3, #7
 4ca:	e6e8      	b.n	29e <usbh_core_task+0x12e>
 4cc:	f8d0 3330 	ldr.w	r3, [r0, #816]	; 0x330
 4d0:	68db      	ldr	r3, [r3, #12]
 4d2:	4798      	blx	r3
 4d4:	f88d 000f 	strb.w	r0, [sp, #15]
 4d8:	f89d 300f 	ldrb.w	r3, [sp, #15]
 4dc:	b93b      	cbnz	r3, 4ee <usbh_core_task+0x37e>
 4de:	2308      	movs	r3, #8
 4e0:	e6dd      	b.n	29e <usbh_core_task+0x12e>
 4e2:	f8d0 3330 	ldr.w	r3, [r0, #816]	; 0x330
 4e6:	691b      	ldr	r3, [r3, #16]
 4e8:	4798      	blx	r3
 4ea:	f88d 000f 	strb.w	r0, [sp, #15]
 4ee:	4620      	mov	r0, r4
 4f0:	f89d 100f 	ldrb.w	r1, [sp, #15]
 4f4:	b014      	add	sp, #80	; 0x50
 4f6:	e8bd 4070 	ldmia.w	sp!, {r4, r5, r6, lr}
 4fa:	f7ff bffe 	b.w	144 <usbh_error_handler>
 4fe:	f7ff fffe 	bl	7e <usbh_deinit>
 502:	f8d4 3334 	ldr.w	r3, [r4, #820]	; 0x334
 506:	685b      	ldr	r3, [r3, #4]
 508:	4798      	blx	r3
 50a:	4620      	mov	r0, r4
 50c:	f8d4 3330 	ldr.w	r3, [r4, #816]	; 0x330
 510:	689b      	ldr	r3, [r3, #8]
 512:	b014      	add	sp, #80	; 0x50
 514:	e8bd 4070 	ldmia.w	sp!, {r4, r5, r6, lr}
 518:	4718      	bx	r3
 51a:	bf00      	nop

usbh_enum.o:     file format elf32-littlearm


Disassembly of section .text:

00000000 <usbh_ctlstate_config>:
   0:	2301      	movs	r3, #1
   2:	6081      	str	r1, [r0, #8]
   4:	8182      	strh	r2, [r0, #12]
   6:	7603      	strb	r3, [r0, #24]
   8:	4770      	bx	lr

0000000a <usbh_devdesc_get>:
   a:	e92d 4ff7 	stmdb	sp!, {r0, r1, r2, r4, r5, r6, r7, r8, r9, sl, fp, lr}
   e:	7e03      	ldrb	r3, [r0, #24]
  10:	4604      	mov	r4, r0
  12:	460d      	mov	r5, r1
  14:	b94b      	cbnz	r3, 2a <usbh_devdesc_get+0x20>
  16:	8283      	strh	r3, [r0, #20]
  18:	f100 031c 	add.w	r3, r0, #28
  1c:	6083      	str	r3, [r0, #8]
  1e:	2301      	movs	r3, #1
  20:	4a26      	ldr	r2, [pc, #152]	; (bc <usbh_devdesc_get+0xb2>)
  22:	82c1      	strh	r1, [r0, #22]
  24:	6102      	str	r2, [r0, #16]
  26:	8181      	strh	r1, [r0, #12]
  28:	7603      	strb	r3, [r0, #24]
  2a:	4620      	mov	r0, r4
  2c:	f7ff fffe 	bl	0 <usbh_ctl_handler>
  30:	4601      	mov	r1, r0
  32:	2800      	cmp	r0, #0
  34:	d13e      	bne.n	b4 <usbh_devdesc_get+0xaa>
  36:	7f23      	ldrb	r3, [r4, #28]
  38:	9000      	str	r0, [sp, #0]
  3a:	2212      	movs	r2, #18
  3c:	f504 7009 	add.w	r0, r4, #548	; 0x224
  40:	f894 b01d 	ldrb.w	fp, [r4, #29]
  44:	f8b4 a01e 	ldrh.w	sl, [r4, #30]
  48:	f894 9020 	ldrb.w	r9, [r4, #32]
  4c:	f894 8021 	ldrb.w	r8, [r4, #33]	; 0x21
  50:	f894 7022 	ldrb.w	r7, [r4, #34]	; 0x22
  54:	f894 6023 	ldrb.w	r6, [r4, #35]	; 0x23
  58:	9301      	str	r3, [sp, #4]
  5a:	f7ff fffe 	bl	0 <memset>
  5e:	9b01      	ldr	r3, [sp, #4]
  60:	2d08      	cmp	r5, #8
  62:	9900      	ldr	r1, [sp, #0]
  64:	f884 3224 	strb.w	r3, [r4, #548]	; 0x224
  68:	f884 b225 	strb.w	fp, [r4, #549]	; 0x225
  6c:	f8a4 a226 	strh.w	sl, [r4, #550]	; 0x226
  70:	f884 9228 	strb.w	r9, [r4, #552]	; 0x228
  74:	f884 8229 	strb.w	r8, [r4, #553]	; 0x229
  78:	f884 722a 	strb.w	r7, [r4, #554]	; 0x22a
  7c:	f884 622b 	strb.w	r6, [r4, #555]	; 0x22b
  80:	d918      	bls.n	b4 <usbh_devdesc_get+0xaa>
  82:	8ca3      	ldrh	r3, [r4, #36]	; 0x24
  84:	f8a4 322c 	strh.w	r3, [r4, #556]	; 0x22c
  88:	8ce3      	ldrh	r3, [r4, #38]	; 0x26
  8a:	f8a4 322e 	strh.w	r3, [r4, #558]	; 0x22e
  8e:	8d23      	ldrh	r3, [r4, #40]	; 0x28
  90:	f8a4 3230 	strh.w	r3, [r4, #560]	; 0x230
  94:	f894 302a 	ldrb.w	r3, [r4, #42]	; 0x2a
  98:	f884 3232 	strb.w	r3, [r4, #562]	; 0x232
  9c:	f894 302b 	ldrb.w	r3, [r4, #43]	; 0x2b
  a0:	f884 3233 	strb.w	r3, [r4, #563]	; 0x233
  a4:	f894 302c 	ldrb.w	r3, [r4, #44]	; 0x2c
  a8:	f884 3234 	strb.w	r3, [r4, #564]	; 0x234
  ac:	f894 302d 	ldrb.w	r3, [r4, #45]	; 0x2d
  b0:	f884 3235 	strb.w	r3, [r4, #565]	; 0x235
  b4:	4608      	mov	r0, r1
  b6:	b003      	add	sp, #12
  b8:	e8bd 8ff0 	ldmia.w	sp!, {r4, r5, r6, r7, r8, r9, sl, fp, pc}
  bc:	01000680 	.word	0x01000680

000000c0 <usbh_cfgdesc_get>:
  c0:	e92d 4ff0 	stmdb	sp!, {r4, r5, r6, r7, r8, r9, sl, fp, lr}
  c4:	7e03      	ldrb	r3, [r0, #24]
  c6:	4604      	mov	r4, r0
  c8:	460e      	mov	r6, r1
  ca:	b087      	sub	sp, #28
  cc:	f100 051c 	add.w	r5, r0, #28
  d0:	b93b      	cbnz	r3, e2 <usbh_cfgdesc_get+0x22>
  d2:	8283      	strh	r3, [r0, #20]
  d4:	2301      	movs	r3, #1
  d6:	4a5c      	ldr	r2, [pc, #368]	; (248 <usbh_cfgdesc_get+0x188>)
  d8:	82c1      	strh	r1, [r0, #22]
  da:	6102      	str	r2, [r0, #16]
  dc:	6085      	str	r5, [r0, #8]
  de:	8181      	strh	r1, [r0, #12]
  e0:	7603      	strb	r3, [r0, #24]
  e2:	4620      	mov	r0, r4
  e4:	f7ff fffe 	bl	0 <usbh_ctl_handler>
  e8:	9001      	str	r0, [sp, #4]
  ea:	bb10      	cbnz	r0, 132 <usbh_cfgdesc_get+0x72>
  ec:	8be3      	ldrh	r3, [r4, #30]
  ee:	f894 801c 	ldrb.w	r8, [r4, #28]
  f2:	f894 e01d 	ldrb.w	lr, [r4, #29]
  f6:	2e09      	cmp	r6, #9
  f8:	9302      	str	r3, [sp, #8]
  fa:	f894 c021 	ldrb.w	ip, [r4, #33]	; 0x21
  fe:	f894 3020 	ldrb.w	r3, [r4, #32]
 102:	f894 7022 	ldrb.w	r7, [r4, #34]	; 0x22
 106:	f894 1023 	ldrb.w	r1, [r4, #35]	; 0x23
 10a:	f894 2024 	ldrb.w	r2, [r4, #36]	; 0x24
 10e:	f884 8236 	strb.w	r8, [r4, #566]	; 0x236
 112:	f884 e237 	strb.w	lr, [r4, #567]	; 0x237
 116:	d810      	bhi.n	13a <usbh_cfgdesc_get+0x7a>
 118:	9d02      	ldr	r5, [sp, #8]
 11a:	f884 323a 	strb.w	r3, [r4, #570]	; 0x23a
 11e:	f8a4 5238 	strh.w	r5, [r4, #568]	; 0x238
 122:	f884 c23b 	strb.w	ip, [r4, #571]	; 0x23b
 126:	f884 723c 	strb.w	r7, [r4, #572]	; 0x23c
 12a:	f884 123d 	strb.w	r1, [r4, #573]	; 0x23d
 12e:	f884 223e 	strb.w	r2, [r4, #574]	; 0x23e
 132:	9801      	ldr	r0, [sp, #4]
 134:	b007      	add	sp, #28
 136:	e8bd 8ff0 	ldmia.w	sp!, {r4, r5, r6, r7, r8, r9, sl, fp, pc}
 13a:	9e02      	ldr	r6, [sp, #8]
 13c:	2b02      	cmp	r3, #2
 13e:	f8a4 6238 	strh.w	r6, [r4, #568]	; 0x238
 142:	f884 323a 	strb.w	r3, [r4, #570]	; 0x23a
 146:	f884 c23b 	strb.w	ip, [r4, #571]	; 0x23b
 14a:	f884 723c 	strb.w	r7, [r4, #572]	; 0x23c
 14e:	f884 123d 	strb.w	r1, [r4, #573]	; 0x23d
 152:	f884 223e 	strb.w	r2, [r4, #574]	; 0x23e
 156:	d8ec      	bhi.n	132 <usbh_cfgdesc_get+0x72>
 158:	9b01      	ldr	r3, [sp, #4]
 15a:	2209      	movs	r2, #9
 15c:	4619      	mov	r1, r3
 15e:	9802      	ldr	r0, [sp, #8]
 160:	4282      	cmp	r2, r0
 162:	d2e6      	bcs.n	132 <usbh_cfgdesc_get+0x72>
 164:	782e      	ldrb	r6, [r5, #0]
 166:	4435      	add	r5, r6
 168:	4432      	add	r2, r6
 16a:	786e      	ldrb	r6, [r5, #1]
 16c:	b292      	uxth	r2, r2
 16e:	2e04      	cmp	r6, #4
 170:	d167      	bne.n	242 <usbh_cfgdesc_get+0x182>
 172:	78ae      	ldrb	r6, [r5, #2]
 174:	f895 c003 	ldrb.w	ip, [r5, #3]
 178:	429e      	cmp	r6, r3
 17a:	bf18      	it	ne
 17c:	2100      	movne	r1, #0
 17e:	1c4f      	adds	r7, r1, #1
 180:	b2ff      	uxtb	r7, r7
 182:	f1bc 0f02 	cmp.w	ip, #2
 186:	9703      	str	r7, [sp, #12]
 188:	d85c      	bhi.n	244 <usbh_cfgdesc_get+0x184>
 18a:	792f      	ldrb	r7, [r5, #4]
 18c:	f895 b000 	ldrb.w	fp, [r5]
 190:	2f07      	cmp	r7, #7
 192:	f895 a005 	ldrb.w	sl, [r5, #5]
 196:	f895 9006 	ldrb.w	r9, [r5, #6]
 19a:	f895 8007 	ldrb.w	r8, [r5, #7]
 19e:	f895 e008 	ldrb.w	lr, [r5, #8]
 1a2:	d8c6      	bhi.n	132 <usbh_cfgdesc_get+0x72>
 1a4:	2374      	movs	r3, #116	; 0x74
 1a6:	203a      	movs	r0, #58	; 0x3a
 1a8:	4373      	muls	r3, r6
 1aa:	fb00 3301 	mla	r3, r0, r1, r3
 1ae:	f04f 0004 	mov.w	r0, #4
 1b2:	4423      	add	r3, r4
 1b4:	f883 b23f 	strb.w	fp, [r3, #575]	; 0x23f
 1b8:	f883 0240 	strb.w	r0, [r3, #576]	; 0x240
 1bc:	f883 6241 	strb.w	r6, [r3, #577]	; 0x241
 1c0:	f883 c242 	strb.w	ip, [r3, #578]	; 0x242
 1c4:	f883 7243 	strb.w	r7, [r3, #579]	; 0x243
 1c8:	f883 a244 	strb.w	sl, [r3, #580]	; 0x244
 1cc:	f883 9245 	strb.w	r9, [r3, #581]	; 0x245
 1d0:	f883 8246 	strb.w	r8, [r3, #582]	; 0x246
 1d4:	f883 e247 	strb.w	lr, [r3, #583]	; 0x247
 1d8:	b38f      	cbz	r7, 23e <usbh_cfgdesc_get+0x17e>
 1da:	2374      	movs	r3, #116	; 0x74
 1dc:	4373      	muls	r3, r6
 1de:	9304      	str	r3, [sp, #16]
 1e0:	233a      	movs	r3, #58	; 0x3a
 1e2:	f04f 0c00 	mov.w	ip, #0
 1e6:	434b      	muls	r3, r1
 1e8:	9305      	str	r3, [sp, #20]
 1ea:	782b      	ldrb	r3, [r5, #0]
 1ec:	441d      	add	r5, r3
 1ee:	7869      	ldrb	r1, [r5, #1]
 1f0:	441a      	add	r2, r3
 1f2:	2905      	cmp	r1, #5
 1f4:	b292      	uxth	r2, r2
 1f6:	d120      	bne.n	23a <usbh_cfgdesc_get+0x17a>
 1f8:	9804      	ldr	r0, [sp, #16]
 1fa:	ebcc 03cc 	rsb	r3, ip, ip, lsl #3
 1fe:	4403      	add	r3, r0
 200:	9805      	ldr	r0, [sp, #20]
 202:	f895 b000 	ldrb.w	fp, [r5]
 206:	f895 a002 	ldrb.w	sl, [r5, #2]
 20a:	f895 9003 	ldrb.w	r9, [r5, #3]
 20e:	f8b5 8004 	ldrh.w	r8, [r5, #4]
 212:	f895 e006 	ldrb.w	lr, [r5, #6]
 216:	4403      	add	r3, r0
 218:	4423      	add	r3, r4
 21a:	f10c 0c01 	add.w	ip, ip, #1
 21e:	f883 b248 	strb.w	fp, [r3, #584]	; 0x248
 222:	f883 1249 	strb.w	r1, [r3, #585]	; 0x249
 226:	f883 a24a 	strb.w	sl, [r3, #586]	; 0x24a
 22a:	f883 924b 	strb.w	r9, [r3, #587]	; 0x24b
 22e:	f8a3 824c 	strh.w	r8, [r3, #588]	; 0x24c
 232:	f883 e24e 	strb.w	lr, [r3, #590]	; 0x24e
 236:	fa5f fc8c 	uxtb.w	ip, ip
 23a:	4567      	cmp	r7, ip
 23c:	d8d5      	bhi.n	1ea <usbh_cfgdesc_get+0x12a>
 23e:	4633      	mov	r3, r6
 240:	e000      	b.n	244 <usbh_cfgdesc_get+0x184>
 242:	9103      	str	r1, [sp, #12]
 244:	9903      	ldr	r1, [sp, #12]
 246:	e78a      	b.n	15e <usbh_cfgdesc_get+0x9e>
 248:	02000680 	.word	0x02000680

0000024c <usbh_strdesc_get>:
 24c:	b570      	push	{r4, r5, r6, lr}
 24e:	461e      	mov	r6, r3
 250:	7e03      	ldrb	r3, [r0, #24]
 252:	4604      	mov	r4, r0
 254:	4615      	mov	r5, r2
 256:	b97b      	cbnz	r3, 278 <usbh_strdesc_get+0x2c>
 258:	f44f 63d0 	mov.w	r3, #1664	; 0x680
 25c:	8203      	strh	r3, [r0, #16]
 25e:	f240 4309 	movw	r3, #1033	; 0x409
 262:	8283      	strh	r3, [r0, #20]
 264:	f100 031c 	add.w	r3, r0, #28
 268:	6083      	str	r3, [r0, #8]
 26a:	2301      	movs	r3, #1
 26c:	f441 7140 	orr.w	r1, r1, #768	; 0x300
 270:	8241      	strh	r1, [r0, #18]
 272:	82c6      	strh	r6, [r0, #22]
 274:	8186      	strh	r6, [r0, #12]
 276:	7603      	strb	r3, [r0, #24]
 278:	4620      	mov	r0, r4
 27a:	f7ff fffe 	bl	0 <usbh_ctl_handler>
 27e:	b978      	cbnz	r0, 2a0 <usbh_strdesc_get+0x54>
 280:	7f63      	ldrb	r3, [r4, #29]
 282:	2b03      	cmp	r3, #3
 284:	d10c      	bne.n	2a0 <usbh_strdesc_get+0x54>
 286:	7f23      	ldrb	r3, [r4, #28]
 288:	4601      	mov	r1, r0
 28a:	3b02      	subs	r3, #2
 28c:	42b3      	cmp	r3, r6
 28e:	bf28      	it	cs
 290:	4633      	movcs	r3, r6
 292:	f104 021c 	add.w	r2, r4, #28
 296:	b29b      	uxth	r3, r3
 298:	428b      	cmp	r3, r1
 29a:	d802      	bhi.n	2a2 <usbh_strdesc_get+0x56>
 29c:	2300      	movs	r3, #0
 29e:	702b      	strb	r3, [r5, #0]
 2a0:	bd70      	pop	{r4, r5, r6, pc}
 2a2:	1854      	adds	r4, r2, r1
 2a4:	78a4      	ldrb	r4, [r4, #2]
 2a6:	3102      	adds	r1, #2
 2a8:	f805 4b01 	strb.w	r4, [r5], #1
 2ac:	b289      	uxth	r1, r1
 2ae:	e7f3      	b.n	298 <usbh_strdesc_get+0x4c>

000002b0 <usbh_setaddress>:
 2b0:	7e03      	ldrb	r3, [r0, #24]
 2b2:	b943      	cbnz	r3, 2c6 <usbh_setaddress+0x16>
 2b4:	f44f 62a0 	mov.w	r2, #1280	; 0x500
 2b8:	6083      	str	r3, [r0, #8]
 2ba:	8183      	strh	r3, [r0, #12]
 2bc:	6143      	str	r3, [r0, #20]
 2be:	2301      	movs	r3, #1
 2c0:	8202      	strh	r2, [r0, #16]
 2c2:	8241      	strh	r1, [r0, #18]
 2c4:	7603      	strb	r3, [r0, #24]
 2c6:	f7ff bffe 	b.w	0 <usbh_ctl_handler>

000002ca <usbh_setcfg>:
 2ca:	7e03      	ldrb	r3, [r0, #24]
 2cc:	b943      	cbnz	r3, 2e0 <usbh_setcfg+0x16>
 2ce:	f44f 6210 	mov.w	r2, #2304	; 0x900
 2d2:	6083      	str	r3, [r0, #8]
 2d4:	8183      	strh	r3, [r0, #12]
 2d6:	6143      	str	r3, [r0, #20]
 2d8:	2301      	movs	r3, #1
 2da:	8202      	strh	r2, [r0, #16]
 2dc:	8241      	strh	r1, [r0, #18]
 2de:	7603      	strb	r3, [r0, #24]
 2e0:	f7ff bffe 	b.w	0 <usbh_ctl_handler>

000002e4 <usbh_setinterface>:
 2e4:	b410      	push	{r4}
 2e6:	7e03      	ldrb	r3, [r0, #24]
 2e8:	b94b      	cbnz	r3, 2fe <usbh_setinterface+0x1a>
 2ea:	f640 3401 	movw	r4, #2817	; 0xb01
 2ee:	82c3      	strh	r3, [r0, #22]
 2f0:	6083      	str	r3, [r0, #8]
 2f2:	8183      	strh	r3, [r0, #12]
 2f4:	2301      	movs	r3, #1
 2f6:	8204      	strh	r4, [r0, #16]
 2f8:	8242      	strh	r2, [r0, #18]
 2fa:	8281      	strh	r1, [r0, #20]
 2fc:	7603      	strb	r3, [r0, #24]
 2fe:	bc10      	pop	{r4}
 300:	f7ff bffe 	b.w	0 <usbh_ctl_handler>

00000304 <usbh_setdevfeature>:
 304:	b410      	push	{r4}
 306:	7e03      	ldrb	r3, [r0, #24]
 308:	b94b      	cbnz	r3, 31e <usbh_setdevfeature+0x1a>
 30a:	f44f 7440 	mov.w	r4, #768	; 0x300
 30e:	82c3      	strh	r3, [r0, #22]
 310:	6083      	str	r3, [r0, #8]
 312:	8183      	strh	r3, [r0, #12]
 314:	2301      	movs	r3, #1
 316:	8204      	strh	r4, [r0, #16]
 318:	8241      	strh	r1, [r0, #18]
 31a:	8282      	strh	r2, [r0, #20]
 31c:	7603      	strb	r3, [r0, #24]
 31e:	bc10      	pop	{r4}
 320:	f7ff bffe 	b.w	0 <usbh_ctl_handler>

00000324 <usbh_clrdevfeature>:
 324:	b410      	push	{r4}
 326:	7e03      	ldrb	r3, [r0, #24]
 328:	b94b      	cbnz	r3, 33e <usbh_clrdevfeature+0x1a>
 32a:	f44f 7480 	mov.w	r4, #256	; 0x100
 32e:	82c3      	strh	r3, [r0, #22]
 330:	6083      	str	r3, [r0, #8]
 332:	8183      	strh	r3, [r0, #12]
 334:	2301      	movs	r3, #1
 336:	8204      	strh	r4, [r0, #16]
 338:	8241      	strh	r1, [r0, #18]
 33a:	8282      	strh	r2, [r0, #20]
 33c:	7603      	strb	r3, [r0, #24]
 33e:	bc10      	pop	{r4}
 340:	f7ff bffe 	b.w	0 <usbh_ctl_handler>

00000344 <usbh_clrfeature>:
 344:	b430      	push	{r4, r5}
 346:	7e04      	ldrb	r4, [r0, #24]
 348:	f8d0 333c 	ldr.w	r3, [r0, #828]	; 0x33c
 34c:	b9bc      	cbnz	r4, 37e <usbh_clrfeature+0x3a>
 34e:	f44f 7581 	mov.w	r5, #258	; 0x102
 352:	6105      	str	r5, [r0, #16]
 354:	252c      	movs	r5, #44	; 0x2c
 356:	fb05 3202 	mla	r2, r5, r2, r3
 35a:	8281      	strh	r1, [r0, #20]
 35c:	82c4      	strh	r4, [r0, #22]
 35e:	f892 3118 	ldrb.w	r3, [r2, #280]	; 0x118
 362:	f001 017f 	and.w	r1, r1, #127	; 0x7f
 366:	428b      	cmp	r3, r1
 368:	d10f      	bne.n	38a <usbh_clrfeature+0x46>
 36a:	f892 3119 	ldrb.w	r3, [r2, #281]	; 0x119
 36e:	b14b      	cbz	r3, 384 <usbh_clrfeature+0x40>
 370:	f882 4130 	strb.w	r4, [r2, #304]	; 0x130
 374:	2300      	movs	r3, #0
 376:	6083      	str	r3, [r0, #8]
 378:	8183      	strh	r3, [r0, #12]
 37a:	2301      	movs	r3, #1
 37c:	7603      	strb	r3, [r0, #24]
 37e:	bc30      	pop	{r4, r5}
 380:	f7ff bffe 	b.w	0 <usbh_ctl_handler>
 384:	f882 3131 	strb.w	r3, [r2, #305]	; 0x131
 388:	e7f4      	b.n	374 <usbh_clrfeature+0x30>
 38a:	2002      	movs	r0, #2
 38c:	bc30      	pop	{r4, r5}
 38e:	4770      	bx	lr

00000390 <usbh_nextdesc_get>:
 390:	7802      	ldrb	r2, [r0, #0]
 392:	880b      	ldrh	r3, [r1, #0]
 394:	4410      	add	r0, r2
 396:	4413      	add	r3, r2
 398:	800b      	strh	r3, [r1, #0]
 39a:	4770      	bx	lr

0000039c <usbh_interface_select>:
 39c:	f890 321e 	ldrb.w	r3, [r0, #542]	; 0x21e
 3a0:	428b      	cmp	r3, r1
 3a2:	bf86      	itte	hi
 3a4:	f880 1200 	strbhi.w	r1, [r0, #512]	; 0x200
 3a8:	2000      	movhi	r0, #0
 3aa:	2002      	movls	r0, #2
 3ac:	4770      	bx	lr

000003ae <usbh_interface_find>:
 3ae:	b5f0      	push	{r4, r5, r6, r7, lr}
 3b0:	4604      	mov	r4, r0
 3b2:	2500      	movs	r5, #0
 3b4:	f890 621e 	ldrb.w	r6, [r0, #542]	; 0x21e
 3b8:	b2e8      	uxtb	r0, r5
 3ba:	4286      	cmp	r6, r0
 3bc:	d801      	bhi.n	3c2 <usbh_interface_find+0x14>
 3be:	20ff      	movs	r0, #255	; 0xff
 3c0:	bdf0      	pop	{r4, r5, r6, r7, pc}
 3c2:	f894 7228 	ldrb.w	r7, [r4, #552]	; 0x228
 3c6:	428f      	cmp	r7, r1
 3c8:	d001      	beq.n	3ce <usbh_interface_find+0x20>
 3ca:	29ff      	cmp	r1, #255	; 0xff
 3cc:	d10b      	bne.n	3e6 <usbh_interface_find+0x38>
 3ce:	f894 7229 	ldrb.w	r7, [r4, #553]	; 0x229
 3d2:	4297      	cmp	r7, r2
 3d4:	d001      	beq.n	3da <usbh_interface_find+0x2c>
 3d6:	2aff      	cmp	r2, #255	; 0xff
 3d8:	d105      	bne.n	3e6 <usbh_interface_find+0x38>
 3da:	f894 722a 	ldrb.w	r7, [r4, #554]	; 0x22a
 3de:	429f      	cmp	r7, r3
 3e0:	d0ee      	beq.n	3c0 <usbh_interface_find+0x12>
 3e2:	2bff      	cmp	r3, #255	; 0xff
 3e4:	d0ec      	beq.n	3c0 <usbh_interface_find+0x12>
 3e6:	3501      	adds	r5, #1
 3e8:	3474      	adds	r4, #116	; 0x74
 3ea:	e7e5      	b.n	3b8 <usbh_interface_find+0xa>

000003ec <usbh_interfaceindex_find>:
 3ec:	233a      	movs	r3, #58	; 0x3a
 3ee:	b530      	push	{r4, r5, lr}
 3f0:	fb03 0402 	mla	r4, r3, r2, r0
 3f4:	f894 5225 	ldrb.w	r5, [r4, #549]	; 0x225
 3f8:	428d      	cmp	r5, r1
 3fa:	d103      	bne.n	404 <usbh_interfaceindex_find+0x18>
 3fc:	f894 4226 	ldrb.w	r4, [r4, #550]	; 0x226
 400:	4294      	cmp	r4, r2
 402:	d00c      	beq.n	41e <usbh_interfaceindex_find+0x32>
 404:	fb03 0002 	mla	r0, r3, r2, r0
 408:	f890 3299 	ldrb.w	r3, [r0, #665]	; 0x299
 40c:	428b      	cmp	r3, r1
 40e:	d108      	bne.n	422 <usbh_interfaceindex_find+0x36>
 410:	f890 029a 	ldrb.w	r0, [r0, #666]	; 0x29a
 414:	4290      	cmp	r0, r2
 416:	bf14      	ite	ne
 418:	20ff      	movne	r0, #255	; 0xff
 41a:	2001      	moveq	r0, #1
 41c:	bd30      	pop	{r4, r5, pc}
 41e:	2000      	movs	r0, #0
 420:	e7fc      	b.n	41c <usbh_interfaceindex_find+0x30>
 422:	20ff      	movs	r0, #255	; 0xff
 424:	e7fa      	b.n	41c <usbh_interfaceindex_find+0x30>
 426:	bf00      	nop

usbh_pipe.o:     file format elf32-littlearm


Disassembly of section .text:

00000000 <usbh_pipe_create>:
   0:	b538      	push	{r3, r4, r5, lr}
   2:	460d      	mov	r5, r1
   4:	4611      	mov	r1, r2
   6:	222c      	movs	r2, #44	; 0x2c
   8:	fb02 0401 	mla	r4, r2, r1, r0
   c:	f895 2201 	ldrb.w	r2, [r5, #513]	; 0x201
  10:	f8d5 5204 	ldr.w	r5, [r5, #516]	; 0x204
  14:	f884 311a 	strb.w	r3, [r4, #282]	; 0x11a
  18:	f8bd 3010 	ldrh.w	r3, [sp, #16]
  1c:	f884 2111 	strb.w	r2, [r4, #273]	; 0x111
  20:	f8a4 311c 	strh.w	r3, [r4, #284]	; 0x11c
  24:	fab5 f385 	clz	r3, r5
  28:	095b      	lsrs	r3, r3, #5
  2a:	f8c4 5114 	str.w	r5, [r4, #276]	; 0x114
  2e:	f884 311e 	strb.w	r3, [r4, #286]	; 0x11e
  32:	f7ff fffe 	bl	0 <usb_pipe_init>
  36:	2000      	movs	r0, #0
  38:	bd38      	pop	{r3, r4, r5, pc}

0000003a <usbh_pipe_update>:
  3a:	b5f8      	push	{r3, r4, r5, r6, r7, lr}
  3c:	242c      	movs	r4, #44	; 0x2c
  3e:	fb04 0601 	mla	r6, r4, r1, r0
  42:	f896 7111 	ldrb.w	r7, [r6, #273]	; 0x111
  46:	f8bd 5018 	ldrh.w	r5, [sp, #24]
  4a:	4297      	cmp	r7, r2
  4c:	d002      	beq.n	54 <usbh_pipe_update+0x1a>
  4e:	b10a      	cbz	r2, 54 <usbh_pipe_update+0x1a>
  50:	f886 2111 	strb.w	r2, [r6, #273]	; 0x111
  54:	fb04 0201 	mla	r2, r4, r1, r0
  58:	f8d2 4114 	ldr.w	r4, [r2, #276]	; 0x114
  5c:	429c      	cmp	r4, r3
  5e:	d002      	beq.n	66 <usbh_pipe_update+0x2c>
  60:	b10b      	cbz	r3, 66 <usbh_pipe_update+0x2c>
  62:	f8c2 3114 	str.w	r3, [r2, #276]	; 0x114
  66:	232c      	movs	r3, #44	; 0x2c
  68:	fb03 0301 	mla	r3, r3, r1, r0
  6c:	f8b3 211c 	ldrh.w	r2, [r3, #284]	; 0x11c
  70:	42aa      	cmp	r2, r5
  72:	d002      	beq.n	7a <usbh_pipe_update+0x40>
  74:	b10d      	cbz	r5, 7a <usbh_pipe_update+0x40>
  76:	f8a3 511c 	strh.w	r5, [r3, #284]	; 0x11c
  7a:	f7ff fffe 	bl	0 <usb_pipe_init>
  7e:	2000      	movs	r0, #0
  80:	bdf8      	pop	{r3, r4, r5, r6, r7, pc}

00000082 <usbh_pipe_allocate>:
  82:	b570      	push	{r4, r5, r6, lr}
  84:	2300      	movs	r3, #0
  86:	252c      	movs	r5, #44	; 0x2c
  88:	f500 7488 	add.w	r4, r0, #272	; 0x110
  8c:	fb05 f203 	mul.w	r2, r5, r3
  90:	5ca6      	ldrb	r6, [r4, r2]
  92:	b96e      	cbnz	r6, b0 <usbh_pipe_allocate+0x2e>
  94:	4410      	add	r0, r2
  96:	2201      	movs	r2, #1
  98:	f880 2110 	strb.w	r2, [r0, #272]	; 0x110
  9c:	09ca      	lsrs	r2, r1, #7
  9e:	f001 017f 	and.w	r1, r1, #127	; 0x7f
  a2:	b2db      	uxtb	r3, r3
  a4:	f880 2119 	strb.w	r2, [r0, #281]	; 0x119
  a8:	f880 1118 	strb.w	r1, [r0, #280]	; 0x118
  ac:	b2d8      	uxtb	r0, r3
  ae:	bd70      	pop	{r4, r5, r6, pc}
  b0:	3301      	adds	r3, #1
  b2:	2b08      	cmp	r3, #8
  b4:	d1ea      	bne.n	8c <usbh_pipe_allocate+0xa>
  b6:	f64f 73ff 	movw	r3, #65535	; 0xffff
  ba:	e7f7      	b.n	ac <usbh_pipe_allocate+0x2a>

000000bc <usbh_pipe_free>:
  bc:	2907      	cmp	r1, #7
  be:	bf9f      	itttt	ls
  c0:	232c      	movls	r3, #44	; 0x2c
  c2:	fb03 0001 	mlals	r0, r3, r1, r0
  c6:	2300      	movls	r3, #0
  c8:	f880 3110 	strbls.w	r3, [r0, #272]	; 0x110
  cc:	2000      	movs	r0, #0
  ce:	4770      	bx	lr

000000d0 <usbh_pipe_delete>:
  d0:	b570      	push	{r4, r5, r6, lr}
  d2:	4605      	mov	r5, r0
  d4:	2402      	movs	r4, #2
  d6:	262c      	movs	r6, #44	; 0x2c
  d8:	fb06 5004 	mla	r0, r6, r4, r5
  dc:	222c      	movs	r2, #44	; 0x2c
  de:	2100      	movs	r1, #0
  e0:	f500 7088 	add.w	r0, r0, #272	; 0x110
  e4:	3401      	adds	r4, #1
  e6:	f7ff fffe 	bl	0 <memset>
  ea:	2c08      	cmp	r4, #8
  ec:	d1f4      	bne.n	d8 <usbh_pipe_delete+0x8>
  ee:	2000      	movs	r0, #0
  f0:	bd70      	pop	{r4, r5, r6, pc}

usbh_transc.o:     file format elf32-littlearm


Disassembly of section .text:

00000000 <usbh_urb_wait>:
   0:	4603      	mov	r3, r0
   2:	b570      	push	{r4, r5, r6, lr}
   4:	f8d0 533c 	ldr.w	r5, [r0, #828]	; 0x33c
   8:	202c      	movs	r0, #44	; 0x2c
   a:	fb00 5101 	mla	r1, r0, r1, r5
   e:	f891 4139 	ldrb.w	r4, [r1, #313]	; 0x139
  12:	2c01      	cmp	r4, #1
  14:	b2e0      	uxtb	r0, r4
  16:	d005      	beq.n	24 <usbh_urb_wait+0x24>
  18:	2802      	cmp	r0, #2
  1a:	d003      	beq.n	24 <usbh_urb_wait+0x24>
  1c:	2804      	cmp	r0, #4
  1e:	d102      	bne.n	26 <usbh_urb_wait+0x26>
  20:	2201      	movs	r2, #1
  22:	761a      	strb	r2, [r3, #24]
  24:	bd70      	pop	{r4, r5, r6, pc}
  26:	2803      	cmp	r0, #3
  28:	d101      	bne.n	2e <usbh_urb_wait+0x2e>
  2a:	220b      	movs	r2, #11
  2c:	e7f9      	b.n	22 <usbh_urb_wait+0x22>
  2e:	2a00      	cmp	r2, #0
  30:	d0ed      	beq.n	e <usbh_urb_wait+0xe>
  32:	69ac      	ldr	r4, [r5, #24]
  34:	89de      	ldrh	r6, [r3, #14]
  36:	68a4      	ldr	r4, [r4, #8]
  38:	b2a4      	uxth	r4, r4
  3a:	1ba4      	subs	r4, r4, r6
  3c:	4294      	cmp	r4, r2
  3e:	d9e6      	bls.n	e <usbh_urb_wait+0xe>
  40:	e7f3      	b.n	2a <usbh_urb_wait+0x2a>

00000042 <usbh_ctlsetup_send>:
  42:	232c      	movs	r3, #44	; 0x2c
  44:	b410      	push	{r4}
  46:	f04f 44c0 	mov.w	r4, #1610612736	; 0x60000000
  4a:	fb03 0302 	mla	r3, r3, r2, r0
  4e:	e9c3 4148 	strd	r4, r1, [r3, #288]	; 0x120
  52:	2108      	movs	r1, #8
  54:	f8c3 1128 	str.w	r1, [r3, #296]	; 0x128
  58:	2100      	movs	r1, #0
  5a:	f883 1139 	strb.w	r1, [r3, #313]	; 0x139
  5e:	f8c3 112c 	str.w	r1, [r3, #300]	; 0x12c
  62:	bc10      	pop	{r4}
  64:	4611      	mov	r1, r2
  66:	f7ff bffe 	b.w	0 <usb_pipe_xfer>

0000006a <usbh_data_send>:
  6a:	b538      	push	{r3, r4, r5, lr}
  6c:	242c      	movs	r4, #44	; 0x2c
  6e:	fb04 0502 	mla	r5, r4, r2, r0
  72:	e9c5 1349 	strd	r1, r3, [r5, #292]	; 0x124
  76:	f895 111a 	ldrb.w	r1, [r5, #282]	; 0x11a
  7a:	2903      	cmp	r1, #3
  7c:	d813      	bhi.n	a6 <usbh_data_send+0x3c>
  7e:	e8df f001 	tbb	[pc, r1]
  82:	3702      	.short	0x3702
  84:	1f2d      	.short	0x1f2d
  86:	b923      	cbnz	r3, 92 <usbh_data_send+0x28>
  88:	2301      	movs	r3, #1
  8a:	fb04 0402 	mla	r4, r4, r2, r0
  8e:	f884 3131 	strb.w	r3, [r4, #305]	; 0x131
  92:	232c      	movs	r3, #44	; 0x2c
  94:	fb03 0302 	mla	r3, r3, r2, r0
  98:	4918      	ldr	r1, [pc, #96]	; (fc <usbh_data_send+0x92>)
  9a:	f893 4131 	ldrb.w	r4, [r3, #305]	; 0x131
  9e:	f851 1024 	ldr.w	r1, [r1, r4, lsl #2]
  a2:	f8c3 1120 	str.w	r1, [r3, #288]	; 0x120
  a6:	232c      	movs	r3, #44	; 0x2c
  a8:	2400      	movs	r4, #0
  aa:	fb03 0302 	mla	r3, r3, r2, r0
  ae:	4611      	mov	r1, r2
  b0:	f883 4139 	strb.w	r4, [r3, #313]	; 0x139
  b4:	f8c3 412c 	str.w	r4, [r3, #300]	; 0x12c
  b8:	f7ff fffe 	bl	0 <usb_pipe_xfer>
  bc:	4620      	mov	r0, r4
  be:	bd38      	pop	{r3, r4, r5, pc}
  c0:	fb04 0402 	mla	r4, r4, r2, r0
  c4:	490d      	ldr	r1, [pc, #52]	; (fc <usbh_data_send+0x92>)
  c6:	f894 3131 	ldrb.w	r3, [r4, #305]	; 0x131
  ca:	f851 1023 	ldr.w	r1, [r1, r3, lsl #2]
  ce:	f083 0301 	eor.w	r3, r3, #1
  d2:	f8c4 1120 	str.w	r1, [r4, #288]	; 0x120
  d6:	f884 3131 	strb.w	r3, [r4, #305]	; 0x131
  da:	e7e4      	b.n	a6 <usbh_data_send+0x3c>
  dc:	fb04 0402 	mla	r4, r4, r2, r0
  e0:	4b06      	ldr	r3, [pc, #24]	; (fc <usbh_data_send+0x92>)
  e2:	f894 1131 	ldrb.w	r1, [r4, #305]	; 0x131
  e6:	f853 3021 	ldr.w	r3, [r3, r1, lsl #2]
  ea:	f8c4 3120 	str.w	r3, [r4, #288]	; 0x120
  ee:	e7da      	b.n	a6 <usbh_data_send+0x3c>
  f0:	4b02      	ldr	r3, [pc, #8]	; (fc <usbh_data_send+0x92>)
  f2:	fb04 0402 	mla	r4, r4, r2, r0
  f6:	681b      	ldr	r3, [r3, #0]
  f8:	e7f7      	b.n	ea <usbh_data_send+0x80>
  fa:	bf00      	nop
  fc:	00000000 	.word	0x00000000

00000100 <usbh_data_recev>:
 100:	b538      	push	{r3, r4, r5, lr}
 102:	242c      	movs	r4, #44	; 0x2c
 104:	fb04 0502 	mla	r5, r4, r2, r0
 108:	e9c5 1349 	strd	r1, r3, [r5, #292]	; 0x124
 10c:	f895 311a 	ldrb.w	r3, [r5, #282]	; 0x11a
 110:	2b03      	cmp	r3, #3
 112:	d817      	bhi.n	144 <usbh_data_recev+0x44>
 114:	e8df f003 	tbb	[pc, r3]
 118:	09232b02 	.word	0x09232b02
 11c:	4b16      	ldr	r3, [pc, #88]	; (178 <usbh_data_recev+0x78>)
 11e:	fb04 0402 	mla	r4, r4, r2, r0
 122:	685b      	ldr	r3, [r3, #4]
 124:	f8c4 3120 	str.w	r3, [r4, #288]	; 0x120
 128:	e00c      	b.n	144 <usbh_data_recev+0x44>
 12a:	fb04 0402 	mla	r4, r4, r2, r0
 12e:	4912      	ldr	r1, [pc, #72]	; (178 <usbh_data_recev+0x78>)
 130:	f894 3130 	ldrb.w	r3, [r4, #304]	; 0x130
 134:	f851 1023 	ldr.w	r1, [r1, r3, lsl #2]
 138:	f083 0301 	eor.w	r3, r3, #1
 13c:	f8c4 1120 	str.w	r1, [r4, #288]	; 0x120
 140:	f884 3130 	strb.w	r3, [r4, #304]	; 0x130
 144:	232c      	movs	r3, #44	; 0x2c
 146:	2400      	movs	r4, #0
 148:	fb03 0302 	mla	r3, r3, r2, r0
 14c:	4611      	mov	r1, r2
 14e:	f883 4139 	strb.w	r4, [r3, #313]	; 0x139
 152:	f8c3 412c 	str.w	r4, [r3, #300]	; 0x12c
 156:	f7ff fffe 	bl	0 <usb_pipe_xfer>
 15a:	4620      	mov	r0, r4
 15c:	bd38      	pop	{r3, r4, r5, pc}
 15e:	fb04 0402 	mla	r4, r4, r2, r0
 162:	4b05      	ldr	r3, [pc, #20]	; (178 <usbh_data_recev+0x78>)
 164:	f894 1130 	ldrb.w	r1, [r4, #304]	; 0x130
 168:	f853 3021 	ldr.w	r3, [r3, r1, lsl #2]
 16c:	e7da      	b.n	124 <usbh_data_recev+0x24>
 16e:	4b02      	ldr	r3, [pc, #8]	; (178 <usbh_data_recev+0x78>)
 170:	fb04 0402 	mla	r4, r4, r2, r0
 174:	681b      	ldr	r3, [r3, #0]
 176:	e7d5      	b.n	124 <usbh_data_recev+0x24>
 178:	00000000 	.word	0x00000000

0000017c <usbh_ctl_handler>:
 17c:	b538      	push	{r3, r4, r5, lr}
 17e:	7e03      	ldrb	r3, [r0, #24]
 180:	4604      	mov	r4, r0
 182:	3b01      	subs	r3, #1
 184:	2b0b      	cmp	r3, #11
 186:	d823      	bhi.n	1d0 <usbh_ctl_handler+0x54>
 188:	e8df f003 	tbb	[pc, r3]
 18c:	22292206 	.word	0x22292206
 190:	2257223a 	.word	0x2257223a
 194:	72752269 	.word	0x72752269
 198:	7942      	ldrb	r2, [r0, #5]
 19a:	f100 0110 	add.w	r1, r0, #16
 19e:	f8d0 033c 	ldr.w	r0, [r0, #828]	; 0x33c
 1a2:	f7ff fffe 	bl	42 <usbh_ctlsetup_send>
 1a6:	2200      	movs	r2, #0
 1a8:	4620      	mov	r0, r4
 1aa:	7961      	ldrb	r1, [r4, #5]
 1ac:	f7ff ff28 	bl	0 <usbh_urb_wait>
 1b0:	2801      	cmp	r0, #1
 1b2:	d10d      	bne.n	1d0 <usbh_ctl_handler+0x54>
 1b4:	8ae2      	ldrh	r2, [r4, #22]
 1b6:	f994 3010 	ldrsb.w	r3, [r4, #16]
 1ba:	b15a      	cbz	r2, 1d4 <usbh_ctl_handler+0x58>
 1bc:	2b00      	cmp	r3, #0
 1be:	bfb4      	ite	lt
 1c0:	2303      	movlt	r3, #3
 1c2:	2305      	movge	r3, #5
 1c4:	7623      	strb	r3, [r4, #24]
 1c6:	f8d4 333c 	ldr.w	r3, [r4, #828]	; 0x33c
 1ca:	699b      	ldr	r3, [r3, #24]
 1cc:	689b      	ldr	r3, [r3, #8]
 1ce:	81e3      	strh	r3, [r4, #14]
 1d0:	2001      	movs	r0, #1
 1d2:	bd38      	pop	{r3, r4, r5, pc}
 1d4:	2b00      	cmp	r3, #0
 1d6:	bfb4      	ite	lt
 1d8:	2309      	movlt	r3, #9
 1da:	2307      	movge	r3, #7
 1dc:	e7f2      	b.n	1c4 <usbh_ctl_handler+0x48>
 1de:	8983      	ldrh	r3, [r0, #12]
 1e0:	7902      	ldrb	r2, [r0, #4]
 1e2:	6881      	ldr	r1, [r0, #8]
 1e4:	f8d0 033c 	ldr.w	r0, [r0, #828]	; 0x33c
 1e8:	f7ff fffe 	bl	100 <usbh_data_recev>
 1ec:	f241 3288 	movw	r2, #5000	; 0x1388
 1f0:	4620      	mov	r0, r4
 1f2:	7921      	ldrb	r1, [r4, #4]
 1f4:	f7ff ff04 	bl	0 <usbh_urb_wait>
 1f8:	2801      	cmp	r0, #1
 1fa:	d1e9      	bne.n	1d0 <usbh_ctl_handler+0x54>
 1fc:	2309      	movs	r3, #9
 1fe:	e7e1      	b.n	1c4 <usbh_ctl_handler+0x48>
 200:	232c      	movs	r3, #44	; 0x2c
 202:	f8d0 033c 	ldr.w	r0, [r0, #828]	; 0x33c
 206:	7962      	ldrb	r2, [r4, #5]
 208:	2101      	movs	r1, #1
 20a:	fb03 0302 	mla	r3, r3, r2, r0
 20e:	f893 5119 	ldrb.w	r5, [r3, #281]	; 0x119
 212:	b17d      	cbz	r5, 234 <usbh_ctl_handler+0xb8>
 214:	f883 1130 	strb.w	r1, [r3, #304]	; 0x130
 218:	89a3      	ldrh	r3, [r4, #12]
 21a:	68a1      	ldr	r1, [r4, #8]
 21c:	f7ff fffe 	bl	6a <usbh_data_send>
 220:	f241 3288 	movw	r2, #5000	; 0x1388
 224:	4620      	mov	r0, r4
 226:	7961      	ldrb	r1, [r4, #5]
 228:	f7ff feea 	bl	0 <usbh_urb_wait>
 22c:	2801      	cmp	r0, #1
 22e:	d1cf      	bne.n	1d0 <usbh_ctl_handler+0x54>
 230:	2307      	movs	r3, #7
 232:	e7c7      	b.n	1c4 <usbh_ctl_handler+0x48>
 234:	f883 1131 	strb.w	r1, [r3, #305]	; 0x131
 238:	e7ee      	b.n	218 <usbh_ctl_handler+0x9c>
 23a:	2300      	movs	r3, #0
 23c:	7905      	ldrb	r5, [r0, #4]
 23e:	4619      	mov	r1, r3
 240:	462a      	mov	r2, r5
 242:	f8d0 033c 	ldr.w	r0, [r0, #828]	; 0x33c
 246:	f7ff fffe 	bl	100 <usbh_data_recev>
 24a:	2232      	movs	r2, #50	; 0x32
 24c:	4629      	mov	r1, r5
 24e:	4620      	mov	r0, r4
 250:	f7ff fed6 	bl	0 <usbh_urb_wait>
 254:	2801      	cmp	r0, #1
 256:	d1bb      	bne.n	1d0 <usbh_ctl_handler+0x54>
 258:	230c      	movs	r3, #12
 25a:	7623      	strb	r3, [r4, #24]
 25c:	e7b8      	b.n	1d0 <usbh_ctl_handler+0x54>
 25e:	2300      	movs	r3, #0
 260:	7945      	ldrb	r5, [r0, #5]
 262:	4619      	mov	r1, r3
 264:	462a      	mov	r2, r5
 266:	f8d0 033c 	ldr.w	r0, [r0, #828]	; 0x33c
 26a:	f7ff fffe 	bl	6a <usbh_data_send>
 26e:	e7ec      	b.n	24a <usbh_ctl_handler+0xce>
 270:	2000      	movs	r0, #0
 272:	7620      	strb	r0, [r4, #24]
 274:	e7ad      	b.n	1d2 <usbh_ctl_handler+0x56>
 276:	79c3      	ldrb	r3, [r0, #7]
 278:	3301      	adds	r3, #1
 27a:	b2db      	uxtb	r3, r3
 27c:	2b03      	cmp	r3, #3
 27e:	71c3      	strb	r3, [r0, #7]
 280:	d801      	bhi.n	286 <usbh_ctl_handler+0x10a>
 282:	2301      	movs	r3, #1
 284:	e7e9      	b.n	25a <usbh_ctl_handler+0xde>
 286:	2002      	movs	r0, #2
 288:	e7a3      	b.n	1d2 <usbh_ctl_handler+0x56>
 28a:	bf00      	nop

usbh_msc_bbb.o:     file format elf32-littlearm


Disassembly of section .text:

00000000 <usbh_msc_bot_init>:
   0:	f8d0 3330 	ldr.w	r3, [r0, #816]	; 0x330
   4:	4a05      	ldr	r2, [pc, #20]	; (1c <usbh_msc_bot_init+0x1c>)
   6:	699b      	ldr	r3, [r3, #24]
   8:	4905      	ldr	r1, [pc, #20]	; (20 <usbh_msc_bot_init+0x20>)
   a:	e9c3 1217 	strd	r1, r2, [r3, #92]	; 0x5c
   e:	2201      	movs	r2, #1
  10:	f883 2058 	strb.w	r2, [r3, #88]	; 0x58
  14:	f883 205a 	strb.w	r2, [r3, #90]	; 0x5a
  18:	4770      	bx	lr
  1a:	bf00      	nop
  1c:	20304050 	.word	0x20304050
  20:	43425355 	.word	0x43425355

00000024 <usbh_msc_bot_abort>:
  24:	f8d0 3330 	ldr.w	r3, [r0, #816]	; 0x330
  28:	699b      	ldr	r3, [r3, #24]
  2a:	b119      	cbz	r1, 34 <usbh_msc_bot_abort+0x10>
  2c:	2901      	cmp	r1, #1
  2e:	d005      	beq.n	3c <usbh_msc_bot_abort+0x18>
  30:	2001      	movs	r0, #1
  32:	4770      	bx	lr
  34:	781a      	ldrb	r2, [r3, #0]
  36:	7899      	ldrb	r1, [r3, #2]
  38:	f7ff bffe 	b.w	0 <usbh_clrfeature>
  3c:	785a      	ldrb	r2, [r3, #1]
  3e:	78d9      	ldrb	r1, [r3, #3]
  40:	e7fa      	b.n	38 <usbh_msc_bot_abort+0x14>

00000042 <usbh_msc_bot_reset>:
  42:	b510      	push	{r4, lr}
  44:	7e02      	ldrb	r2, [r0, #24]
  46:	4604      	mov	r4, r0
  48:	b94a      	cbnz	r2, 5e <usbh_msc_bot_reset+0x1c>
  4a:	4907      	ldr	r1, [pc, #28]	; (68 <usbh_msc_bot_reset+0x26>)
  4c:	f100 0310 	add.w	r3, r0, #16
  50:	6808      	ldr	r0, [r1, #0]
  52:	6849      	ldr	r1, [r1, #4]
  54:	c303      	stmia	r3!, {r0, r1}
  56:	4611      	mov	r1, r2
  58:	4620      	mov	r0, r4
  5a:	f7ff fffe 	bl	0 <usbh_ctlstate_config>
  5e:	4620      	mov	r0, r4
  60:	e8bd 4010 	ldmia.w	sp!, {r4, lr}
  64:	f7ff bffe 	b.w	0 <usbh_ctl_handler>
  68:	00000000 	.word	0x00000000

0000006c <usbh_msc_csw_decode>:
  6c:	f8d0 3330 	ldr.w	r3, [r0, #816]	; 0x330
  70:	f8d0 233c 	ldr.w	r2, [r0, #828]	; 0x33c
  74:	699b      	ldr	r3, [r3, #24]
  76:	7819      	ldrb	r1, [r3, #0]
  78:	3134      	adds	r1, #52	; 0x34
  7a:	eb02 0281 	add.w	r2, r2, r1, lsl #2
  7e:	6852      	ldr	r2, [r2, #4]
  80:	2a0d      	cmp	r2, #13
  82:	d10f      	bne.n	a4 <usbh_msc_csw_decode+0x38>
  84:	6fd9      	ldr	r1, [r3, #124]	; 0x7c
  86:	4a09      	ldr	r2, [pc, #36]	; (ac <usbh_msc_csw_decode+0x40>)
  88:	4291      	cmp	r1, r2
  8a:	d10b      	bne.n	a4 <usbh_msc_csw_decode+0x38>
  8c:	f8d3 1080 	ldr.w	r1, [r3, #128]	; 0x80
  90:	6e1a      	ldr	r2, [r3, #96]	; 0x60
  92:	4291      	cmp	r1, r2
  94:	d108      	bne.n	a8 <usbh_msc_csw_decode+0x3c>
  96:	f893 0088 	ldrb.w	r0, [r3, #136]	; 0x88
  9a:	b130      	cbz	r0, aa <usbh_msc_csw_decode+0x3e>
  9c:	2802      	cmp	r0, #2
  9e:	bf18      	it	ne
  a0:	2001      	movne	r0, #1
  a2:	4770      	bx	lr
  a4:	2002      	movs	r0, #2
  a6:	4770      	bx	lr
  a8:	2001      	movs	r0, #1
  aa:	4770      	bx	lr
  ac:	53425355 	.word	0x53425355

000000b0 <usbh_msc_bot_process>:
  b0:	b538      	push	{r3, r4, r5, lr}
  b2:	f8d0 3330 	ldr.w	r3, [r0, #816]	; 0x330
  b6:	4605      	mov	r5, r0
  b8:	699c      	ldr	r4, [r3, #24]
  ba:	f894 3058 	ldrb.w	r3, [r4, #88]	; 0x58
  be:	3b01      	subs	r3, #1
  c0:	2b0a      	cmp	r3, #10
  c2:	d82a      	bhi.n	11a <usbh_msc_bot_process+0x6a>
  c4:	e8df f003 	tbb	[pc, r3]
  c8:	382f1406 	.word	0x382f1406
  cc:	877d5c53 	.word	0x877d5c53
  d0:	a59f      	.short	0xa59f
  d2:	d8          	.byte	0xd8
  d3:	00          	.byte	0x00
  d4:	2302      	movs	r3, #2
  d6:	f884 3058 	strb.w	r3, [r4, #88]	; 0x58
  da:	231f      	movs	r3, #31
  dc:	7862      	ldrb	r2, [r4, #1]
  de:	f8d0 033c 	ldr.w	r0, [r0, #828]	; 0x33c
  e2:	f884 1069 	strb.w	r1, [r4, #105]	; 0x69
  e6:	f104 015c 	add.w	r1, r4, #92	; 0x5c
  ea:	f7ff fffe 	bl	0 <usbh_data_send>
  ee:	e014      	b.n	11a <usbh_msc_bot_process+0x6a>
  f0:	212c      	movs	r1, #44	; 0x2c
  f2:	7862      	ldrb	r2, [r4, #1]
  f4:	f8d0 333c 	ldr.w	r3, [r0, #828]	; 0x33c
  f8:	fb01 3302 	mla	r3, r1, r2, r3
  fc:	f893 2139 	ldrb.w	r2, [r3, #313]	; 0x139
 100:	2a01      	cmp	r2, #1
 102:	b2d3      	uxtb	r3, r2
 104:	d10b      	bne.n	11e <usbh_msc_bot_process+0x6e>
 106:	6e63      	ldr	r3, [r4, #100]	; 0x64
 108:	2b00      	cmp	r3, #0
 10a:	d050      	beq.n	1ae <usbh_msc_bot_process+0xfe>
 10c:	f994 3068 	ldrsb.w	r3, [r4, #104]	; 0x68
 110:	2b00      	cmp	r3, #0
 112:	da50      	bge.n	1b6 <usbh_msc_bot_process+0x106>
 114:	2303      	movs	r3, #3
 116:	f884 3058 	strb.w	r3, [r4, #88]	; 0x58
 11a:	2001      	movs	r0, #1
 11c:	bd38      	pop	{r3, r4, r5, pc}
 11e:	2b02      	cmp	r3, #2
 120:	d14b      	bne.n	1ba <usbh_msc_bot_process+0x10a>
 122:	2301      	movs	r3, #1
 124:	e7f7      	b.n	116 <usbh_msc_bot_process+0x66>
 126:	88a3      	ldrh	r3, [r4, #4]
 128:	7822      	ldrb	r2, [r4, #0]
 12a:	6961      	ldr	r1, [r4, #20]
 12c:	f8d0 033c 	ldr.w	r0, [r0, #828]	; 0x33c
 130:	f7ff fffe 	bl	0 <usbh_data_recev>
 134:	2304      	movs	r3, #4
 136:	e7ee      	b.n	116 <usbh_msc_bot_process+0x66>
 138:	232c      	movs	r3, #44	; 0x2c
 13a:	f8d0 033c 	ldr.w	r0, [r0, #828]	; 0x33c
 13e:	7822      	ldrb	r2, [r4, #0]
 140:	fb03 0302 	mla	r3, r3, r2, r0
 144:	f893 3139 	ldrb.w	r3, [r3, #313]	; 0x139
 148:	2b01      	cmp	r3, #1
 14a:	b2d9      	uxtb	r1, r3
 14c:	d10b      	bne.n	166 <usbh_msc_bot_process+0xb6>
 14e:	6e65      	ldr	r5, [r4, #100]	; 0x64
 150:	88a3      	ldrh	r3, [r4, #4]
 152:	429d      	cmp	r5, r3
 154:	d929      	bls.n	1aa <usbh_msc_bot_process+0xfa>
 156:	6961      	ldr	r1, [r4, #20]
 158:	1aed      	subs	r5, r5, r3
 15a:	4419      	add	r1, r3
 15c:	6161      	str	r1, [r4, #20]
 15e:	6665      	str	r5, [r4, #100]	; 0x64
 160:	f7ff fffe 	bl	0 <usbh_data_recev>
 164:	e7d9      	b.n	11a <usbh_msc_bot_process+0x6a>
 166:	2904      	cmp	r1, #4
 168:	d1d7      	bne.n	11a <usbh_msc_bot_process+0x6a>
 16a:	2309      	movs	r3, #9
 16c:	e7d3      	b.n	116 <usbh_msc_bot_process+0x66>
 16e:	88e3      	ldrh	r3, [r4, #6]
 170:	7862      	ldrb	r2, [r4, #1]
 172:	6961      	ldr	r1, [r4, #20]
 174:	f8d0 033c 	ldr.w	r0, [r0, #828]	; 0x33c
 178:	f7ff fffe 	bl	0 <usbh_data_send>
 17c:	2306      	movs	r3, #6
 17e:	e7ca      	b.n	116 <usbh_msc_bot_process+0x66>
 180:	232c      	movs	r3, #44	; 0x2c
 182:	f8d0 033c 	ldr.w	r0, [r0, #828]	; 0x33c
 186:	7862      	ldrb	r2, [r4, #1]
 188:	fb03 0302 	mla	r3, r3, r2, r0
 18c:	f893 1139 	ldrb.w	r1, [r3, #313]	; 0x139
 190:	2901      	cmp	r1, #1
 192:	b2cb      	uxtb	r3, r1
 194:	d10d      	bne.n	1b2 <usbh_msc_bot_process+0x102>
 196:	6e65      	ldr	r5, [r4, #100]	; 0x64
 198:	88e3      	ldrh	r3, [r4, #6]
 19a:	429d      	cmp	r5, r3
 19c:	d905      	bls.n	1aa <usbh_msc_bot_process+0xfa>
 19e:	6961      	ldr	r1, [r4, #20]
 1a0:	1aed      	subs	r5, r5, r3
 1a2:	4419      	add	r1, r3
 1a4:	6161      	str	r1, [r4, #20]
 1a6:	6665      	str	r5, [r4, #100]	; 0x64
 1a8:	e79f      	b.n	ea <usbh_msc_bot_process+0x3a>
 1aa:	2300      	movs	r3, #0
 1ac:	6663      	str	r3, [r4, #100]	; 0x64
 1ae:	2307      	movs	r3, #7
 1b0:	e7b1      	b.n	116 <usbh_msc_bot_process+0x66>
 1b2:	2b02      	cmp	r3, #2
 1b4:	d101      	bne.n	1ba <usbh_msc_bot_process+0x10a>
 1b6:	2305      	movs	r3, #5
 1b8:	e7ad      	b.n	116 <usbh_msc_bot_process+0x66>
 1ba:	2b04      	cmp	r3, #4
 1bc:	d1ad      	bne.n	11a <usbh_msc_bot_process+0x6a>
 1be:	230a      	movs	r3, #10
 1c0:	e7a9      	b.n	116 <usbh_msc_bot_process+0x66>
 1c2:	4621      	mov	r1, r4
 1c4:	230d      	movs	r3, #13
 1c6:	f811 2b7c 	ldrb.w	r2, [r1], #124
 1ca:	f8d0 033c 	ldr.w	r0, [r0, #828]	; 0x33c
 1ce:	f7ff fffe 	bl	0 <usbh_data_recev>
 1d2:	2308      	movs	r3, #8
 1d4:	e79f      	b.n	116 <usbh_msc_bot_process+0x66>
 1d6:	212c      	movs	r1, #44	; 0x2c
 1d8:	7822      	ldrb	r2, [r4, #0]
 1da:	f8d0 333c 	ldr.w	r3, [r0, #828]	; 0x33c
 1de:	fb01 3302 	mla	r3, r1, r2, r3
 1e2:	f893 2139 	ldrb.w	r2, [r3, #313]	; 0x139
 1e6:	2a01      	cmp	r2, #1
 1e8:	b2d3      	uxtb	r3, r2
 1ea:	d10a      	bne.n	202 <usbh_msc_bot_process+0x152>
 1ec:	f884 3058 	strb.w	r3, [r4, #88]	; 0x58
 1f0:	f884 305a 	strb.w	r3, [r4, #90]	; 0x5a
 1f4:	f7ff fffe 	bl	6c <usbh_msc_csw_decode>
 1f8:	3800      	subs	r0, #0
 1fa:	bf18      	it	ne
 1fc:	2001      	movne	r0, #1
 1fe:	0040      	lsls	r0, r0, #1
 200:	e78c      	b.n	11c <usbh_msc_bot_process+0x6c>
 202:	2b04      	cmp	r3, #4
 204:	e7b0      	b.n	168 <usbh_msc_bot_process+0xb8>
 206:	2100      	movs	r1, #0
 208:	f7ff fffe 	bl	24 <usbh_msc_bot_abort>
 20c:	2800      	cmp	r0, #0
 20e:	d184      	bne.n	11a <usbh_msc_bot_process+0x6a>
 210:	e7cd      	b.n	1ae <usbh_msc_bot_process+0xfe>
 212:	2101      	movs	r1, #1
 214:	f7ff fffe 	bl	24 <usbh_msc_bot_abort>
 218:	bb38      	cbnz	r0, 26a <usbh_msc_bot_process+0x1ba>
 21a:	212c      	movs	r1, #44	; 0x2c
 21c:	f8d5 233c 	ldr.w	r2, [r5, #828]	; 0x33c
 220:	7863      	ldrb	r3, [r4, #1]
 222:	fb01 2303 	mla	r3, r1, r3, r2
 226:	f893 1119 	ldrb.w	r1, [r3, #281]	; 0x119
 22a:	b1a1      	cbz	r1, 256 <usbh_msc_bot_process+0x1a6>
 22c:	f893 1130 	ldrb.w	r1, [r3, #304]	; 0x130
 230:	f1c1 0101 	rsb	r1, r1, #1
 234:	f883 1130 	strb.w	r1, [r3, #304]	; 0x130
 238:	212c      	movs	r1, #44	; 0x2c
 23a:	7823      	ldrb	r3, [r4, #0]
 23c:	fb01 2303 	mla	r3, r1, r3, r2
 240:	f893 2119 	ldrb.w	r2, [r3, #281]	; 0x119
 244:	b172      	cbz	r2, 264 <usbh_msc_bot_process+0x1b4>
 246:	2200      	movs	r2, #0
 248:	f883 2130 	strb.w	r2, [r3, #304]	; 0x130
 24c:	2309      	movs	r3, #9
 24e:	2000      	movs	r0, #0
 250:	f884 3058 	strb.w	r3, [r4, #88]	; 0x58
 254:	e762      	b.n	11c <usbh_msc_bot_process+0x6c>
 256:	f893 1131 	ldrb.w	r1, [r3, #305]	; 0x131
 25a:	f1c1 0101 	rsb	r1, r1, #1
 25e:	f883 1131 	strb.w	r1, [r3, #305]	; 0x131
 262:	e7e9      	b.n	238 <usbh_msc_bot_process+0x188>
 264:	f883 2131 	strb.w	r2, [r3, #305]	; 0x131
 268:	e7f0      	b.n	24c <usbh_msc_bot_process+0x19c>
 26a:	2804      	cmp	r0, #4
 26c:	f47f af56 	bne.w	11c <usbh_msc_bot_process+0x6c>
 270:	230b      	movs	r3, #11
 272:	f884 3058 	strb.w	r3, [r4, #88]	; 0x58
 276:	e751      	b.n	11c <usbh_msc_bot_process+0x6c>
 278:	f7ff fffe 	bl	42 <usbh_msc_bot_reset>
 27c:	2800      	cmp	r0, #0
 27e:	f47f af4d 	bne.w	11c <usbh_msc_bot_process+0x6c>
 282:	2301      	movs	r3, #1
 284:	e7e3      	b.n	24e <usbh_msc_bot_process+0x19e>
 286:	bf00      	nop

usbh_msc_core.o:     file format elf32-littlearm


Disassembly of section .text:

00000000 <usbh_msc_handle>:
   0:	b570      	push	{r4, r5, r6, lr}
   2:	f8d0 3330 	ldr.w	r3, [r0, #816]	; 0x330
   6:	4606      	mov	r6, r0
   8:	699c      	ldr	r4, [r3, #24]
   a:	7c23      	ldrb	r3, [r4, #16]
   c:	b123      	cbz	r3, 18 <usbh_msc_handle+0x18>
   e:	2b01      	cmp	r3, #1
  10:	f000 80bc 	beq.w	18c <usbh_msc_handle+0x18c>
  14:	2001      	movs	r0, #1
  16:	bd70      	pop	{r4, r5, r6, pc}
  18:	68e2      	ldr	r2, [r4, #12]
  1a:	7a21      	ldrb	r1, [r4, #8]
  1c:	4291      	cmp	r1, r2
  1e:	f04f 0201 	mov.w	r2, #1
  22:	f080 80b0 	bcs.w	186 <usbh_msc_handle+0x186>
  26:	253c      	movs	r5, #60	; 0x3c
  28:	fb05 4301 	mla	r3, r5, r1, r4
  2c:	f883 208d 	strb.w	r2, [r3, #141]	; 0x8d
  30:	f893 308c 	ldrb.w	r3, [r3, #140]	; 0x8c
  34:	2b08      	cmp	r3, #8
  36:	d8ed      	bhi.n	14 <usbh_msc_handle+0x14>
  38:	a201      	add	r2, pc, #4	; (adr r2, 40 <usbh_msc_handle+0x40>)
  3a:	f852 f023 	ldr.w	pc, [r2, r3, lsl #2]
  3e:	bf00      	nop
  40:	00000065 	.word	0x00000065
  44:	00000015 	.word	0x00000015
  48:	00000093 	.word	0x00000093
  4c:	000000f1 	.word	0x000000f1
  50:	00000077 	.word	0x00000077
  54:	0000012b 	.word	0x0000012b
  58:	00000015 	.word	0x00000015
  5c:	00000015 	.word	0x00000015
  60:	00000181 	.word	0x00000181
  64:	2304      	movs	r3, #4
  66:	fb05 4101 	mla	r1, r5, r1, r4
  6a:	f881 308c 	strb.w	r3, [r1, #140]	; 0x8c
  6e:	89c3      	ldrh	r3, [r0, #14]
  70:	f8c4 3104 	str.w	r3, [r4, #260]	; 0x104
  74:	e7ce      	b.n	14 <usbh_msc_handle+0x14>
  76:	fb05 4201 	mla	r2, r5, r1, r4
  7a:	32a4      	adds	r2, #164	; 0xa4
  7c:	f7ff fffe 	bl	0 <usbh_msc_scsi_inquiry>
  80:	2800      	cmp	r0, #0
  82:	d144      	bne.n	10e <usbh_msc_handle+0x10e>
  84:	2202      	movs	r2, #2
  86:	7a23      	ldrb	r3, [r4, #8]
  88:	fb05 4303 	mla	r3, r5, r3, r4
  8c:	f883 208c 	strb.w	r2, [r3, #140]	; 0x8c
  90:	e7c0      	b.n	14 <usbh_msc_handle+0x14>
  92:	f7ff fffe 	bl	0 <usbh_msc_test_unitready>
  96:	b980      	cbnz	r0, ba <usbh_msc_handle+0xba>
  98:	223c      	movs	r2, #60	; 0x3c
  9a:	7a23      	ldrb	r3, [r4, #8]
  9c:	fb02 4303 	mla	r3, r2, r3, r4
  a0:	f893 20c6 	ldrb.w	r2, [r3, #198]	; 0xc6
  a4:	3a00      	subs	r2, #0
  a6:	bf18      	it	ne
  a8:	2201      	movne	r2, #1
  aa:	f883 20c7 	strb.w	r2, [r3, #199]	; 0xc7
  ae:	2203      	movs	r2, #3
  b0:	f8a3 208c 	strh.w	r2, [r3, #140]	; 0x8c
  b4:	f883 00c6 	strb.w	r0, [r3, #198]	; 0xc6
  b8:	e7ac      	b.n	14 <usbh_msc_handle+0x14>
  ba:	2802      	cmp	r0, #2
  bc:	d10d      	bne.n	da <usbh_msc_handle+0xda>
  be:	223c      	movs	r2, #60	; 0x3c
  c0:	7a23      	ldrb	r3, [r4, #8]
  c2:	fb02 4303 	mla	r3, r2, r3, r4
  c6:	f893 20c6 	ldrb.w	r2, [r3, #198]	; 0xc6
  ca:	3a02      	subs	r2, #2
  cc:	bf18      	it	ne
  ce:	2201      	movne	r2, #1
  d0:	f883 20c7 	strb.w	r2, [r3, #199]	; 0xc7
  d4:	f240 1205 	movw	r2, #261	; 0x105
  d8:	e7ea      	b.n	b0 <usbh_msc_handle+0xb0>
  da:	2804      	cmp	r0, #4
  dc:	d19a      	bne.n	14 <usbh_msc_handle+0x14>
  de:	223c      	movs	r2, #60	; 0x3c
  e0:	7a23      	ldrb	r3, [r4, #8]
  e2:	fb02 4303 	mla	r3, r2, r3, r4
  e6:	f240 2201 	movw	r2, #513	; 0x201
  ea:	f8a3 208c 	strh.w	r2, [r3, #140]	; 0x8c
  ee:	e791      	b.n	14 <usbh_msc_handle+0x14>
  f0:	fb05 4201 	mla	r2, r5, r1, r4
  f4:	329c      	adds	r2, #156	; 0x9c
  f6:	f7ff fffe 	bl	0 <usbh_msc_read_capacity10>
  fa:	b940      	cbnz	r0, 10e <usbh_msc_handle+0x10e>
  fc:	2201      	movs	r2, #1
  fe:	7a23      	ldrb	r3, [r4, #8]
 100:	fb05 4503 	mla	r5, r5, r3, r4
 104:	4413      	add	r3, r2
 106:	f8a5 208c 	strh.w	r2, [r5, #140]	; 0x8c
 10a:	7223      	strb	r3, [r4, #8]
 10c:	e782      	b.n	14 <usbh_msc_handle+0x14>
 10e:	2802      	cmp	r0, #2
 110:	d104      	bne.n	11c <usbh_msc_handle+0x11c>
 112:	7a23      	ldrb	r3, [r4, #8]
 114:	2205      	movs	r2, #5
 116:	fb05 4303 	mla	r3, r5, r3, r4
 11a:	e7b7      	b.n	8c <usbh_msc_handle+0x8c>
 11c:	2804      	cmp	r0, #4
 11e:	f47f af79 	bne.w	14 <usbh_msc_handle+0x14>
 122:	7a23      	ldrb	r3, [r4, #8]
 124:	fb05 4303 	mla	r3, r5, r3, r4
 128:	e7dd      	b.n	e6 <usbh_msc_handle+0xe6>
 12a:	fb05 4201 	mla	r2, r5, r1, r4
 12e:	3290      	adds	r2, #144	; 0x90
 130:	f7ff fffe 	bl	0 <usbh_msc_request_sense>
 134:	b9d8      	cbnz	r0, 16e <usbh_msc_handle+0x16e>
 136:	7a23      	ldrb	r3, [r4, #8]
 138:	fb05 4503 	mla	r5, r5, r3, r4
 13c:	f895 2090 	ldrb.w	r2, [r5, #144]	; 0x90
 140:	f002 02fb 	and.w	r2, r2, #251	; 0xfb
 144:	2a02      	cmp	r2, #2
 146:	d10a      	bne.n	15e <usbh_msc_handle+0x15e>
 148:	f8d4 0104 	ldr.w	r0, [r4, #260]	; 0x104
 14c:	89f1      	ldrh	r1, [r6, #14]
 14e:	1a09      	subs	r1, r1, r0
 150:	f242 700f 	movw	r0, #9999	; 0x270f
 154:	4281      	cmp	r1, r0
 156:	d802      	bhi.n	15e <usbh_msc_handle+0x15e>
 158:	f885 208c 	strb.w	r2, [r5, #140]	; 0x8c
 15c:	e75a      	b.n	14 <usbh_msc_handle+0x14>
 15e:	223c      	movs	r2, #60	; 0x3c
 160:	2101      	movs	r1, #1
 162:	fb02 4203 	mla	r2, r2, r3, r4
 166:	440b      	add	r3, r1
 168:	f882 108c 	strb.w	r1, [r2, #140]	; 0x8c
 16c:	e7cd      	b.n	10a <usbh_msc_handle+0x10a>
 16e:	2802      	cmp	r0, #2
 170:	d104      	bne.n	17c <usbh_msc_handle+0x17c>
 172:	7a23      	ldrb	r3, [r4, #8]
 174:	2208      	movs	r2, #8
 176:	fb05 4303 	mla	r3, r5, r3, r4
 17a:	e787      	b.n	8c <usbh_msc_handle+0x8c>
 17c:	2808      	cmp	r0, #8
 17e:	e7ce      	b.n	11e <usbh_msc_handle+0x11e>
 180:	3101      	adds	r1, #1
 182:	7221      	strb	r1, [r4, #8]
 184:	e746      	b.n	14 <usbh_msc_handle+0x14>
 186:	7223      	strb	r3, [r4, #8]
 188:	7422      	strb	r2, [r4, #16]
 18a:	e743      	b.n	14 <usbh_msc_handle+0x14>
 18c:	f8d0 3334 	ldr.w	r3, [r0, #820]	; 0x334
 190:	6bdb      	ldr	r3, [r3, #60]	; 0x3c
 192:	4798      	blx	r3
 194:	2000      	movs	r0, #0
 196:	e73e      	b.n	16 <usbh_msc_handle+0x16>

00000198 <usbh_msc_req>:
 198:	b538      	push	{r3, r4, r5, lr}
 19a:	f8d0 3330 	ldr.w	r3, [r0, #816]	; 0x330
 19e:	4605      	mov	r5, r0
 1a0:	699c      	ldr	r4, [r3, #24]
 1a2:	7ca3      	ldrb	r3, [r4, #18]
 1a4:	2b02      	cmp	r3, #2
 1a6:	d004      	beq.n	1b2 <usbh_msc_req+0x1a>
 1a8:	2b03      	cmp	r3, #3
 1aa:	d02d      	beq.n	208 <usbh_msc_req+0x70>
 1ac:	b10b      	cbz	r3, 1b2 <usbh_msc_req+0x1a>
 1ae:	2001      	movs	r0, #1
 1b0:	bd38      	pop	{r3, r4, r5, pc}
 1b2:	7e2b      	ldrb	r3, [r5, #24]
 1b4:	b95b      	cbnz	r3, 1ce <usbh_msc_req+0x36>
 1b6:	4a19      	ldr	r2, [pc, #100]	; (21c <usbh_msc_req+0x84>)
 1b8:	f105 0310 	add.w	r3, r5, #16
 1bc:	6810      	ldr	r0, [r2, #0]
 1be:	6851      	ldr	r1, [r2, #4]
 1c0:	2201      	movs	r2, #1
 1c2:	c303      	stmia	r3!, {r0, r1}
 1c4:	4628      	mov	r0, r5
 1c6:	f104 010c 	add.w	r1, r4, #12
 1ca:	f7ff fffe 	bl	0 <usbh_ctlstate_config>
 1ce:	4628      	mov	r0, r5
 1d0:	f7ff fffe 	bl	0 <usbh_ctl_handler>
 1d4:	b998      	cbnz	r0, 1fe <usbh_msc_req+0x66>
 1d6:	7b23      	ldrb	r3, [r4, #12]
 1d8:	253c      	movs	r5, #60	; 0x3c
 1da:	2b02      	cmp	r3, #2
 1dc:	bf88      	it	hi
 1de:	2302      	movhi	r3, #2
 1e0:	f04f 0102 	mov.w	r1, #2
 1e4:	bf98      	it	ls
 1e6:	3301      	addls	r3, #1
 1e8:	60e3      	str	r3, [r4, #12]
 1ea:	fb05 4200 	mla	r2, r5, r0, r4
 1ee:	3001      	adds	r0, #1
 1f0:	b2c0      	uxtb	r0, r0
 1f2:	4298      	cmp	r0, r3
 1f4:	f8a2 10c6 	strh.w	r1, [r2, #198]	; 0xc6
 1f8:	d3f7      	bcc.n	1ea <usbh_msc_req+0x52>
 1fa:	2000      	movs	r0, #0
 1fc:	e7d8      	b.n	1b0 <usbh_msc_req+0x18>
 1fe:	2803      	cmp	r0, #3
 200:	d1d6      	bne.n	1b0 <usbh_msc_req+0x18>
 202:	2300      	movs	r3, #0
 204:	60e3      	str	r3, [r4, #12]
 206:	e7f8      	b.n	1fa <usbh_msc_req+0x62>
 208:	2100      	movs	r1, #0
 20a:	7942      	ldrb	r2, [r0, #5]
 20c:	f7ff fffe 	bl	0 <usbh_clrfeature>
 210:	2800      	cmp	r0, #0
 212:	d1cc      	bne.n	1ae <usbh_msc_req+0x16>
 214:	7ce3      	ldrb	r3, [r4, #19]
 216:	74a3      	strb	r3, [r4, #18]
 218:	e7c9      	b.n	1ae <usbh_msc_req+0x16>
 21a:	bf00      	nop
 21c:	00000000 	.word	0x00000000

00000220 <usbh_msc_itf_deinit>:
 220:	b538      	push	{r3, r4, r5, lr}
 222:	f8d0 3330 	ldr.w	r3, [r0, #816]	; 0x330
 226:	4604      	mov	r4, r0
 228:	699d      	ldr	r5, [r3, #24]
 22a:	7869      	ldrb	r1, [r5, #1]
 22c:	b151      	cbz	r1, 244 <usbh_msc_itf_deinit+0x24>
 22e:	f8d0 033c 	ldr.w	r0, [r0, #828]	; 0x33c
 232:	f7ff fffe 	bl	0 <usb_pipe_halt>
 236:	7869      	ldrb	r1, [r5, #1]
 238:	f8d4 033c 	ldr.w	r0, [r4, #828]	; 0x33c
 23c:	f7ff fffe 	bl	0 <usbh_pipe_free>
 240:	2300      	movs	r3, #0
 242:	706b      	strb	r3, [r5, #1]
 244:	7829      	ldrb	r1, [r5, #0]
 246:	b151      	cbz	r1, 25e <usbh_msc_itf_deinit+0x3e>
 248:	f8d4 033c 	ldr.w	r0, [r4, #828]	; 0x33c
 24c:	f7ff fffe 	bl	0 <usb_pipe_halt>
 250:	7829      	ldrb	r1, [r5, #0]
 252:	f8d4 033c 	ldr.w	r0, [r4, #828]	; 0x33c
 256:	f7ff fffe 	bl	0 <usbh_pipe_free>
 25a:	2300      	movs	r3, #0
 25c:	702b      	strb	r3, [r5, #0]
 25e:	bd38      	pop	{r3, r4, r5, pc}

00000260 <usbh_msc_rdwr_process>:
 260:	223c      	movs	r2, #60	; 0x3c
 262:	b573      	push	{r0, r1, r4, r5, r6, lr}
 264:	f8d0 3330 	ldr.w	r3, [r0, #816]	; 0x330
 268:	434a      	muls	r2, r1
 26a:	699e      	ldr	r6, [r3, #24]
 26c:	460d      	mov	r5, r1
 26e:	18b4      	adds	r4, r6, r2
 270:	f894 308c 	ldrb.w	r3, [r4, #140]	; 0x8c
 274:	2b06      	cmp	r3, #6
 276:	d00d      	beq.n	294 <usbh_msc_rdwr_process+0x34>
 278:	2b07      	cmp	r3, #7
 27a:	d01a      	beq.n	2b2 <usbh_msc_rdwr_process+0x52>
 27c:	2b05      	cmp	r3, #5
 27e:	d123      	bne.n	2c8 <usbh_msc_rdwr_process+0x68>
 280:	3290      	adds	r2, #144	; 0x90
 282:	4432      	add	r2, r6
 284:	f7ff fffe 	bl	0 <usbh_msc_request_sense>
 288:	bb00      	cbnz	r0, 2cc <usbh_msc_rdwr_process+0x6c>
 28a:	f240 2301 	movw	r3, #513	; 0x201
 28e:	f8a4 308c 	strh.w	r3, [r4, #140]	; 0x8c
 292:	e020      	b.n	2d6 <usbh_msc_rdwr_process+0x76>
 294:	2300      	movs	r3, #0
 296:	461a      	mov	r2, r3
 298:	9300      	str	r3, [sp, #0]
 29a:	f7ff fffe 	bl	0 <usbh_msc_read10>
 29e:	b970      	cbnz	r0, 2be <usbh_msc_rdwr_process+0x5e>
 2a0:	233c      	movs	r3, #60	; 0x3c
 2a2:	fb03 6505 	mla	r5, r3, r5, r6
 2a6:	2301      	movs	r3, #1
 2a8:	2000      	movs	r0, #0
 2aa:	f885 308c 	strb.w	r3, [r5, #140]	; 0x8c
 2ae:	b002      	add	sp, #8
 2b0:	bd70      	pop	{r4, r5, r6, pc}
 2b2:	2300      	movs	r3, #0
 2b4:	461a      	mov	r2, r3
 2b6:	9300      	str	r3, [sp, #0]
 2b8:	f7ff fffe 	bl	0 <usbh_msc_write10>
 2bc:	e7ef      	b.n	29e <usbh_msc_rdwr_process+0x3e>
 2be:	2802      	cmp	r0, #2
 2c0:	d104      	bne.n	2cc <usbh_msc_rdwr_process+0x6c>
 2c2:	2305      	movs	r3, #5
 2c4:	f884 308c 	strb.w	r3, [r4, #140]	; 0x8c
 2c8:	2001      	movs	r0, #1
 2ca:	e7f0      	b.n	2ae <usbh_msc_rdwr_process+0x4e>
 2cc:	2804      	cmp	r0, #4
 2ce:	d1fb      	bne.n	2c8 <usbh_msc_rdwr_process+0x68>
 2d0:	2308      	movs	r3, #8
 2d2:	f884 308c 	strb.w	r3, [r4, #140]	; 0x8c
 2d6:	2002      	movs	r0, #2
 2d8:	e7e9      	b.n	2ae <usbh_msc_rdwr_process+0x4e>

000002da <usbh_msc_itf_init>:
 2da:	b5f7      	push	{r0, r1, r2, r4, r5, r6, r7, lr}
 2dc:	f100 071c 	add.w	r7, r0, #28
 2e0:	4605      	mov	r5, r0
 2e2:	2350      	movs	r3, #80	; 0x50
 2e4:	2206      	movs	r2, #6
 2e6:	2108      	movs	r1, #8
 2e8:	4638      	mov	r0, r7
 2ea:	f7ff fffe 	bl	0 <usbh_interface_find>
 2ee:	28ff      	cmp	r0, #255	; 0xff
 2f0:	4606      	mov	r6, r0
 2f2:	d106      	bne.n	302 <usbh_msc_itf_init+0x28>
 2f4:	f8d5 3334 	ldr.w	r3, [r5, #820]	; 0x334
 2f8:	6c1b      	ldr	r3, [r3, #64]	; 0x40
 2fa:	4798      	blx	r3
 2fc:	2002      	movs	r0, #2
 2fe:	b003      	add	sp, #12
 300:	bdf0      	pop	{r4, r5, r6, r7, pc}
 302:	4a37      	ldr	r2, [pc, #220]	; (3e0 <usbh_msc_itf_init+0x106>)
 304:	f44f 7384 	mov.w	r3, #264	; 0x108
 308:	4614      	mov	r4, r2
 30a:	2100      	movs	r1, #0
 30c:	3b01      	subs	r3, #1
 30e:	f802 1b01 	strb.w	r1, [r2], #1
 312:	d1fb      	bne.n	30c <usbh_msc_itf_init+0x32>
 314:	f8d5 3330 	ldr.w	r3, [r5, #816]	; 0x330
 318:	4631      	mov	r1, r6
 31a:	619c      	str	r4, [r3, #24]
 31c:	4638      	mov	r0, r7
 31e:	f7ff fffe 	bl	0 <usbh_interface_select>
 322:	2274      	movs	r2, #116	; 0x74
 324:	fb02 5306 	mla	r3, r2, r6, r5
 328:	fb02 5606 	mla	r6, r2, r6, r5
 32c:	f993 024a 	ldrsb.w	r0, [r3, #586]	; 0x24a
 330:	f893 124a 	ldrb.w	r1, [r3, #586]	; 0x24a
 334:	f8b3 324c 	ldrh.w	r3, [r3, #588]	; 0x24c
 338:	2800      	cmp	r0, #0
 33a:	bfad      	iteet	ge
 33c:	70e1      	strbge	r1, [r4, #3]
 33e:	70a1      	strblt	r1, [r4, #2]
 340:	80a3      	strhlt	r3, [r4, #4]
 342:	80e3      	strhge	r3, [r4, #6]
 344:	f8b6 3253 	ldrh.w	r3, [r6, #595]	; 0x253
 348:	f896 2251 	ldrb.w	r2, [r6, #593]	; 0x251
 34c:	f996 1251 	ldrsb.w	r1, [r6, #593]	; 0x251
 350:	2600      	movs	r6, #0
 352:	2900      	cmp	r1, #0
 354:	bfa8      	it	ge
 356:	70e2      	strbge	r2, [r4, #3]
 358:	78e1      	ldrb	r1, [r4, #3]
 35a:	f8d5 033c 	ldr.w	r0, [r5, #828]	; 0x33c
 35e:	bfba      	itte	lt
 360:	70a2      	strblt	r2, [r4, #2]
 362:	80a3      	strhlt	r3, [r4, #4]
 364:	80e3      	strhge	r3, [r4, #6]
 366:	8226      	strh	r6, [r4, #16]
 368:	74a6      	strb	r6, [r4, #18]
 36a:	f7ff fffe 	bl	0 <usbh_pipe_allocate>
 36e:	78a1      	ldrb	r1, [r4, #2]
 370:	7060      	strb	r0, [r4, #1]
 372:	f8d5 033c 	ldr.w	r0, [r5, #828]	; 0x33c
 376:	f7ff fffe 	bl	0 <usbh_pipe_allocate>
 37a:	7020      	strb	r0, [r4, #0]
 37c:	4628      	mov	r0, r5
 37e:	f7ff fffe 	bl	0 <usbh_msc_bot_init>
 382:	88e3      	ldrh	r3, [r4, #6]
 384:	4639      	mov	r1, r7
 386:	9300      	str	r3, [sp, #0]
 388:	7862      	ldrb	r2, [r4, #1]
 38a:	2302      	movs	r3, #2
 38c:	f8d5 033c 	ldr.w	r0, [r5, #828]	; 0x33c
 390:	f7ff fffe 	bl	0 <usbh_pipe_create>
 394:	88a3      	ldrh	r3, [r4, #4]
 396:	4639      	mov	r1, r7
 398:	9300      	str	r3, [sp, #0]
 39a:	7822      	ldrb	r2, [r4, #0]
 39c:	2302      	movs	r3, #2
 39e:	f8d5 033c 	ldr.w	r0, [r5, #828]	; 0x33c
 3a2:	f7ff fffe 	bl	0 <usbh_pipe_create>
 3a6:	212c      	movs	r1, #44	; 0x2c
 3a8:	f8d5 333c 	ldr.w	r3, [r5, #828]	; 0x33c
 3ac:	7862      	ldrb	r2, [r4, #1]
 3ae:	fb01 3202 	mla	r2, r1, r2, r3
 3b2:	f892 0119 	ldrb.w	r0, [r2, #281]	; 0x119
 3b6:	b160      	cbz	r0, 3d2 <usbh_msc_itf_init+0xf8>
 3b8:	f882 6130 	strb.w	r6, [r2, #304]	; 0x130
 3bc:	7822      	ldrb	r2, [r4, #0]
 3be:	fb01 3302 	mla	r3, r1, r2, r3
 3c2:	f893 2119 	ldrb.w	r2, [r3, #281]	; 0x119
 3c6:	b13a      	cbz	r2, 3d8 <usbh_msc_itf_init+0xfe>
 3c8:	2200      	movs	r2, #0
 3ca:	f883 2130 	strb.w	r2, [r3, #304]	; 0x130
 3ce:	2000      	movs	r0, #0
 3d0:	e795      	b.n	2fe <usbh_msc_itf_init+0x24>
 3d2:	f882 0131 	strb.w	r0, [r2, #305]	; 0x131
 3d6:	e7f1      	b.n	3bc <usbh_msc_itf_init+0xe2>
 3d8:	f883 2131 	strb.w	r2, [r3, #305]	; 0x131
 3dc:	e7f7      	b.n	3ce <usbh_msc_itf_init+0xf4>
 3de:	bf00      	nop
 3e0:	00000000 	.word	0x00000000

000003e4 <usbh_msc_lun_info_get>:
 3e4:	7803      	ldrb	r3, [r0, #0]
 3e6:	2b08      	cmp	r3, #8
 3e8:	d110      	bne.n	40c <usbh_msc_lun_info_get+0x28>
 3ea:	f8d0 3330 	ldr.w	r3, [r0, #816]	; 0x330
 3ee:	203c      	movs	r0, #60	; 0x3c
 3f0:	4341      	muls	r1, r0
 3f2:	699b      	ldr	r3, [r3, #24]
 3f4:	318c      	adds	r1, #140	; 0x8c
 3f6:	440b      	add	r3, r1
 3f8:	3a01      	subs	r2, #1
 3fa:	1819      	adds	r1, r3, r0
 3fc:	f813 0b01 	ldrb.w	r0, [r3], #1
 400:	428b      	cmp	r3, r1
 402:	f802 0f01 	strb.w	r0, [r2, #1]!
 406:	d1f9      	bne.n	3fc <usbh_msc_lun_info_get+0x18>
 408:	2000      	movs	r0, #0
 40a:	4770      	bx	lr
 40c:	2002      	movs	r0, #2
 40e:	4770      	bx	lr

00000410 <usbh_msc_read>:
 410:	e92d 43f7 	stmdb	sp!, {r0, r1, r2, r4, r5, r6, r7, r8, r9, lr}
 414:	f8d0 833c 	ldr.w	r8, [r0, #828]	; 0x33c
 418:	4696      	mov	lr, r2
 41a:	461a      	mov	r2, r3
 41c:	f8d8 30cc 	ldr.w	r3, [r8, #204]	; 0xcc
 420:	4604      	mov	r4, r0
 422:	460e      	mov	r6, r1
 424:	9f0a      	ldr	r7, [sp, #40]	; 0x28
 426:	b383      	cbz	r3, 48a <usbh_msc_read+0x7a>
 428:	7803      	ldrb	r3, [r0, #0]
 42a:	2b08      	cmp	r3, #8
 42c:	d12d      	bne.n	48a <usbh_msc_read+0x7a>
 42e:	f04f 0c3c 	mov.w	ip, #60	; 0x3c
 432:	f8d0 3330 	ldr.w	r3, [r0, #816]	; 0x330
 436:	699d      	ldr	r5, [r3, #24]
 438:	fb0c 5c01 	mla	ip, ip, r1, r5
 43c:	f89c 308c 	ldrb.w	r3, [ip, #140]	; 0x8c
 440:	2b01      	cmp	r3, #1
 442:	d122      	bne.n	48a <usbh_msc_read+0x7a>
 444:	2306      	movs	r3, #6
 446:	742b      	strb	r3, [r5, #16]
 448:	f88c 308c 	strb.w	r3, [ip, #140]	; 0x8c
 44c:	4673      	mov	r3, lr
 44e:	8169      	strh	r1, [r5, #10]
 450:	9700      	str	r7, [sp, #0]
 452:	f7ff fffe 	bl	0 <usbh_msc_read10>
 456:	f44f 737a 	mov.w	r3, #1000	; 0x3e8
 45a:	435f      	muls	r7, r3
 45c:	f8b4 900e 	ldrh.w	r9, [r4, #14]
 460:	4631      	mov	r1, r6
 462:	4620      	mov	r0, r4
 464:	f7ff fefc 	bl	260 <usbh_msc_rdwr_process>
 468:	2801      	cmp	r0, #1
 46a:	d003      	beq.n	474 <usbh_msc_read+0x64>
 46c:	2301      	movs	r3, #1
 46e:	2000      	movs	r0, #0
 470:	742b      	strb	r3, [r5, #16]
 472:	e00b      	b.n	48c <usbh_msc_read+0x7c>
 474:	89e3      	ldrh	r3, [r4, #14]
 476:	eba3 0309 	sub.w	r3, r3, r9
 47a:	42bb      	cmp	r3, r7
 47c:	d803      	bhi.n	486 <usbh_msc_read+0x76>
 47e:	f8d8 30cc 	ldr.w	r3, [r8, #204]	; 0xcc
 482:	2b00      	cmp	r3, #0
 484:	d1ec      	bne.n	460 <usbh_msc_read+0x50>
 486:	2301      	movs	r3, #1
 488:	742b      	strb	r3, [r5, #16]
 48a:	2002      	movs	r0, #2
 48c:	b003      	add	sp, #12
 48e:	e8bd 83f0 	ldmia.w	sp!, {r4, r5, r6, r7, r8, r9, pc}

00000492 <usbh_msc_write>:
 492:	e92d 43f7 	stmdb	sp!, {r0, r1, r2, r4, r5, r6, r7, r8, r9, lr}
 496:	f8d0 833c 	ldr.w	r8, [r0, #828]	; 0x33c
 49a:	4696      	mov	lr, r2
 49c:	461a      	mov	r2, r3
 49e:	f8d8 30cc 	ldr.w	r3, [r8, #204]	; 0xcc
 4a2:	4604      	mov	r4, r0
 4a4:	460e      	mov	r6, r1
 4a6:	9f0a      	ldr	r7, [sp, #40]	; 0x28
 4a8:	b383      	cbz	r3, 50c <usbh_msc_write+0x7a>
 4aa:	7803      	ldrb	r3, [r0, #0]
 4ac:	2b08      	cmp	r3, #8
 4ae:	d12d      	bne.n	50c <usbh_msc_write+0x7a>
 4b0:	f04f 0c3c 	mov.w	ip, #60	; 0x3c
 4b4:	f8d0 3330 	ldr.w	r3, [r0, #816]	; 0x330
 4b8:	699d      	ldr	r5, [r3, #24]
 4ba:	fb0c 5c01 	mla	ip, ip, r1, r5
 4be:	f89c 308c 	ldrb.w	r3, [ip, #140]	; 0x8c
 4c2:	2b01      	cmp	r3, #1
 4c4:	d122      	bne.n	50c <usbh_msc_write+0x7a>
 4c6:	2307      	movs	r3, #7
 4c8:	742b      	strb	r3, [r5, #16]
 4ca:	f88c 308c 	strb.w	r3, [ip, #140]	; 0x8c
 4ce:	4673      	mov	r3, lr
 4d0:	8169      	strh	r1, [r5, #10]
 4d2:	9700      	str	r7, [sp, #0]
 4d4:	f7ff fffe 	bl	0 <usbh_msc_write10>
 4d8:	f44f 737a 	mov.w	r3, #1000	; 0x3e8
 4dc:	435f      	muls	r7, r3
 4de:	f8b4 900e 	ldrh.w	r9, [r4, #14]
 4e2:	4631      	mov	r1, r6
 4e4:	4620      	mov	r0, r4
 4e6:	f7ff febb 	bl	260 <usbh_msc_rdwr_process>
 4ea:	2801      	cmp	r0, #1
 4ec:	d003      	beq.n	4f6 <usbh_msc_write+0x64>
 4ee:	2301      	movs	r3, #1
 4f0:	2000      	movs	r0, #0
 4f2:	742b      	strb	r3, [r5, #16]
 4f4:	e00b      	b.n	50e <usbh_msc_write+0x7c>
 4f6:	89e3      	ldrh	r3, [r4, #14]
 4f8:	eba3 0309 	sub.w	r3, r3, r9
 4fc:	42bb      	cmp	r3, r7
 4fe:	d803      	bhi.n	508 <usbh_msc_write+0x76>
 500:	f8d8 30cc 	ldr.w	r3, [r8, #204]	; 0xcc
 504:	2b00      	cmp	r3, #0
 506:	d1ec      	bne.n	4e2 <usbh_msc_write+0x50>
 508:	2301      	movs	r3, #1
 50a:	742b      	strb	r3, [r5, #16]
 50c:	2002      	movs	r0, #2
 50e:	b003      	add	sp, #12
 510:	e8bd 83f0 	ldmia.w	sp!, {r4, r5, r6, r7, r8, r9, pc}

usbh_msc_fatfs.o:     file format elf32-littlearm


Disassembly of section .text:

00000000 <disk_initialize>:
   0:	4b06      	ldr	r3, [pc, #24]	; (1c <disk_initialize+0x1c>)
   2:	f8d3 333c 	ldr.w	r3, [r3, #828]	; 0x33c
   6:	f8d3 20cc 	ldr.w	r2, [r3, #204]	; 0xcc
   a:	4b05      	ldr	r3, [pc, #20]	; (20 <disk_initialize+0x20>)
   c:	b11a      	cbz	r2, 16 <disk_initialize+0x16>
   e:	781a      	ldrb	r2, [r3, #0]
  10:	f002 02fe 	and.w	r2, r2, #254	; 0xfe
  14:	701a      	strb	r2, [r3, #0]
  16:	7818      	ldrb	r0, [r3, #0]
  18:	4770      	bx	lr
  1a:	bf00      	nop
	...

00000024 <disk_status>:
  24:	b918      	cbnz	r0, 2e <disk_status+0xa>
  26:	4b03      	ldr	r3, [pc, #12]	; (34 <disk_status+0x10>)
  28:	7818      	ldrb	r0, [r3, #0]
  2a:	b2c0      	uxtb	r0, r0
  2c:	4770      	bx	lr
  2e:	2001      	movs	r0, #1
  30:	4770      	bx	lr
  32:	bf00      	nop
  34:	00000000 	.word	0x00000000

00000038 <disk_read>:
  38:	e92d 41f3 	stmdb	sp!, {r0, r1, r4, r5, r6, r7, r8, lr}
  3c:	460d      	mov	r5, r1
  3e:	4616      	mov	r6, r2
  40:	461c      	mov	r4, r3
  42:	b9f0      	cbnz	r0, 82 <disk_read+0x4a>
  44:	b1eb      	cbz	r3, 82 <disk_read+0x4a>
  46:	4b12      	ldr	r3, [pc, #72]	; (90 <disk_read+0x58>)
  48:	7818      	ldrb	r0, [r3, #0]
  4a:	f010 0001 	ands.w	r0, r0, #1
  4e:	d11a      	bne.n	86 <disk_read+0x4e>
  50:	f8df 8040 	ldr.w	r8, [pc, #64]	; 94 <disk_read+0x5c>
  54:	f8d8 733c 	ldr.w	r7, [r8, #828]	; 0x33c
  58:	f8d7 30cc 	ldr.w	r3, [r7, #204]	; 0xcc
  5c:	b173      	cbz	r3, 7c <disk_read+0x44>
  5e:	462b      	mov	r3, r5
  60:	4632      	mov	r2, r6
  62:	2100      	movs	r1, #0
  64:	4640      	mov	r0, r8
  66:	9400      	str	r4, [sp, #0]
  68:	f7ff fffe 	bl	0 <usbh_msc_read>
  6c:	f8d7 30cc 	ldr.w	r3, [r7, #204]	; 0xcc
  70:	b15b      	cbz	r3, 8a <disk_read+0x52>
  72:	2801      	cmp	r0, #1
  74:	d0f3      	beq.n	5e <disk_read+0x26>
  76:	3800      	subs	r0, #0
  78:	bf18      	it	ne
  7a:	2001      	movne	r0, #1
  7c:	b002      	add	sp, #8
  7e:	e8bd 81f0 	ldmia.w	sp!, {r4, r5, r6, r7, r8, pc}
  82:	2004      	movs	r0, #4
  84:	e7fa      	b.n	7c <disk_read+0x44>
  86:	2003      	movs	r0, #3
  88:	e7f8      	b.n	7c <disk_read+0x44>
  8a:	2001      	movs	r0, #1
  8c:	e7f6      	b.n	7c <disk_read+0x44>
  8e:	bf00      	nop
	...

00000098 <disk_write>:
  98:	e92d 41f3 	stmdb	sp!, {r0, r1, r4, r5, r6, r7, r8, lr}
  9c:	460d      	mov	r5, r1
  9e:	4616      	mov	r6, r2
  a0:	461c      	mov	r4, r3
  a2:	b30b      	cbz	r3, e8 <disk_write+0x50>
  a4:	bb00      	cbnz	r0, e8 <disk_write+0x50>
  a6:	4b14      	ldr	r3, [pc, #80]	; (f8 <disk_write+0x60>)
  a8:	781a      	ldrb	r2, [r3, #0]
  aa:	07d2      	lsls	r2, r2, #31
  ac:	d41e      	bmi.n	ec <disk_write+0x54>
  ae:	7818      	ldrb	r0, [r3, #0]
  b0:	f010 0004 	ands.w	r0, r0, #4
  b4:	d11c      	bne.n	f0 <disk_write+0x58>
  b6:	f8df 8044 	ldr.w	r8, [pc, #68]	; fc <disk_write+0x64>
  ba:	f8d8 733c 	ldr.w	r7, [r8, #828]	; 0x33c
  be:	f8d7 30cc 	ldr.w	r3, [r7, #204]	; 0xcc
  c2:	b173      	cbz	r3, e2 <disk_write+0x4a>
  c4:	462b      	mov	r3, r5
  c6:	4632      	mov	r2, r6
  c8:	2100      	movs	r1, #0
  ca:	4640      	mov	r0, r8
  cc:	9400      	str	r4, [sp, #0]
  ce:	f7ff fffe 	bl	0 <usbh_msc_write>
  d2:	f8d7 30cc 	ldr.w	r3, [r7, #204]	; 0xcc
  d6:	b16b      	cbz	r3, f4 <disk_write+0x5c>
  d8:	2801      	cmp	r0, #1
  da:	d0f3      	beq.n	c4 <disk_write+0x2c>
  dc:	3800      	subs	r0, #0
  de:	bf18      	it	ne
  e0:	2001      	movne	r0, #1
  e2:	b002      	add	sp, #8
  e4:	e8bd 81f0 	ldmia.w	sp!, {r4, r5, r6, r7, r8, pc}
  e8:	2004      	movs	r0, #4
  ea:	e7fa      	b.n	e2 <disk_write+0x4a>
  ec:	2003      	movs	r0, #3
  ee:	e7f8      	b.n	e2 <disk_write+0x4a>
  f0:	2002      	movs	r0, #2
  f2:	e7f6      	b.n	e2 <disk_write+0x4a>
  f4:	2001      	movs	r0, #1
  f6:	e7f4      	b.n	e2 <disk_write+0x4a>
	...

00000100 <disk_ioctl>:
 100:	b530      	push	{r4, r5, lr}
 102:	4615      	mov	r5, r2
 104:	b091      	sub	sp, #68	; 0x44
 106:	bb40      	cbnz	r0, 15a <disk_ioctl+0x5a>
 108:	4b15      	ldr	r3, [pc, #84]	; (160 <disk_ioctl+0x60>)
 10a:	781c      	ldrb	r4, [r3, #0]
 10c:	f014 0401 	ands.w	r4, r4, #1
 110:	d121      	bne.n	156 <disk_ioctl+0x56>
 112:	2903      	cmp	r1, #3
 114:	d821      	bhi.n	15a <disk_ioctl+0x5a>
 116:	e8df f001 	tbb	[pc, r1]
 11a:	0209      	.short	0x0209
 11c:	1a0f      	.short	0x1a0f
 11e:	2100      	movs	r1, #0
 120:	4810      	ldr	r0, [pc, #64]	; (164 <disk_ioctl+0x64>)
 122:	aa01      	add	r2, sp, #4
 124:	f7ff fffe 	bl	0 <usbh_msc_lun_info_get>
 128:	b118      	cbz	r0, 132 <disk_ioctl+0x32>
 12a:	2401      	movs	r4, #1
 12c:	4620      	mov	r0, r4
 12e:	b011      	add	sp, #68	; 0x44
 130:	bd30      	pop	{r4, r5, pc}
 132:	9b05      	ldr	r3, [sp, #20]
 134:	602b      	str	r3, [r5, #0]
 136:	e7f9      	b.n	12c <disk_ioctl+0x2c>
 138:	2100      	movs	r1, #0
 13a:	480a      	ldr	r0, [pc, #40]	; (164 <disk_ioctl+0x64>)
 13c:	aa01      	add	r2, sp, #4
 13e:	f7ff fffe 	bl	0 <usbh_msc_lun_info_get>
 142:	2800      	cmp	r0, #0
 144:	d1f1      	bne.n	12a <disk_ioctl+0x2a>
 146:	f8bd 3018 	ldrh.w	r3, [sp, #24]
 14a:	802b      	strh	r3, [r5, #0]
 14c:	e7ee      	b.n	12c <disk_ioctl+0x2c>
 14e:	f44f 7300 	mov.w	r3, #512	; 0x200
 152:	6013      	str	r3, [r2, #0]
 154:	e7e9      	b.n	12a <disk_ioctl+0x2a>
 156:	2403      	movs	r4, #3
 158:	e7e8      	b.n	12c <disk_ioctl+0x2c>
 15a:	2404      	movs	r4, #4
 15c:	e7e6      	b.n	12c <disk_ioctl+0x2c>
 15e:	bf00      	nop
	...

00000168 <get_fattime>:
 168:	4800      	ldr	r0, [pc, #0]	; (16c <get_fattime+0x4>)
 16a:	4770      	bx	lr
 16c:	4e210000 	.word	0x4e210000

usbh_msc_scsi.o:     file format elf32-littlearm


Disassembly of section .text:

00000000 <usbh_msc_scsi_inquiry>:
   0:	b570      	push	{r4, r5, r6, lr}
   2:	f8d0 3330 	ldr.w	r3, [r0, #816]	; 0x330
   6:	460e      	mov	r6, r1
   8:	699c      	ldr	r4, [r3, #24]
   a:	4615      	mov	r5, r2
   c:	f894 305a 	ldrb.w	r3, [r4, #90]	; 0x5a
  10:	2b01      	cmp	r3, #1
  12:	d004      	beq.n	1e <usbh_msc_scsi_inquiry+0x1e>
  14:	2b02      	cmp	r3, #2
  16:	d026      	beq.n	66 <usbh_msc_scsi_inquiry+0x66>
  18:	2302      	movs	r3, #2
  1a:	4618      	mov	r0, r3
  1c:	bd70      	pop	{r4, r5, r6, pc}
  1e:	2224      	movs	r2, #36	; 0x24
  20:	6662      	str	r2, [r4, #100]	; 0x64
  22:	2280      	movs	r2, #128	; 0x80
  24:	f884 2068 	strb.w	r2, [r4, #104]	; 0x68
  28:	220a      	movs	r2, #10
  2a:	2000      	movs	r0, #0
  2c:	f884 206a 	strb.w	r2, [r4, #106]	; 0x6a
  30:	f104 0175 	add.w	r1, r4, #117	; 0x75
  34:	f104 026b 	add.w	r2, r4, #107	; 0x6b
  38:	f802 0b01 	strb.w	r0, [r2], #1
  3c:	4291      	cmp	r1, r2
  3e:	d1fb      	bne.n	38 <usbh_msc_scsi_inquiry+0x38>
  40:	2212      	movs	r2, #18
  42:	f884 206b 	strb.w	r2, [r4, #107]	; 0x6b
  46:	2224      	movs	r2, #36	; 0x24
  48:	f884 206f 	strb.w	r2, [r4, #111]	; 0x6f
  4c:	2201      	movs	r2, #1
  4e:	f884 2058 	strb.w	r2, [r4, #88]	; 0x58
  52:	2202      	movs	r2, #2
  54:	0176      	lsls	r6, r6, #5
  56:	f884 205a 	strb.w	r2, [r4, #90]	; 0x5a
  5a:	f104 0218 	add.w	r2, r4, #24
  5e:	f884 606c 	strb.w	r6, [r4, #108]	; 0x6c
  62:	6162      	str	r2, [r4, #20]
  64:	e7d9      	b.n	1a <usbh_msc_scsi_inquiry+0x1a>
  66:	f7ff fffe 	bl	0 <usbh_msc_bot_process>
  6a:	4603      	mov	r3, r0
  6c:	2800      	cmp	r0, #0
  6e:	d1d4      	bne.n	1a <usbh_msc_scsi_inquiry+0x1a>
  70:	462a      	mov	r2, r5
  72:	f105 0122 	add.w	r1, r5, #34	; 0x22
  76:	f802 0b01 	strb.w	r0, [r2], #1
  7a:	428a      	cmp	r2, r1
  7c:	d1fb      	bne.n	76 <usbh_msc_scsi_inquiry+0x76>
  7e:	6962      	ldr	r2, [r4, #20]
  80:	7811      	ldrb	r1, [r2, #0]
  82:	f001 011f 	and.w	r1, r1, #31
  86:	7069      	strb	r1, [r5, #1]
  88:	7811      	ldrb	r1, [r2, #0]
  8a:	0949      	lsrs	r1, r1, #5
  8c:	7029      	strb	r1, [r5, #0]
  8e:	4629      	mov	r1, r5
  90:	7850      	ldrb	r0, [r2, #1]
  92:	09c0      	lsrs	r0, r0, #7
  94:	f801 0f02 	strb.w	r0, [r1, #2]!
  98:	f102 0008 	add.w	r0, r2, #8
  9c:	3210      	adds	r2, #16
  9e:	f810 6b01 	ldrb.w	r6, [r0], #1
  a2:	4282      	cmp	r2, r0
  a4:	f801 6f01 	strb.w	r6, [r1, #1]!
  a8:	d1f9      	bne.n	9e <usbh_msc_scsi_inquiry+0x9e>
  aa:	6962      	ldr	r2, [r4, #20]
  ac:	f105 000b 	add.w	r0, r5, #11
  b0:	f102 0110 	add.w	r1, r2, #16
  b4:	3220      	adds	r2, #32
  b6:	f811 6b01 	ldrb.w	r6, [r1], #1
  ba:	4291      	cmp	r1, r2
  bc:	f800 6f01 	strb.w	r6, [r0, #1]!
  c0:	d1f9      	bne.n	b6 <usbh_msc_scsi_inquiry+0xb6>
  c2:	6962      	ldr	r2, [r4, #20]
  c4:	351c      	adds	r5, #28
  c6:	f102 0120 	add.w	r1, r2, #32
  ca:	3224      	adds	r2, #36	; 0x24
  cc:	f811 0b01 	ldrb.w	r0, [r1], #1
  d0:	428a      	cmp	r2, r1
  d2:	f805 0f01 	strb.w	r0, [r5, #1]!
  d6:	d1f9      	bne.n	cc <usbh_msc_scsi_inquiry+0xcc>
  d8:	e79f      	b.n	1a <usbh_msc_scsi_inquiry+0x1a>

000000da <usbh_msc_test_unitready>:
  da:	b410      	push	{r4}
  dc:	f8d0 3330 	ldr.w	r3, [r0, #816]	; 0x330
  e0:	699b      	ldr	r3, [r3, #24]
  e2:	f893 205a 	ldrb.w	r2, [r3, #90]	; 0x5a
  e6:	2a01      	cmp	r2, #1
  e8:	d005      	beq.n	f6 <usbh_msc_test_unitready+0x1c>
  ea:	2a02      	cmp	r2, #2
  ec:	d01b      	beq.n	126 <usbh_msc_test_unitready+0x4c>
  ee:	2202      	movs	r2, #2
  f0:	4610      	mov	r0, r2
  f2:	bc10      	pop	{r4}
  f4:	4770      	bx	lr
  f6:	2100      	movs	r1, #0
  f8:	200a      	movs	r0, #10
  fa:	6659      	str	r1, [r3, #100]	; 0x64
  fc:	f883 006a 	strb.w	r0, [r3, #106]	; 0x6a
 100:	f883 1068 	strb.w	r1, [r3, #104]	; 0x68
 104:	f103 006b 	add.w	r0, r3, #107	; 0x6b
 108:	f103 047b 	add.w	r4, r3, #123	; 0x7b
 10c:	f800 1b01 	strb.w	r1, [r0], #1
 110:	4284      	cmp	r4, r0
 112:	d1fb      	bne.n	10c <usbh_msc_test_unitready+0x32>
 114:	f883 106b 	strb.w	r1, [r3, #107]	; 0x6b
 118:	2101      	movs	r1, #1
 11a:	f883 1058 	strb.w	r1, [r3, #88]	; 0x58
 11e:	2102      	movs	r1, #2
 120:	f883 105a 	strb.w	r1, [r3, #90]	; 0x5a
 124:	e7e4      	b.n	f0 <usbh_msc_test_unitready+0x16>
 126:	bc10      	pop	{r4}
 128:	f7ff bffe 	b.w	0 <usbh_msc_bot_process>

0000012c <usbh_msc_read_capacity10>:
 12c:	b538      	push	{r3, r4, r5, lr}
 12e:	f8d0 3330 	ldr.w	r3, [r0, #816]	; 0x330
 132:	4615      	mov	r5, r2
 134:	699c      	ldr	r4, [r3, #24]
 136:	f894 305a 	ldrb.w	r3, [r4, #90]	; 0x5a
 13a:	2b01      	cmp	r3, #1
 13c:	d004      	beq.n	148 <usbh_msc_read_capacity10+0x1c>
 13e:	2b02      	cmp	r3, #2
 140:	d020      	beq.n	184 <usbh_msc_read_capacity10+0x58>
 142:	2302      	movs	r3, #2
 144:	4618      	mov	r0, r3
 146:	bd38      	pop	{r3, r4, r5, pc}
 148:	2208      	movs	r2, #8
 14a:	6662      	str	r2, [r4, #100]	; 0x64
 14c:	2280      	movs	r2, #128	; 0x80
 14e:	f884 2068 	strb.w	r2, [r4, #104]	; 0x68
 152:	220a      	movs	r2, #10
 154:	2000      	movs	r0, #0
 156:	f884 206a 	strb.w	r2, [r4, #106]	; 0x6a
 15a:	f104 017b 	add.w	r1, r4, #123	; 0x7b
 15e:	f104 026b 	add.w	r2, r4, #107	; 0x6b
 162:	f802 0b01 	strb.w	r0, [r2], #1
 166:	4291      	cmp	r1, r2
 168:	d1fb      	bne.n	162 <usbh_msc_read_capacity10+0x36>
 16a:	2225      	movs	r2, #37	; 0x25
 16c:	f884 206b 	strb.w	r2, [r4, #107]	; 0x6b
 170:	2201      	movs	r2, #1
 172:	f884 2058 	strb.w	r2, [r4, #88]	; 0x58
 176:	2202      	movs	r2, #2
 178:	f884 205a 	strb.w	r2, [r4, #90]	; 0x5a
 17c:	f104 0218 	add.w	r2, r4, #24
 180:	6162      	str	r2, [r4, #20]
 182:	e7df      	b.n	144 <usbh_msc_read_capacity10+0x18>
 184:	f7ff fffe 	bl	0 <usbh_msc_bot_process>
 188:	4603      	mov	r3, r0
 18a:	2800      	cmp	r0, #0
 18c:	d1da      	bne.n	144 <usbh_msc_read_capacity10+0x18>
 18e:	6961      	ldr	r1, [r4, #20]
 190:	680a      	ldr	r2, [r1, #0]
 192:	ba12      	rev	r2, r2
 194:	602a      	str	r2, [r5, #0]
 196:	88ca      	ldrh	r2, [r1, #6]
 198:	ba52      	rev16	r2, r2
 19a:	80aa      	strh	r2, [r5, #4]
 19c:	e7d2      	b.n	144 <usbh_msc_read_capacity10+0x18>

0000019e <usbh_msc_mode_sense6>:
 19e:	b410      	push	{r4}
 1a0:	f8d0 3330 	ldr.w	r3, [r0, #816]	; 0x330
 1a4:	699b      	ldr	r3, [r3, #24]
 1a6:	f893 205a 	ldrb.w	r2, [r3, #90]	; 0x5a
 1aa:	2a01      	cmp	r2, #1
 1ac:	d005      	beq.n	1ba <usbh_msc_mode_sense6+0x1c>
 1ae:	2a02      	cmp	r2, #2
 1b0:	d026      	beq.n	200 <usbh_msc_mode_sense6+0x62>
 1b2:	2202      	movs	r2, #2
 1b4:	4610      	mov	r0, r2
 1b6:	bc10      	pop	{r4}
 1b8:	4770      	bx	lr
 1ba:	213f      	movs	r1, #63	; 0x3f
 1bc:	6659      	str	r1, [r3, #100]	; 0x64
 1be:	2180      	movs	r1, #128	; 0x80
 1c0:	f883 1068 	strb.w	r1, [r3, #104]	; 0x68
 1c4:	210a      	movs	r1, #10
 1c6:	2400      	movs	r4, #0
 1c8:	f883 106a 	strb.w	r1, [r3, #106]	; 0x6a
 1cc:	f103 007b 	add.w	r0, r3, #123	; 0x7b
 1d0:	f103 016b 	add.w	r1, r3, #107	; 0x6b
 1d4:	f801 4b01 	strb.w	r4, [r1], #1
 1d8:	4288      	cmp	r0, r1
 1da:	d1fb      	bne.n	1d4 <usbh_msc_mode_sense6+0x36>
 1dc:	211a      	movs	r1, #26
 1de:	f883 106b 	strb.w	r1, [r3, #107]	; 0x6b
 1e2:	213f      	movs	r1, #63	; 0x3f
 1e4:	f883 106d 	strb.w	r1, [r3, #109]	; 0x6d
 1e8:	f883 106f 	strb.w	r1, [r3, #111]	; 0x6f
 1ec:	2101      	movs	r1, #1
 1ee:	f883 1058 	strb.w	r1, [r3, #88]	; 0x58
 1f2:	2102      	movs	r1, #2
 1f4:	f883 105a 	strb.w	r1, [r3, #90]	; 0x5a
 1f8:	f103 0118 	add.w	r1, r3, #24
 1fc:	6159      	str	r1, [r3, #20]
 1fe:	e7d9      	b.n	1b4 <usbh_msc_mode_sense6+0x16>
 200:	bc10      	pop	{r4}
 202:	f7ff bffe 	b.w	0 <usbh_msc_bot_process>

00000206 <usbh_msc_request_sense>:
 206:	b570      	push	{r4, r5, r6, lr}
 208:	f8d0 3330 	ldr.w	r3, [r0, #816]	; 0x330
 20c:	460e      	mov	r6, r1
 20e:	699c      	ldr	r4, [r3, #24]
 210:	4615      	mov	r5, r2
 212:	f894 305a 	ldrb.w	r3, [r4, #90]	; 0x5a
 216:	2b01      	cmp	r3, #1
 218:	d004      	beq.n	224 <usbh_msc_request_sense+0x1e>
 21a:	2b02      	cmp	r3, #2
 21c:	d026      	beq.n	26c <usbh_msc_request_sense+0x66>
 21e:	2302      	movs	r3, #2
 220:	4618      	mov	r0, r3
 222:	bd70      	pop	{r4, r5, r6, pc}
 224:	223f      	movs	r2, #63	; 0x3f
 226:	6662      	str	r2, [r4, #100]	; 0x64
 228:	2280      	movs	r2, #128	; 0x80
 22a:	f884 2068 	strb.w	r2, [r4, #104]	; 0x68
 22e:	220a      	movs	r2, #10
 230:	2000      	movs	r0, #0
 232:	f884 206a 	strb.w	r2, [r4, #106]	; 0x6a
 236:	f104 017b 	add.w	r1, r4, #123	; 0x7b
 23a:	f104 026b 	add.w	r2, r4, #107	; 0x6b
 23e:	f802 0b01 	strb.w	r0, [r2], #1
 242:	428a      	cmp	r2, r1
 244:	d1fb      	bne.n	23e <usbh_msc_request_sense+0x38>
 246:	2203      	movs	r2, #3
 248:	f884 206b 	strb.w	r2, [r4, #107]	; 0x6b
 24c:	223f      	movs	r2, #63	; 0x3f
 24e:	f884 206f 	strb.w	r2, [r4, #111]	; 0x6f
 252:	2201      	movs	r2, #1
 254:	f884 2058 	strb.w	r2, [r4, #88]	; 0x58
 258:	2202      	movs	r2, #2
 25a:	0176      	lsls	r6, r6, #5
 25c:	f884 205a 	strb.w	r2, [r4, #90]	; 0x5a
 260:	f104 0218 	add.w	r2, r4, #24
 264:	f884 606c 	strb.w	r6, [r4, #108]	; 0x6c
 268:	6162      	str	r2, [r4, #20]
 26a:	e7d9      	b.n	220 <usbh_msc_request_sense+0x1a>
 26c:	f7ff fffe 	bl	0 <usbh_msc_bot_process>
 270:	4603      	mov	r3, r0
 272:	2800      	cmp	r0, #0
 274:	d1d4      	bne.n	220 <usbh_msc_request_sense+0x1a>
 276:	6962      	ldr	r2, [r4, #20]
 278:	7891      	ldrb	r1, [r2, #2]
 27a:	f001 010f 	and.w	r1, r1, #15
 27e:	7029      	strb	r1, [r5, #0]
 280:	7b11      	ldrb	r1, [r2, #12]
 282:	7229      	strb	r1, [r5, #8]
 284:	7b52      	ldrb	r2, [r2, #13]
 286:	726a      	strb	r2, [r5, #9]
 288:	e7ca      	b.n	220 <usbh_msc_request_sense+0x1a>

0000028a <usbh_msc_write10>:
 28a:	b4f0      	push	{r4, r5, r6, r7}
 28c:	f8d0 4330 	ldr.w	r4, [r0, #816]	; 0x330
 290:	460d      	mov	r5, r1
 292:	69a4      	ldr	r4, [r4, #24]
 294:	9f04      	ldr	r7, [sp, #16]
 296:	f894 605a 	ldrb.w	r6, [r4, #90]	; 0x5a
 29a:	2e01      	cmp	r6, #1
 29c:	d005      	beq.n	2aa <usbh_msc_write10+0x20>
 29e:	2e02      	cmp	r6, #2
 2a0:	d034      	beq.n	30c <usbh_msc_write10+0x82>
 2a2:	2602      	movs	r6, #2
 2a4:	4630      	mov	r0, r6
 2a6:	bcf0      	pop	{r4, r5, r6, r7}
 2a8:	4770      	bx	lr
 2aa:	213c      	movs	r1, #60	; 0x3c
 2ac:	fb01 4505 	mla	r5, r1, r5, r4
 2b0:	f8b5 10a0 	ldrh.w	r1, [r5, #160]	; 0xa0
 2b4:	2000      	movs	r0, #0
 2b6:	4379      	muls	r1, r7
 2b8:	6661      	str	r1, [r4, #100]	; 0x64
 2ba:	210a      	movs	r1, #10
 2bc:	f884 0068 	strb.w	r0, [r4, #104]	; 0x68
 2c0:	f884 106a 	strb.w	r1, [r4, #106]	; 0x6a
 2c4:	f104 057b 	add.w	r5, r4, #123	; 0x7b
 2c8:	f104 016b 	add.w	r1, r4, #107	; 0x6b
 2cc:	f801 0b01 	strb.w	r0, [r1], #1
 2d0:	428d      	cmp	r5, r1
 2d2:	d1fb      	bne.n	2cc <usbh_msc_write10+0x42>
 2d4:	212a      	movs	r1, #42	; 0x2a
 2d6:	f884 106b 	strb.w	r1, [r4, #107]	; 0x6b
 2da:	f3c3 6107 	ubfx	r1, r3, #24, #8
 2de:	f884 106d 	strb.w	r1, [r4, #109]	; 0x6d
 2e2:	f3c3 4107 	ubfx	r1, r3, #16, #8
 2e6:	f884 106e 	strb.w	r1, [r4, #110]	; 0x6e
 2ea:	f884 3070 	strb.w	r3, [r4, #112]	; 0x70
 2ee:	f3c3 2107 	ubfx	r1, r3, #8, #8
 2f2:	ba7b      	rev16	r3, r7
 2f4:	f8a4 3072 	strh.w	r3, [r4, #114]	; 0x72
 2f8:	2301      	movs	r3, #1
 2fa:	f884 3058 	strb.w	r3, [r4, #88]	; 0x58
 2fe:	2302      	movs	r3, #2
 300:	f884 106f 	strb.w	r1, [r4, #111]	; 0x6f
 304:	f884 305a 	strb.w	r3, [r4, #90]	; 0x5a
 308:	6162      	str	r2, [r4, #20]
 30a:	e7cb      	b.n	2a4 <usbh_msc_write10+0x1a>
 30c:	bcf0      	pop	{r4, r5, r6, r7}
 30e:	f7ff bffe 	b.w	0 <usbh_msc_bot_process>

00000312 <usbh_msc_read10>:
 312:	b4f0      	push	{r4, r5, r6, r7}
 314:	f8d0 4330 	ldr.w	r4, [r0, #816]	; 0x330
 318:	460d      	mov	r5, r1
 31a:	69a4      	ldr	r4, [r4, #24]
 31c:	9f04      	ldr	r7, [sp, #16]
 31e:	f894 605a 	ldrb.w	r6, [r4, #90]	; 0x5a
 322:	2e01      	cmp	r6, #1
 324:	d005      	beq.n	332 <usbh_msc_read10+0x20>
 326:	2e02      	cmp	r6, #2
 328:	d035      	beq.n	396 <usbh_msc_read10+0x84>
 32a:	2602      	movs	r6, #2
 32c:	4630      	mov	r0, r6
 32e:	bcf0      	pop	{r4, r5, r6, r7}
 330:	4770      	bx	lr
 332:	213c      	movs	r1, #60	; 0x3c
 334:	fb01 4505 	mla	r5, r1, r5, r4
 338:	f8b5 10a0 	ldrh.w	r1, [r5, #160]	; 0xa0
 33c:	2500      	movs	r5, #0
 33e:	4379      	muls	r1, r7
 340:	6661      	str	r1, [r4, #100]	; 0x64
 342:	2180      	movs	r1, #128	; 0x80
 344:	f884 1068 	strb.w	r1, [r4, #104]	; 0x68
 348:	210a      	movs	r1, #10
 34a:	f104 007b 	add.w	r0, r4, #123	; 0x7b
 34e:	f884 106a 	strb.w	r1, [r4, #106]	; 0x6a
 352:	f104 016b 	add.w	r1, r4, #107	; 0x6b
 356:	f801 5b01 	strb.w	r5, [r1], #1
 35a:	4288      	cmp	r0, r1
 35c:	d1fb      	bne.n	356 <usbh_msc_read10+0x44>
 35e:	2128      	movs	r1, #40	; 0x28
 360:	f884 106b 	strb.w	r1, [r4, #107]	; 0x6b
 364:	f3c3 6107 	ubfx	r1, r3, #24, #8
 368:	f884 106d 	strb.w	r1, [r4, #109]	; 0x6d
 36c:	f3c3 4107 	ubfx	r1, r3, #16, #8
 370:	f884 106e 	strb.w	r1, [r4, #110]	; 0x6e
 374:	f884 3070 	strb.w	r3, [r4, #112]	; 0x70
 378:	f3c3 2107 	ubfx	r1, r3, #8, #8
 37c:	ba7b      	rev16	r3, r7
 37e:	f8a4 3072 	strh.w	r3, [r4, #114]	; 0x72
 382:	2301      	movs	r3, #1
 384:	f884 3058 	strb.w	r3, [r4, #88]	; 0x58
 388:	2302      	movs	r3, #2
 38a:	f884 106f 	strb.w	r1, [r4, #111]	; 0x6f
 38e:	f884 305a 	strb.w	r3, [r4, #90]	; 0x5a
 392:	6162      	str	r2, [r4, #20]
 394:	e7ca      	b.n	32c <usbh_msc_read10+0x1a>
 396:	bcf0      	pop	{r4, r5, r6, r7}
 398:	f7ff bffe 	b.w	0 <usbh_msc_bot_process>

drv_usb_core.o:     file format elf32-littlearm


Disassembly of section .text:

00000000 <usb_core_reset.isra.0>:
   0:	6903      	ldr	r3, [r0, #16]
   2:	f043 0301 	orr.w	r3, r3, #1
   6:	6103      	str	r3, [r0, #16]
   8:	6903      	ldr	r3, [r0, #16]
   a:	07db      	lsls	r3, r3, #31
   c:	d4fc      	bmi.n	8 <usb_core_reset.isra.0+0x8>
   e:	2003      	movs	r0, #3
  10:	f7ff bffe 	b.w	0 <usb_udelay>

00000014 <usb_basic_init>:
  14:	b538      	push	{r3, r4, r5, lr}
  16:	460b      	mov	r3, r1
  18:	2400      	movs	r4, #0
  1a:	2102      	movs	r1, #2
  1c:	2a01      	cmp	r2, #1
  1e:	7104      	strb	r4, [r0, #4]
  20:	7041      	strb	r1, [r0, #1]
  22:	7002      	strb	r2, [r0, #0]
  24:	d161      	bne.n	ea <usb_basic_init+0xd6>
  26:	f04f 45a0 	mov.w	r5, #1342177280	; 0x50000000
  2a:	f44f 6281 	mov.w	r2, #1032	; 0x408
  2e:	7141      	strb	r1, [r0, #5]
  30:	8042      	strh	r2, [r0, #2]
  32:	60c5      	str	r5, [r0, #12]
  34:	22bc      	movs	r2, #188	; 0xbc
  36:	80c4      	strh	r4, [r0, #6]
  38:	4621      	mov	r1, r4
  3a:	4618      	mov	r0, r3
  3c:	f7ff fffe 	bl	0 <memset>
  40:	4a2b      	ldr	r2, [pc, #172]	; (f0 <usb_basic_init+0xdc>)
  42:	6005      	str	r5, [r0, #0]
  44:	6042      	str	r2, [r0, #4]
  46:	f5a2 6280 	sub.w	r2, r2, #1024	; 0x400
  4a:	6082      	str	r2, [r0, #8]
  4c:	3240      	adds	r2, #64	; 0x40
  4e:	6782      	str	r2, [r0, #120]	; 0x78
  50:	f502 621c 	add.w	r2, r2, #2496	; 0x9c0
  54:	f8c0 20b8 	str.w	r2, [r0, #184]	; 0xb8
  58:	f5a2 62a0 	sub.w	r2, r2, #1280	; 0x500
  5c:	60c2      	str	r2, [r0, #12]
  5e:	f502 7200 	add.w	r2, r2, #512	; 0x200
  62:	6242      	str	r2, [r0, #36]	; 0x24
  64:	f5a2 72f0 	sub.w	r2, r2, #480	; 0x1e0
  68:	6102      	str	r2, [r0, #16]
  6a:	f502 7200 	add.w	r2, r2, #512	; 0x200
  6e:	6282      	str	r2, [r0, #40]	; 0x28
  70:	f5a2 72f0 	sub.w	r2, r2, #480	; 0x1e0
  74:	6142      	str	r2, [r0, #20]
  76:	f502 7200 	add.w	r2, r2, #512	; 0x200
  7a:	62c2      	str	r2, [r0, #44]	; 0x2c
  7c:	f5a2 72f0 	sub.w	r2, r2, #480	; 0x1e0
  80:	6182      	str	r2, [r0, #24]
  82:	f502 7200 	add.w	r2, r2, #512	; 0x200
  86:	6302      	str	r2, [r0, #48]	; 0x30
  88:	f5a2 62cc 	sub.w	r2, r2, #1632	; 0x660
  8c:	63c2      	str	r2, [r0, #60]	; 0x3c
  8e:	f502 6230 	add.w	r2, r2, #2816	; 0xb00
  92:	67c2      	str	r2, [r0, #124]	; 0x7c
  94:	f5a2 622e 	sub.w	r2, r2, #2784	; 0xae0
  98:	6402      	str	r2, [r0, #64]	; 0x40
  9a:	f502 52d7 	add.w	r2, r2, #6880	; 0x1ae0
  9e:	f8c0 2080 	str.w	r2, [r0, #128]	; 0x80
  a2:	f5a2 52d6 	sub.w	r2, r2, #6848	; 0x1ac0
  a6:	6442      	str	r2, [r0, #68]	; 0x44
  a8:	f502 522b 	add.w	r2, r2, #10944	; 0x2ac0
  ac:	f8c0 2084 	str.w	r2, [r0, #132]	; 0x84
  b0:	4a10      	ldr	r2, [pc, #64]	; (f4 <usb_basic_init+0xe0>)
  b2:	6482      	str	r2, [r0, #72]	; 0x48
  b4:	4a10      	ldr	r2, [pc, #64]	; (f8 <usb_basic_init+0xe4>)
  b6:	f8c0 2088 	str.w	r2, [r0, #136]	; 0x88
  ba:	f5a2 526a 	sub.w	r2, r2, #14976	; 0x3a80
  be:	64c2      	str	r2, [r0, #76]	; 0x4c
  c0:	f04f 2250 	mov.w	r2, #1342197760	; 0x50005000
  c4:	f8c0 208c 	str.w	r2, [r0, #140]	; 0x8c
  c8:	4a0c      	ldr	r2, [pc, #48]	; (fc <usb_basic_init+0xe8>)
  ca:	6502      	str	r2, [r0, #80]	; 0x50
  cc:	4a0c      	ldr	r2, [pc, #48]	; (100 <usb_basic_init+0xec>)
  ce:	f8c0 2090 	str.w	r2, [r0, #144]	; 0x90
  d2:	4a0c      	ldr	r2, [pc, #48]	; (104 <usb_basic_init+0xf0>)
  d4:	6542      	str	r2, [r0, #84]	; 0x54
  d6:	4a0c      	ldr	r2, [pc, #48]	; (108 <usb_basic_init+0xf4>)
  d8:	f8c0 2094 	str.w	r2, [r0, #148]	; 0x94
  dc:	4a0b      	ldr	r2, [pc, #44]	; (10c <usb_basic_init+0xf8>)
  de:	6582      	str	r2, [r0, #88]	; 0x58
  e0:	4a0b      	ldr	r2, [pc, #44]	; (110 <usb_basic_init+0xfc>)
  e2:	f8c0 2098 	str.w	r2, [r0, #152]	; 0x98
  e6:	4620      	mov	r0, r4
  e8:	bd38      	pop	{r3, r4, r5, pc}
  ea:	2001      	movs	r0, #1
  ec:	e7fc      	b.n	e8 <usb_basic_init+0xd4>
  ee:	bf00      	nop
  f0:	50000800 	.word	0x50000800
  f4:	50000560 	.word	0x50000560
  f8:	50004000 	.word	0x50004000
  fc:	500005a0 	.word	0x500005a0
 100:	50006000 	.word	0x50006000
 104:	500005c0 	.word	0x500005c0
 108:	50007000 	.word	0x50007000
 10c:	500005e0 	.word	0x500005e0
 110:	50008000 	.word	0x50008000

00000114 <usb_core_init>:
 114:	b530      	push	{r4, r5, lr}
 116:	b085      	sub	sp, #20
 118:	ac04      	add	r4, sp, #16
 11a:	e904 000f 	stmdb	r4, {r0, r1, r2, r3}
 11e:	f89d 3005 	ldrb.w	r3, [sp, #5]
 122:	9c08      	ldr	r4, [sp, #32]
 124:	2b01      	cmp	r3, #1
 126:	f89d 5006 	ldrb.w	r5, [sp, #6]
 12a:	6820      	ldr	r0, [r4, #0]
 12c:	d124      	bne.n	178 <usb_core_init+0x64>
 12e:	6b83      	ldr	r3, [r0, #56]	; 0x38
 130:	f423 3380 	bic.w	r3, r3, #65536	; 0x10000
 134:	6383      	str	r3, [r0, #56]	; 0x38
 136:	b11d      	cbz	r5, 140 <usb_core_init+0x2c>
 138:	6b83      	ldr	r3, [r0, #56]	; 0x38
 13a:	f443 1380 	orr.w	r3, r3, #1048576	; 0x100000
 13e:	6383      	str	r3, [r0, #56]	; 0x38
 140:	68c3      	ldr	r3, [r0, #12]
 142:	f423 1300 	bic.w	r3, r3, #2097152	; 0x200000
 146:	f023 0340 	bic.w	r3, r3, #64	; 0x40
 14a:	60c3      	str	r3, [r0, #12]
 14c:	68c3      	ldr	r3, [r0, #12]
 14e:	f423 1380 	bic.w	r3, r3, #1048576	; 0x100000
 152:	60c3      	str	r3, [r0, #12]
 154:	f7ff ff54 	bl	0 <usb_core_reset.isra.0>
 158:	f89d 3004 	ldrb.w	r3, [sp, #4]
 15c:	2b01      	cmp	r3, #1
 15e:	d108      	bne.n	172 <usb_core_init+0x5e>
 160:	6823      	ldr	r3, [r4, #0]
 162:	689a      	ldr	r2, [r3, #8]
 164:	f022 021e 	bic.w	r2, r2, #30
 168:	609a      	str	r2, [r3, #8]
 16a:	689a      	ldr	r2, [r3, #8]
 16c:	f042 022a 	orr.w	r2, r2, #42	; 0x2a
 170:	609a      	str	r2, [r3, #8]
 172:	2000      	movs	r0, #0
 174:	b005      	add	sp, #20
 176:	bd30      	pop	{r4, r5, pc}
 178:	68c3      	ldr	r3, [r0, #12]
 17a:	f043 0340 	orr.w	r3, r3, #64	; 0x40
 17e:	60c3      	str	r3, [r0, #12]
 180:	f7ff ff3e 	bl	0 <usb_core_reset.isra.0>
 184:	6823      	ldr	r3, [r4, #0]
 186:	6b9a      	ldr	r2, [r3, #56]	; 0x38
 188:	f442 2250 	orr.w	r2, r2, #851968	; 0xd0000
 18c:	639a      	str	r2, [r3, #56]	; 0x38
 18e:	6b9a      	ldr	r2, [r3, #56]	; 0x38
 190:	f442 1200 	orr.w	r2, r2, #2097152	; 0x200000
 194:	639a      	str	r2, [r3, #56]	; 0x38
 196:	b11d      	cbz	r5, 1a0 <usb_core_init+0x8c>
 198:	6b9a      	ldr	r2, [r3, #56]	; 0x38
 19a:	f442 1280 	orr.w	r2, r2, #1048576	; 0x100000
 19e:	639a      	str	r2, [r3, #56]	; 0x38
 1a0:	2014      	movs	r0, #20
 1a2:	f7ff fffe 	bl	0 <usb_mdelay>
 1a6:	e7d7      	b.n	158 <usb_core_init+0x44>

000001a8 <usb_txfifo_write>:
 1a8:	eb00 0082 	add.w	r0, r0, r2, lsl #2
 1ac:	3303      	adds	r3, #3
 1ae:	089b      	lsrs	r3, r3, #2
 1b0:	6fc2      	ldr	r2, [r0, #124]	; 0x7c
 1b2:	eb01 0383 	add.w	r3, r1, r3, lsl #2
 1b6:	4299      	cmp	r1, r3
 1b8:	d101      	bne.n	1be <usb_txfifo_write+0x16>
 1ba:	2000      	movs	r0, #0
 1bc:	4770      	bx	lr
 1be:	f851 0b04 	ldr.w	r0, [r1], #4
 1c2:	6010      	str	r0, [r2, #0]
 1c4:	e7f7      	b.n	1b6 <usb_txfifo_write+0xe>

000001c6 <usb_rxfifo_read>:
 1c6:	3203      	adds	r2, #3
 1c8:	0892      	lsrs	r2, r2, #2
 1ca:	6fc3      	ldr	r3, [r0, #124]	; 0x7c
 1cc:	eb01 0282 	add.w	r2, r1, r2, lsl #2
 1d0:	4291      	cmp	r1, r2
 1d2:	d101      	bne.n	1d8 <usb_rxfifo_read+0x12>
 1d4:	4608      	mov	r0, r1
 1d6:	4770      	bx	lr
 1d8:	6818      	ldr	r0, [r3, #0]
 1da:	f841 0b04 	str.w	r0, [r1], #4
 1de:	e7f7      	b.n	1d0 <usb_rxfifo_read+0xa>

000001e0 <usb_txfifo_flush>:
 1e0:	6803      	ldr	r3, [r0, #0]
 1e2:	0189      	lsls	r1, r1, #6
 1e4:	f041 0120 	orr.w	r1, r1, #32
 1e8:	b510      	push	{r4, lr}
 1ea:	6119      	str	r1, [r3, #16]
 1ec:	691c      	ldr	r4, [r3, #16]
 1ee:	f014 0420 	ands.w	r4, r4, #32
 1f2:	d1fb      	bne.n	1ec <usb_txfifo_flush+0xc>
 1f4:	2003      	movs	r0, #3
 1f6:	f7ff fffe 	bl	0 <usb_udelay>
 1fa:	4620      	mov	r0, r4
 1fc:	bd10      	pop	{r4, pc}

000001fe <usb_rxfifo_flush>:
 1fe:	2210      	movs	r2, #16
 200:	6803      	ldr	r3, [r0, #0]
 202:	b510      	push	{r4, lr}
 204:	611a      	str	r2, [r3, #16]
 206:	691c      	ldr	r4, [r3, #16]
 208:	f014 0410 	ands.w	r4, r4, #16
 20c:	d1fb      	bne.n	206 <usb_rxfifo_flush+0x8>
 20e:	2003      	movs	r0, #3
 210:	f7ff fffe 	bl	0 <usb_udelay>
 214:	4620      	mov	r0, r4
 216:	bd10      	pop	{r4, pc}

00000218 <usb_set_txfifo>:
 218:	6803      	ldr	r3, [r0, #0]
 21a:	b570      	push	{r4, r5, r6, lr}
 21c:	6a58      	ldr	r0, [r3, #36]	; 0x24
 21e:	0412      	lsls	r2, r2, #16
 220:	b911      	cbnz	r1, 228 <usb_set_txfifo+0x10>
 222:	4302      	orrs	r2, r0
 224:	629a      	str	r2, [r3, #40]	; 0x28
 226:	bd70      	pop	{r4, r5, r6, pc}
 228:	6a9c      	ldr	r4, [r3, #40]	; 0x28
 22a:	1e4e      	subs	r6, r1, #1
 22c:	eb00 4014 	add.w	r0, r0, r4, lsr #16
 230:	2400      	movs	r4, #0
 232:	42b4      	cmp	r4, r6
 234:	d305      	bcc.n	242 <usb_set_txfifo+0x2a>
 236:	313f      	adds	r1, #63	; 0x3f
 238:	4302      	orrs	r2, r0
 23a:	eb03 0381 	add.w	r3, r3, r1, lsl #2
 23e:	605a      	str	r2, [r3, #4]
 240:	e7f1      	b.n	226 <usb_set_txfifo+0xe>
 242:	f104 0540 	add.w	r5, r4, #64	; 0x40
 246:	eb03 0585 	add.w	r5, r3, r5, lsl #2
 24a:	686d      	ldr	r5, [r5, #4]
 24c:	3401      	adds	r4, #1
 24e:	eb00 4015 	add.w	r0, r0, r5, lsr #16
 252:	e7ee      	b.n	232 <usb_set_txfifo+0x1a>

00000254 <usb_curmode_set>:
 254:	6803      	ldr	r3, [r0, #0]
 256:	68da      	ldr	r2, [r3, #12]
 258:	f022 42c0 	bic.w	r2, r2, #1610612736	; 0x60000000
 25c:	60da      	str	r2, [r3, #12]
 25e:	b921      	cbnz	r1, 26a <usb_curmode_set+0x16>
 260:	68da      	ldr	r2, [r3, #12]
 262:	f042 4280 	orr.w	r2, r2, #1073741824	; 0x40000000
 266:	60da      	str	r2, [r3, #12]
 268:	4770      	bx	lr
 26a:	2901      	cmp	r1, #1
 26c:	d1fc      	bne.n	268 <usb_curmode_set+0x14>
 26e:	68da      	ldr	r2, [r3, #12]
 270:	f042 5200 	orr.w	r2, r2, #536870912	; 0x20000000
 274:	e7f7      	b.n	266 <usb_curmode_set+0x12>
 276:	bf00      	nop

drv_usb_host.o:     file format elf32-littlearm


Disassembly of section .text:

00000000 <usb_portvbus_switch>:
   0:	b538      	push	{r3, r4, r5, lr}
   2:	4605      	mov	r5, r0
   4:	4608      	mov	r0, r1
   6:	460c      	mov	r4, r1
   8:	f7ff fffe 	bl	0 <usb_vbus_drive>
   c:	f8d5 1088 	ldr.w	r1, [r5, #136]	; 0x88
  10:	680a      	ldr	r2, [r1, #0]
  12:	04d0      	lsls	r0, r2, #19
  14:	f022 030e 	bic.w	r3, r2, #14
  18:	d409      	bmi.n	2e <usb_portvbus_switch+0x2e>
  1a:	2c01      	cmp	r4, #1
  1c:	d101      	bne.n	22 <usb_portvbus_switch+0x22>
  1e:	f443 5380 	orr.w	r3, r3, #4096	; 0x1000
  22:	600b      	str	r3, [r1, #0]
  24:	20c8      	movs	r0, #200	; 0xc8
  26:	e8bd 4038 	ldmia.w	sp!, {r3, r4, r5, lr}
  2a:	f7ff bffe 	b.w	0 <usb_mdelay>
  2e:	2c00      	cmp	r4, #0
  30:	d1f7      	bne.n	22 <usb_portvbus_switch+0x22>
  32:	f422 5380 	bic.w	r3, r2, #4096	; 0x1000
  36:	f023 030e 	bic.w	r3, r3, #14
  3a:	e7f2      	b.n	22 <usb_portvbus_switch+0x22>

0000003c <usb_host_init>:
  3c:	b570      	push	{r4, r5, r6, lr}
  3e:	2500      	movs	r5, #0
  40:	f8d0 30c8 	ldr.w	r3, [r0, #200]	; 0xc8
  44:	6982      	ldr	r2, [r0, #24]
  46:	601d      	str	r5, [r3, #0]
  48:	6813      	ldr	r3, [r2, #0]
  4a:	f100 0610 	add.w	r6, r0, #16
  4e:	f023 0304 	bic.w	r3, r3, #4
  52:	4604      	mov	r4, r0
  54:	6013      	str	r3, [r2, #0]
  56:	2110      	movs	r1, #16
  58:	4630      	mov	r0, r6
  5a:	f7ff fffe 	bl	0 <usb_txfifo_flush>
  5e:	4630      	mov	r0, r6
  60:	f7ff fffe 	bl	0 <usb_rxfifo_flush>
  64:	f06f 4280 	mvn.w	r2, #1073741824	; 0x40000000
  68:	f04f 31ff 	mov.w	r1, #4294967295	; 0xffffffff
  6c:	6923      	ldr	r3, [r4, #16]
  6e:	619d      	str	r5, [r3, #24]
  70:	6059      	str	r1, [r3, #4]
  72:	615a      	str	r2, [r3, #20]
  74:	462b      	mov	r3, r5
  76:	78a6      	ldrb	r6, [r4, #2]
  78:	f104 0248 	add.w	r2, r4, #72	; 0x48
  7c:	429e      	cmp	r6, r3
  7e:	d81a      	bhi.n	b6 <usb_host_init+0x7a>
  80:	4620      	mov	r0, r4
  82:	2101      	movs	r1, #1
  84:	f7ff fffe 	bl	0 <usb_portvbus_switch>
  88:	6922      	ldr	r2, [r4, #16]
  8a:	4b0e      	ldr	r3, [pc, #56]	; (c4 <usb_host_init+0x88>)
  8c:	2000      	movs	r0, #0
  8e:	6193      	str	r3, [r2, #24]
  90:	7921      	ldrb	r1, [r4, #4]
  92:	6993      	ldr	r3, [r2, #24]
  94:	fab1 f181 	clz	r1, r1
  98:	0949      	lsrs	r1, r1, #5
  9a:	ea43 1301 	orr.w	r3, r3, r1, lsl #4
  9e:	f043 4386 	orr.w	r3, r3, #1124073472	; 0x43000000
  a2:	f443 1380 	orr.w	r3, r3, #1048576	; 0x100000
  a6:	6193      	str	r3, [r2, #24]
  a8:	6993      	ldr	r3, [r2, #24]
  aa:	f023 5300 	bic.w	r3, r3, #536870912	; 0x20000000
  ae:	f023 0308 	bic.w	r3, r3, #8
  b2:	6193      	str	r3, [r2, #24]
  b4:	bd70      	pop	{r4, r5, r6, pc}
  b6:	f852 0f04 	ldr.w	r0, [r2, #4]!
  ba:	3301      	adds	r3, #1
  bc:	6081      	str	r1, [r0, #8]
  be:	60c5      	str	r5, [r0, #12]
  c0:	e7dc      	b.n	7c <usb_host_init+0x40>
  c2:	bf00      	nop
  c4:	80000800 	.word	0x80000800

000000c8 <usb_port_reset>:
  c8:	b513      	push	{r0, r1, r4, lr}
  ca:	4604      	mov	r4, r0
  cc:	f8d0 2088 	ldr.w	r2, [r0, #136]	; 0x88
  d0:	2014      	movs	r0, #20
  d2:	6813      	ldr	r3, [r2, #0]
  d4:	f023 030e 	bic.w	r3, r3, #14
  d8:	9301      	str	r3, [sp, #4]
  da:	9b01      	ldr	r3, [sp, #4]
  dc:	f443 7380 	orr.w	r3, r3, #256	; 0x100
  e0:	6013      	str	r3, [r2, #0]
  e2:	f7ff fffe 	bl	0 <usb_mdelay>
  e6:	9b01      	ldr	r3, [sp, #4]
  e8:	f8d4 2088 	ldr.w	r2, [r4, #136]	; 0x88
  ec:	f423 7380 	bic.w	r3, r3, #256	; 0x100
  f0:	2014      	movs	r0, #20
  f2:	6013      	str	r3, [r2, #0]
  f4:	f7ff fffe 	bl	0 <usb_mdelay>
  f8:	2001      	movs	r0, #1
  fa:	b002      	add	sp, #8
  fc:	bd10      	pop	{r4, pc}

000000fe <usb_pipe_init>:
  fe:	2300      	movs	r3, #0
 100:	b5f7      	push	{r0, r1, r2, r4, r5, r6, r7, lr}
 102:	9300      	str	r3, [sp, #0]
 104:	2301      	movs	r3, #1
 106:	9301      	str	r3, [sp, #4]
 108:	eb00 0381 	add.w	r3, r0, r1, lsl #2
 10c:	6cdd      	ldr	r5, [r3, #76]	; 0x4c
 10e:	f04f 33ff 	mov.w	r3, #4294967295	; 0xffffffff
 112:	222c      	movs	r2, #44	; 0x2c
 114:	60ab      	str	r3, [r5, #8]
 116:	7903      	ldrb	r3, [r0, #4]
 118:	2b01      	cmp	r3, #1
 11a:	bf02      	ittt	eq
 11c:	9b01      	ldreq	r3, [sp, #4]
 11e:	f043 0304 	orreq.w	r3, r3, #4
 122:	9301      	streq	r3, [sp, #4]
 124:	fb02 0301 	mla	r3, r2, r1, r0
 128:	f893 3119 	ldrb.w	r3, [r3, #281]	; 0x119
 12c:	b11b      	cbz	r3, 136 <usb_pipe_init+0x38>
 12e:	9c01      	ldr	r4, [sp, #4]
 130:	f444 7480 	orr.w	r4, r4, #256	; 0x100
 134:	9401      	str	r4, [sp, #4]
 136:	fb02 0201 	mla	r2, r2, r1, r0
 13a:	f892 411a 	ldrb.w	r4, [r2, #282]	; 0x11a
 13e:	2c03      	cmp	r4, #3
 140:	d816      	bhi.n	170 <usb_pipe_init+0x72>
 142:	e8df f004 	tbb	[pc, r4]
 146:	5f02      	.short	0x5f02
 148:	5b02      	.short	0x5b02
 14a:	9a01      	ldr	r2, [sp, #4]
 14c:	f442 6293 	orr.w	r2, r2, #1176	; 0x498
 150:	9201      	str	r2, [sp, #4]
 152:	b96b      	cbnz	r3, 170 <usb_pipe_init+0x72>
 154:	9a01      	ldr	r2, [sp, #4]
 156:	f042 0240 	orr.w	r2, r2, #64	; 0x40
 15a:	9201      	str	r2, [sp, #4]
 15c:	222c      	movs	r2, #44	; 0x2c
 15e:	fb02 0201 	mla	r2, r2, r1, r0
 162:	f892 211e 	ldrb.w	r2, [r2, #286]	; 0x11e
 166:	b11a      	cbz	r2, 170 <usb_pipe_init+0x72>
 168:	9a01      	ldr	r2, [sp, #4]
 16a:	f042 0220 	orr.w	r2, r2, #32
 16e:	9201      	str	r2, [sp, #4]
 170:	9a01      	ldr	r2, [sp, #4]
 172:	6986      	ldr	r6, [r0, #24]
 174:	60ea      	str	r2, [r5, #12]
 176:	2201      	movs	r2, #1
 178:	69b7      	ldr	r7, [r6, #24]
 17a:	408a      	lsls	r2, r1
 17c:	433a      	orrs	r2, r7
 17e:	61b2      	str	r2, [r6, #24]
 180:	6906      	ldr	r6, [r0, #16]
 182:	03db      	lsls	r3, r3, #15
 184:	69b2      	ldr	r2, [r6, #24]
 186:	b29b      	uxth	r3, r3
 188:	f042 7200 	orr.w	r2, r2, #33554432	; 0x2000000
 18c:	61b2      	str	r2, [r6, #24]
 18e:	222c      	movs	r2, #44	; 0x2c
 190:	fb02 0001 	mla	r0, r2, r1, r0
 194:	f890 2111 	ldrb.w	r2, [r0, #273]	; 0x111
 198:	9e00      	ldr	r6, [sp, #0]
 19a:	0592      	lsls	r2, r2, #22
 19c:	f002 52fe 	and.w	r2, r2, #532676608	; 0x1fc00000
 1a0:	4332      	orrs	r2, r6
 1a2:	9200      	str	r2, [sp, #0]
 1a4:	f890 2118 	ldrb.w	r2, [r0, #280]	; 0x118
 1a8:	9900      	ldr	r1, [sp, #0]
 1aa:	02d2      	lsls	r2, r2, #11
 1ac:	f402 42f0 	and.w	r2, r2, #30720	; 0x7800
 1b0:	430a      	orrs	r2, r1
 1b2:	9200      	str	r2, [sp, #0]
 1b4:	9a00      	ldr	r2, [sp, #0]
 1b6:	4313      	orrs	r3, r2
 1b8:	9300      	str	r3, [sp, #0]
 1ba:	9a00      	ldr	r2, [sp, #0]
 1bc:	04a3      	lsls	r3, r4, #18
 1be:	f403 2340 	and.w	r3, r3, #786432	; 0xc0000
 1c2:	4313      	orrs	r3, r2
 1c4:	f8d0 2114 	ldr.w	r2, [r0, #276]	; 0x114
 1c8:	9300      	str	r3, [sp, #0]
 1ca:	f5a2 2180 	sub.w	r1, r2, #262144	; 0x40000
 1ce:	9b00      	ldr	r3, [sp, #0]
 1d0:	424a      	negs	r2, r1
 1d2:	414a      	adcs	r2, r1
 1d4:	ea43 4342 	orr.w	r3, r3, r2, lsl #17
 1d8:	9300      	str	r3, [sp, #0]
 1da:	f8b0 311c 	ldrh.w	r3, [r0, #284]	; 0x11c
 1de:	1ee0      	subs	r0, r4, #3
 1e0:	4244      	negs	r4, r0
 1e2:	4144      	adcs	r4, r0
 1e4:	2000      	movs	r0, #0
 1e6:	9a00      	ldr	r2, [sp, #0]
 1e8:	4313      	orrs	r3, r2
 1ea:	9300      	str	r3, [sp, #0]
 1ec:	9b00      	ldr	r3, [sp, #0]
 1ee:	ea43 7344 	orr.w	r3, r3, r4, lsl #29
 1f2:	9300      	str	r3, [sp, #0]
 1f4:	9b00      	ldr	r3, [sp, #0]
 1f6:	602b      	str	r3, [r5, #0]
 1f8:	b003      	add	sp, #12
 1fa:	bdf0      	pop	{r4, r5, r6, r7, pc}
 1fc:	9a01      	ldr	r2, [sp, #4]
 1fe:	f442 62d3 	orr.w	r2, r2, #1688	; 0x698
 202:	e7b4      	b.n	16e <usb_pipe_init+0x70>
 204:	9a01      	ldr	r2, [sp, #4]
 206:	f442 7208 	orr.w	r2, r2, #544	; 0x220
 20a:	9201      	str	r2, [sp, #4]
 20c:	2b00      	cmp	r3, #0
 20e:	d0af      	beq.n	170 <usb_pipe_init+0x72>
 210:	9a01      	ldr	r2, [sp, #4]
 212:	f042 0280 	orr.w	r2, r2, #128	; 0x80
 216:	e7aa      	b.n	16e <usb_pipe_init+0x70>

00000218 <usb_pipe_xfer>:
 218:	b5f7      	push	{r0, r1, r2, r4, r5, r6, r7, lr}
 21a:	460a      	mov	r2, r1
 21c:	212c      	movs	r1, #44	; 0x2c
 21e:	2300      	movs	r3, #0
 220:	fb01 0102 	mla	r1, r1, r2, r0
 224:	f8d1 4128 	ldr.w	r4, [r1, #296]	; 0x128
 228:	9301      	str	r3, [sp, #4]
 22a:	f8b1 311c 	ldrh.w	r3, [r1, #284]	; 0x11c
 22e:	2c00      	cmp	r4, #0
 230:	d051      	beq.n	2d6 <usb_pipe_xfer+0xbe>
 232:	3c01      	subs	r4, #1
 234:	441c      	add	r4, r3
 236:	fbb4 f4f3 	udiv	r4, r4, r3
 23a:	b2a4      	uxth	r4, r4
 23c:	2c8c      	cmp	r4, #140	; 0x8c
 23e:	d908      	bls.n	252 <usb_pipe_xfer+0x3a>
 240:	eb03 0483 	add.w	r4, r3, r3, lsl #2
 244:	ebc4 04c4 	rsb	r4, r4, r4, lsl #3
 248:	00a4      	lsls	r4, r4, #2
 24a:	b2a4      	uxth	r4, r4
 24c:	f8c1 4128 	str.w	r4, [r1, #296]	; 0x128
 250:	248c      	movs	r4, #140	; 0x8c
 252:	212c      	movs	r1, #44	; 0x2c
 254:	fb01 0502 	mla	r5, r1, r2, r0
 258:	f895 7119 	ldrb.w	r7, [r5, #281]	; 0x119
 25c:	b11f      	cbz	r7, 266 <usb_pipe_xfer+0x4e>
 25e:	4363      	muls	r3, r4
 260:	b29b      	uxth	r3, r3
 262:	f8c5 3128 	str.w	r3, [r5, #296]	; 0x128
 266:	fb01 0102 	mla	r1, r1, r2, r0
 26a:	eb00 0582 	add.w	r5, r0, r2, lsl #2
 26e:	f8d1 3128 	ldr.w	r3, [r1, #296]	; 0x128
 272:	6cee      	ldr	r6, [r5, #76]	; 0x4c
 274:	f8d1 5120 	ldr.w	r5, [r1, #288]	; 0x120
 278:	431d      	orrs	r5, r3
 27a:	ea45 45c4 	orr.w	r5, r5, r4, lsl #19
 27e:	6135      	str	r5, [r6, #16]
 280:	7904      	ldrb	r4, [r0, #4]
 282:	6985      	ldr	r5, [r0, #24]
 284:	2c01      	cmp	r4, #1
 286:	bf04      	itt	eq
 288:	f8d1 1124 	ldreq.w	r1, [r1, #292]	; 0x124
 28c:	6171      	streq	r1, [r6, #20]
 28e:	6831      	ldr	r1, [r6, #0]
 290:	9101      	str	r1, [sp, #4]
 292:	68a9      	ldr	r1, [r5, #8]
 294:	f011 0f01 	tst.w	r1, #1
 298:	9901      	ldr	r1, [sp, #4]
 29a:	bf0c      	ite	eq
 29c:	f041 5100 	orreq.w	r1, r1, #536870912	; 0x20000000
 2a0:	f021 5100 	bicne.w	r1, r1, #536870912	; 0x20000000
 2a4:	9101      	str	r1, [sp, #4]
 2a6:	9901      	ldr	r1, [sp, #4]
 2a8:	433c      	orrs	r4, r7
 2aa:	f041 4100 	orr.w	r1, r1, #2147483648	; 0x80000000
 2ae:	9101      	str	r1, [sp, #4]
 2b0:	9901      	ldr	r1, [sp, #4]
 2b2:	f021 4180 	bic.w	r1, r1, #1073741824	; 0x40000000
 2b6:	9101      	str	r1, [sp, #4]
 2b8:	9901      	ldr	r1, [sp, #4]
 2ba:	6031      	str	r1, [r6, #0]
 2bc:	d122      	bne.n	304 <usb_pipe_xfer+0xec>
 2be:	b30b      	cbz	r3, 304 <usb_pipe_xfer+0xec>
 2c0:	212c      	movs	r1, #44	; 0x2c
 2c2:	fb01 0102 	mla	r1, r1, r2, r0
 2c6:	f891 111a 	ldrb.w	r1, [r1, #282]	; 0x11a
 2ca:	2903      	cmp	r1, #3
 2cc:	d811      	bhi.n	2f2 <usb_pipe_xfer+0xda>
 2ce:	e8df f001 	tbb	[pc, r1]
 2d2:	1c04      	.short	0x1c04
 2d4:	1c04      	.short	0x1c04
 2d6:	2401      	movs	r4, #1
 2d8:	e7bb      	b.n	252 <usb_pipe_xfer+0x3a>
 2da:	6901      	ldr	r1, [r0, #16]
 2dc:	1cdc      	adds	r4, r3, #3
 2de:	6acd      	ldr	r5, [r1, #44]	; 0x2c
 2e0:	f3c4 048f 	ubfx	r4, r4, #2, #16
 2e4:	b2ad      	uxth	r5, r5
 2e6:	42a5      	cmp	r5, r4
 2e8:	d203      	bcs.n	2f2 <usb_pipe_xfer+0xda>
 2ea:	698c      	ldr	r4, [r1, #24]
 2ec:	f044 0420 	orr.w	r4, r4, #32
 2f0:	618c      	str	r4, [r1, #24]
 2f2:	212c      	movs	r1, #44	; 0x2c
 2f4:	fb01 0102 	mla	r1, r1, r2, r0
 2f8:	b29b      	uxth	r3, r3
 2fa:	f8d1 1124 	ldr.w	r1, [r1, #292]	; 0x124
 2fe:	3010      	adds	r0, #16
 300:	f7ff fffe 	bl	0 <usb_txfifo_write>
 304:	2000      	movs	r0, #0
 306:	b003      	add	sp, #12
 308:	bdf0      	pop	{r4, r5, r6, r7, pc}
 30a:	692c      	ldr	r4, [r5, #16]
 30c:	1cd9      	adds	r1, r3, #3
 30e:	b2a4      	uxth	r4, r4
 310:	f3c1 018f 	ubfx	r1, r1, #2, #16
 314:	428c      	cmp	r4, r1
 316:	bf3f      	itttt	cc
 318:	6904      	ldrcc	r4, [r0, #16]
 31a:	69a1      	ldrcc	r1, [r4, #24]
 31c:	f041 6180 	orrcc.w	r1, r1, #67108864	; 0x4000000
 320:	61a1      	strcc	r1, [r4, #24]
 322:	e7e6      	b.n	2f2 <usb_pipe_xfer+0xda>

00000324 <usb_pipe_halt>:
 324:	eb00 0181 	add.w	r1, r0, r1, lsl #2
 328:	6cca      	ldr	r2, [r1, #76]	; 0x4c
 32a:	b082      	sub	sp, #8
 32c:	6813      	ldr	r3, [r2, #0]
 32e:	9301      	str	r3, [sp, #4]
 330:	9901      	ldr	r1, [sp, #4]
 332:	9b01      	ldr	r3, [sp, #4]
 334:	f043 4340 	orr.w	r3, r3, #3221225472	; 0xc0000000
 338:	9301      	str	r3, [sp, #4]
 33a:	034b      	lsls	r3, r1, #13
 33c:	bf55      	itete	pl
 33e:	6903      	ldrpl	r3, [r0, #16]
 340:	6983      	ldrmi	r3, [r0, #24]
 342:	6adb      	ldrpl	r3, [r3, #44]	; 0x2c
 344:	691b      	ldrmi	r3, [r3, #16]
 346:	b29b      	uxth	r3, r3
 348:	b91b      	cbnz	r3, 352 <usb_pipe_halt+0x2e>
 34a:	9b01      	ldr	r3, [sp, #4]
 34c:	f023 4300 	bic.w	r3, r3, #2147483648	; 0x80000000
 350:	9301      	str	r3, [sp, #4]
 352:	2000      	movs	r0, #0
 354:	9b01      	ldr	r3, [sp, #4]
 356:	6013      	str	r3, [r2, #0]
 358:	b002      	add	sp, #8
 35a:	4770      	bx	lr

0000035c <usb_pipe_ping>:
 35c:	eb00 0081 	add.w	r0, r0, r1, lsl #2
 360:	6cc2      	ldr	r2, [r0, #76]	; 0x4c
 362:	4b05      	ldr	r3, [pc, #20]	; (378 <usb_pipe_ping+0x1c>)
 364:	2000      	movs	r0, #0
 366:	6113      	str	r3, [r2, #16]
 368:	6813      	ldr	r3, [r2, #0]
 36a:	f023 4380 	bic.w	r3, r3, #1073741824	; 0x40000000
 36e:	f043 4300 	orr.w	r3, r3, #2147483648	; 0x80000000
 372:	6013      	str	r3, [r2, #0]
 374:	4770      	bx	lr
 376:	bf00      	nop
 378:	80080000 	.word	0x80080000

0000037c <usb_host_stop>:
 37c:	b537      	push	{r0, r1, r2, r4, r5, lr}
 37e:	2300      	movs	r3, #0
 380:	f04f 31ff 	mov.w	r1, #4294967295	; 0xffffffff
 384:	6982      	ldr	r2, [r0, #24]
 386:	9301      	str	r3, [sp, #4]
 388:	6193      	str	r3, [r2, #24]
 38a:	6151      	str	r1, [r2, #20]
 38c:	7885      	ldrb	r5, [r0, #2]
 38e:	f100 0148 	add.w	r1, r0, #72	; 0x48
 392:	429d      	cmp	r5, r3
 394:	d80b      	bhi.n	3ae <usb_host_stop+0x32>
 396:	f100 0410 	add.w	r4, r0, #16
 39a:	4620      	mov	r0, r4
 39c:	f7ff fffe 	bl	0 <usb_rxfifo_flush>
 3a0:	2110      	movs	r1, #16
 3a2:	4620      	mov	r0, r4
 3a4:	b003      	add	sp, #12
 3a6:	e8bd 4030 	ldmia.w	sp!, {r4, r5, lr}
 3aa:	f7ff bffe 	b.w	0 <usb_txfifo_flush>
 3ae:	f851 4f04 	ldr.w	r4, [r1, #4]!
 3b2:	3301      	adds	r3, #1
 3b4:	6822      	ldr	r2, [r4, #0]
 3b6:	9201      	str	r2, [sp, #4]
 3b8:	9a01      	ldr	r2, [sp, #4]
 3ba:	f022 2280 	bic.w	r2, r2, #2147516416	; 0x80008000
 3be:	9201      	str	r2, [sp, #4]
 3c0:	9a01      	ldr	r2, [sp, #4]
 3c2:	f042 4280 	orr.w	r2, r2, #1073741824	; 0x40000000
 3c6:	9201      	str	r2, [sp, #4]
 3c8:	9a01      	ldr	r2, [sp, #4]
 3ca:	6022      	str	r2, [r4, #0]
 3cc:	e7e1      	b.n	392 <usb_host_stop+0x16>
 3ce:	bf00      	nop

drv_usbh_int.o:     file format elf32-littlearm


Disassembly of section .text:

00000000 <usbh_isr>:
   0:	b580      	push	{r7, lr}
   2:	b084      	sub	sp, #16
   4:	af00      	add	r7, sp, #0
   6:	6078      	str	r0, [r7, #4]
   8:	2300      	movs	r3, #0
   a:	60fb      	str	r3, [r7, #12]
   c:	2300      	movs	r3, #0
   e:	60bb      	str	r3, [r7, #8]
  10:	687b      	ldr	r3, [r7, #4]
  12:	691b      	ldr	r3, [r3, #16]
  14:	695b      	ldr	r3, [r3, #20]
  16:	f003 0301 	and.w	r3, r3, #1
  1a:	2b01      	cmp	r3, #1
  1c:	f040 8096 	bne.w	14c <usbh_isr+0x14c>
  20:	687b      	ldr	r3, [r7, #4]
  22:	3310      	adds	r3, #16
  24:	681b      	ldr	r3, [r3, #0]
  26:	4618      	mov	r0, r3
  28:	f000 fdf4 	bl	c14 <usb_coreintr_get.isra.0>
  2c:	4603      	mov	r3, r0
  2e:	60bb      	str	r3, [r7, #8]
  30:	68bb      	ldr	r3, [r7, #8]
  32:	2b00      	cmp	r3, #0
  34:	d101      	bne.n	3a <usbh_isr+0x3a>
  36:	2300      	movs	r3, #0
  38:	e089      	b.n	14e <usbh_isr+0x14e>
  3a:	68bb      	ldr	r3, [r7, #8]
  3c:	f003 0308 	and.w	r3, r3, #8
  40:	2b00      	cmp	r3, #0
  42:	d00b      	beq.n	5c <usbh_isr+0x5c>
  44:	4b44      	ldr	r3, [pc, #272]	; (158 <usbh_isr+0x158>)
  46:	681b      	ldr	r3, [r3, #0]
  48:	691b      	ldr	r3, [r3, #16]
  4a:	687a      	ldr	r2, [r7, #4]
  4c:	f8d2 23a4 	ldr.w	r2, [r2, #932]	; 0x3a4
  50:	4610      	mov	r0, r2
  52:	4798      	blx	r3
  54:	687b      	ldr	r3, [r7, #4]
  56:	691b      	ldr	r3, [r3, #16]
  58:	2208      	movs	r2, #8
  5a:	615a      	str	r2, [r3, #20]
  5c:	68bb      	ldr	r3, [r7, #8]
  5e:	f003 0310 	and.w	r3, r3, #16
  62:	2b00      	cmp	r3, #0
  64:	d006      	beq.n	74 <usbh_isr+0x74>
  66:	6878      	ldr	r0, [r7, #4]
  68:	f000 fc04 	bl	874 <usbh_int_rxfifonoempty>
  6c:	4602      	mov	r2, r0
  6e:	68fb      	ldr	r3, [r7, #12]
  70:	4313      	orrs	r3, r2
  72:	60fb      	str	r3, [r7, #12]
  74:	68bb      	ldr	r3, [r7, #8]
  76:	f003 0320 	and.w	r3, r3, #32
  7a:	2b00      	cmp	r3, #0
  7c:	d007      	beq.n	8e <usbh_isr+0x8e>
  7e:	2101      	movs	r1, #1
  80:	6878      	ldr	r0, [r7, #4]
  82:	f000 fcdf 	bl	a44 <usbh_int_txfifoempty>
  86:	4602      	mov	r2, r0
  88:	68fb      	ldr	r3, [r7, #12]
  8a:	4313      	orrs	r3, r2
  8c:	60fb      	str	r3, [r7, #12]
  8e:	68bb      	ldr	r3, [r7, #8]
  90:	f003 6380 	and.w	r3, r3, #67108864	; 0x4000000
  94:	2b00      	cmp	r3, #0
  96:	d007      	beq.n	a8 <usbh_isr+0xa8>
  98:	2100      	movs	r1, #0
  9a:	6878      	ldr	r0, [r7, #4]
  9c:	f000 fcd2 	bl	a44 <usbh_int_txfifoempty>
  a0:	4602      	mov	r2, r0
  a2:	68fb      	ldr	r3, [r7, #12]
  a4:	4313      	orrs	r3, r2
  a6:	60fb      	str	r3, [r7, #12]
  a8:	68bb      	ldr	r3, [r7, #8]
  aa:	f003 7300 	and.w	r3, r3, #33554432	; 0x2000000
  ae:	2b00      	cmp	r3, #0
  b0:	d006      	beq.n	c0 <usbh_isr+0xc0>
  b2:	6878      	ldr	r0, [r7, #4]
  b4:	f000 f92c 	bl	310 <usbh_int_pipe>
  b8:	4602      	mov	r2, r0
  ba:	68fb      	ldr	r3, [r7, #12]
  bc:	4313      	orrs	r3, r2
  be:	60fb      	str	r3, [r7, #12]
  c0:	68bb      	ldr	r3, [r7, #8]
  c2:	f003 7380 	and.w	r3, r3, #16777216	; 0x1000000
  c6:	2b00      	cmp	r3, #0
  c8:	d006      	beq.n	d8 <usbh_isr+0xd8>
  ca:	6878      	ldr	r0, [r7, #4]
  cc:	f000 f87b 	bl	1c6 <usbh_int_port>
  d0:	4602      	mov	r2, r0
  d2:	68fb      	ldr	r3, [r7, #12]
  d4:	4313      	orrs	r3, r2
  d6:	60fb      	str	r3, [r7, #12]
  d8:	68bb      	ldr	r3, [r7, #8]
  da:	f003 5300 	and.w	r3, r3, #536870912	; 0x20000000
  de:	2b00      	cmp	r3, #0
  e0:	d00c      	beq.n	fc <usbh_isr+0xfc>
  e2:	4b1d      	ldr	r3, [pc, #116]	; (158 <usbh_isr+0x158>)
  e4:	681b      	ldr	r3, [r3, #0]
  e6:	685b      	ldr	r3, [r3, #4]
  e8:	687a      	ldr	r2, [r7, #4]
  ea:	f8d2 23a4 	ldr.w	r2, [r2, #932]	; 0x3a4
  ee:	4610      	mov	r0, r2
  f0:	4798      	blx	r3
  f2:	687b      	ldr	r3, [r7, #4]
  f4:	691b      	ldr	r3, [r3, #16]
  f6:	f04f 5200 	mov.w	r2, #536870912	; 0x20000000
  fa:	615a      	str	r2, [r3, #20]
  fc:	68bb      	ldr	r3, [r7, #8]
  fe:	f403 1300 	and.w	r3, r3, #2097152	; 0x200000
 102:	2b00      	cmp	r3, #0
 104:	d00c      	beq.n	120 <usbh_isr+0x120>
 106:	687b      	ldr	r3, [r7, #4]
 108:	6cdb      	ldr	r3, [r3, #76]	; 0x4c
 10a:	681a      	ldr	r2, [r3, #0]
 10c:	687b      	ldr	r3, [r7, #4]
 10e:	6cdb      	ldr	r3, [r3, #76]	; 0x4c
 110:	f042 4240 	orr.w	r2, r2, #3221225472	; 0xc0000000
 114:	601a      	str	r2, [r3, #0]
 116:	687b      	ldr	r3, [r7, #4]
 118:	691b      	ldr	r3, [r3, #16]
 11a:	f44f 1200 	mov.w	r2, #2097152	; 0x200000
 11e:	615a      	str	r2, [r3, #20]
 120:	68bb      	ldr	r3, [r7, #8]
 122:	f003 4380 	and.w	r3, r3, #1073741824	; 0x40000000
 126:	2b00      	cmp	r3, #0
 128:	d008      	beq.n	13c <usbh_isr+0x13c>
 12a:	2101      	movs	r1, #1
 12c:	6878      	ldr	r0, [r7, #4]
 12e:	f7ff fffe 	bl	0 <usb_portvbus_switch>
 132:	687b      	ldr	r3, [r7, #4]
 134:	691b      	ldr	r3, [r3, #16]
 136:	f04f 4280 	mov.w	r2, #1073741824	; 0x40000000
 13a:	615a      	str	r2, [r3, #20]
 13c:	68bb      	ldr	r3, [r7, #8]
 13e:	2b00      	cmp	r3, #0
 140:	da04      	bge.n	14c <usbh_isr+0x14c>
 142:	687b      	ldr	r3, [r7, #4]
 144:	691b      	ldr	r3, [r3, #16]
 146:	f04f 4200 	mov.w	r2, #2147483648	; 0x80000000
 14a:	615a      	str	r2, [r3, #20]
 14c:	68fb      	ldr	r3, [r7, #12]
 14e:	4618      	mov	r0, r3
 150:	3710      	adds	r7, #16
 152:	46bd      	mov	sp, r7
 154:	bd80      	pop	{r7, pc}
 156:	bf00      	nop
 158:	00000000 	.word	0x00000000

0000015c <usb_pp_halt>:
 15c:	b580      	push	{r7, lr}
 15e:	b084      	sub	sp, #16
 160:	af00      	add	r7, sp, #0
 162:	60f8      	str	r0, [r7, #12]
 164:	607a      	str	r2, [r7, #4]
 166:	461a      	mov	r2, r3
 168:	460b      	mov	r3, r1
 16a:	72fb      	strb	r3, [r7, #11]
 16c:	4613      	mov	r3, r2
 16e:	72bb      	strb	r3, [r7, #10]
 170:	7afb      	ldrb	r3, [r7, #11]
 172:	68fa      	ldr	r2, [r7, #12]
 174:	3312      	adds	r3, #18
 176:	009b      	lsls	r3, r3, #2
 178:	4413      	add	r3, r2
 17a:	685b      	ldr	r3, [r3, #4]
 17c:	68da      	ldr	r2, [r3, #12]
 17e:	7afb      	ldrb	r3, [r7, #11]
 180:	68f9      	ldr	r1, [r7, #12]
 182:	3312      	adds	r3, #18
 184:	009b      	lsls	r3, r3, #2
 186:	440b      	add	r3, r1
 188:	685b      	ldr	r3, [r3, #4]
 18a:	f042 0202 	orr.w	r2, r2, #2
 18e:	60da      	str	r2, [r3, #12]
 190:	7afb      	ldrb	r3, [r7, #11]
 192:	4619      	mov	r1, r3
 194:	68f8      	ldr	r0, [r7, #12]
 196:	f7ff fffe 	bl	0 <usb_pipe_halt>
 19a:	7afb      	ldrb	r3, [r7, #11]
 19c:	68fa      	ldr	r2, [r7, #12]
 19e:	3312      	adds	r3, #18
 1a0:	009b      	lsls	r3, r3, #2
 1a2:	4413      	add	r3, r2
 1a4:	685b      	ldr	r3, [r3, #4]
 1a6:	687a      	ldr	r2, [r7, #4]
 1a8:	609a      	str	r2, [r3, #8]
 1aa:	7afb      	ldrb	r3, [r7, #11]
 1ac:	68fa      	ldr	r2, [r7, #12]
 1ae:	212c      	movs	r1, #44	; 0x2c
 1b0:	fb01 f303 	mul.w	r3, r1, r3
 1b4:	4413      	add	r3, r2
 1b6:	f503 739c 	add.w	r3, r3, #312	; 0x138
 1ba:	7aba      	ldrb	r2, [r7, #10]
 1bc:	701a      	strb	r2, [r3, #0]
 1be:	bf00      	nop
 1c0:	3710      	adds	r7, #16
 1c2:	46bd      	mov	sp, r7
 1c4:	bd80      	pop	{r7, pc}

000001c6 <usbh_int_port>:
 1c6:	b580      	push	{r7, lr}
 1c8:	b088      	sub	sp, #32
 1ca:	af00      	add	r7, sp, #0
 1cc:	6078      	str	r0, [r7, #4]
 1ce:	2300      	movs	r3, #0
 1d0:	61fb      	str	r3, [r7, #28]
 1d2:	2300      	movs	r3, #0
 1d4:	76fb      	strb	r3, [r7, #27]
 1d6:	687b      	ldr	r3, [r7, #4]
 1d8:	f8d3 3088 	ldr.w	r3, [r3, #136]	; 0x88
 1dc:	681b      	ldr	r3, [r3, #0]
 1de:	60fb      	str	r3, [r7, #12]
 1e0:	68fb      	ldr	r3, [r7, #12]
 1e2:	f023 030e 	bic.w	r3, r3, #14
 1e6:	60fb      	str	r3, [r7, #12]
 1e8:	687b      	ldr	r3, [r7, #4]
 1ea:	f8d3 3088 	ldr.w	r3, [r3, #136]	; 0x88
 1ee:	681b      	ldr	r3, [r3, #0]
 1f0:	f003 0302 	and.w	r3, r3, #2
 1f4:	2b00      	cmp	r3, #0
 1f6:	d00f      	beq.n	218 <usbh_int_port+0x52>
 1f8:	68fb      	ldr	r3, [r7, #12]
 1fa:	f043 0302 	orr.w	r3, r3, #2
 1fe:	60fb      	str	r3, [r7, #12]
 200:	4b42      	ldr	r3, [pc, #264]	; (30c <usbh_int_port+0x146>)
 202:	681b      	ldr	r3, [r3, #0]
 204:	681b      	ldr	r3, [r3, #0]
 206:	687a      	ldr	r2, [r7, #4]
 208:	f8d2 23a4 	ldr.w	r2, [r2, #932]	; 0x3a4
 20c:	4610      	mov	r0, r2
 20e:	4798      	blx	r3
 210:	69fb      	ldr	r3, [r7, #28]
 212:	f043 0301 	orr.w	r3, r3, #1
 216:	61fb      	str	r3, [r7, #28]
 218:	687b      	ldr	r3, [r7, #4]
 21a:	f8d3 3088 	ldr.w	r3, [r3, #136]	; 0x88
 21e:	681b      	ldr	r3, [r3, #0]
 220:	f003 0308 	and.w	r3, r3, #8
 224:	2b00      	cmp	r3, #0
 226:	d060      	beq.n	2ea <usbh_int_port+0x124>
 228:	68fb      	ldr	r3, [r7, #12]
 22a:	f043 0308 	orr.w	r3, r3, #8
 22e:	60fb      	str	r3, [r7, #12]
 230:	687b      	ldr	r3, [r7, #4]
 232:	f8d3 3088 	ldr.w	r3, [r3, #136]	; 0x88
 236:	681b      	ldr	r3, [r3, #0]
 238:	f003 0304 	and.w	r3, r3, #4
 23c:	2b00      	cmp	r3, #0
 23e:	d04c      	beq.n	2da <usbh_int_port+0x114>
 240:	6878      	ldr	r0, [r7, #4]
 242:	f000 fce1 	bl	c08 <usb_curspeed_get>
 246:	6178      	str	r0, [r7, #20]
 248:	687b      	ldr	r3, [r7, #4]
 24a:	699b      	ldr	r3, [r3, #24]
 24c:	681b      	ldr	r3, [r3, #0]
 24e:	f003 0303 	and.w	r3, r3, #3
 252:	613b      	str	r3, [r7, #16]
 254:	687b      	ldr	r3, [r7, #4]
 256:	2201      	movs	r2, #1
 258:	f8c3 20cc 	str.w	r2, [r3, #204]	; 0xcc
 25c:	697b      	ldr	r3, [r7, #20]
 25e:	f5b3 2f80 	cmp.w	r3, #262144	; 0x40000
 262:	d112      	bne.n	28a <usbh_int_port+0xc4>
 264:	687b      	ldr	r3, [r7, #4]
 266:	699b      	ldr	r3, [r3, #24]
 268:	f241 7270 	movw	r2, #6000	; 0x1770
 26c:	605a      	str	r2, [r3, #4]
 26e:	693b      	ldr	r3, [r7, #16]
 270:	2b02      	cmp	r3, #2
 272:	d01f      	beq.n	2b4 <usbh_int_port+0xee>
 274:	687b      	ldr	r3, [r7, #4]
 276:	795b      	ldrb	r3, [r3, #5]
 278:	2b02      	cmp	r3, #2
 27a:	d103      	bne.n	284 <usbh_int_port+0xbe>
 27c:	2102      	movs	r1, #2
 27e:	6878      	ldr	r0, [r7, #4]
 280:	f000 fcb9 	bl	bf6 <usb_phyclock_config>
 284:	2301      	movs	r3, #1
 286:	76fb      	strb	r3, [r7, #27]
 288:	e014      	b.n	2b4 <usbh_int_port+0xee>
 28a:	697b      	ldr	r3, [r7, #20]
 28c:	f5b3 3f00 	cmp.w	r3, #131072	; 0x20000
 290:	d10e      	bne.n	2b0 <usbh_int_port+0xea>
 292:	687b      	ldr	r3, [r7, #4]
 294:	699b      	ldr	r3, [r3, #24]
 296:	f64b 3280 	movw	r2, #48000	; 0xbb80
 29a:	605a      	str	r2, [r3, #4]
 29c:	693b      	ldr	r3, [r7, #16]
 29e:	2b01      	cmp	r3, #1
 2a0:	d003      	beq.n	2aa <usbh_int_port+0xe4>
 2a2:	2101      	movs	r1, #1
 2a4:	6878      	ldr	r0, [r7, #4]
 2a6:	f000 fca6 	bl	bf6 <usb_phyclock_config>
 2aa:	2301      	movs	r3, #1
 2ac:	76fb      	strb	r3, [r7, #27]
 2ae:	e001      	b.n	2b4 <usbh_int_port+0xee>
 2b0:	2301      	movs	r3, #1
 2b2:	76fb      	strb	r3, [r7, #27]
 2b4:	4b15      	ldr	r3, [pc, #84]	; (30c <usbh_int_port+0x146>)
 2b6:	681b      	ldr	r3, [r3, #0]
 2b8:	689b      	ldr	r3, [r3, #8]
 2ba:	687a      	ldr	r2, [r7, #4]
 2bc:	f8d2 23a4 	ldr.w	r2, [r2, #932]	; 0x3a4
 2c0:	4610      	mov	r0, r2
 2c2:	4798      	blx	r3
 2c4:	687b      	ldr	r3, [r7, #4]
 2c6:	691b      	ldr	r3, [r3, #16]
 2c8:	699b      	ldr	r3, [r3, #24]
 2ca:	687a      	ldr	r2, [r7, #4]
 2cc:	6912      	ldr	r2, [r2, #16]
 2ce:	f043 5300 	orr.w	r3, r3, #536870912	; 0x20000000
 2d2:	f043 0308 	orr.w	r3, r3, #8
 2d6:	6193      	str	r3, [r2, #24]
 2d8:	e007      	b.n	2ea <usbh_int_port+0x124>
 2da:	4b0c      	ldr	r3, [pc, #48]	; (30c <usbh_int_port+0x146>)
 2dc:	681b      	ldr	r3, [r3, #0]
 2de:	68db      	ldr	r3, [r3, #12]
 2e0:	687a      	ldr	r2, [r7, #4]
 2e2:	f8d2 23a4 	ldr.w	r2, [r2, #932]	; 0x3a4
 2e6:	4610      	mov	r0, r2
 2e8:	4798      	blx	r3
 2ea:	7efb      	ldrb	r3, [r7, #27]
 2ec:	2b00      	cmp	r3, #0
 2ee:	d002      	beq.n	2f6 <usbh_int_port+0x130>
 2f0:	6878      	ldr	r0, [r7, #4]
 2f2:	f7ff fffe 	bl	0 <usb_port_reset>
 2f6:	687b      	ldr	r3, [r7, #4]
 2f8:	f8d3 3088 	ldr.w	r3, [r3, #136]	; 0x88
 2fc:	68fa      	ldr	r2, [r7, #12]
 2fe:	601a      	str	r2, [r3, #0]
 300:	69fb      	ldr	r3, [r7, #28]
 302:	4618      	mov	r0, r3
 304:	3720      	adds	r7, #32
 306:	46bd      	mov	sp, r7
 308:	bd80      	pop	{r7, pc}
 30a:	bf00      	nop
 30c:	00000000 	.word	0x00000000

00000310 <usbh_int_pipe>:
 310:	b580      	push	{r7, lr}
 312:	b084      	sub	sp, #16
 314:	af00      	add	r7, sp, #0
 316:	6078      	str	r0, [r7, #4]
 318:	2300      	movs	r3, #0
 31a:	60fb      	str	r3, [r7, #12]
 31c:	2300      	movs	r3, #0
 31e:	60bb      	str	r3, [r7, #8]
 320:	2300      	movs	r3, #0
 322:	60fb      	str	r3, [r7, #12]
 324:	e02a      	b.n	37c <usbh_int_pipe+0x6c>
 326:	687b      	ldr	r3, [r7, #4]
 328:	699b      	ldr	r3, [r3, #24]
 32a:	695a      	ldr	r2, [r3, #20]
 32c:	2101      	movs	r1, #1
 32e:	68fb      	ldr	r3, [r7, #12]
 330:	fa01 f303 	lsl.w	r3, r1, r3
 334:	4013      	ands	r3, r2
 336:	f3c3 030b 	ubfx	r3, r3, #0, #12
 33a:	2b00      	cmp	r3, #0
 33c:	d01b      	beq.n	376 <usbh_int_pipe+0x66>
 33e:	687a      	ldr	r2, [r7, #4]
 340:	68fb      	ldr	r3, [r7, #12]
 342:	3312      	adds	r3, #18
 344:	009b      	lsls	r3, r3, #2
 346:	4413      	add	r3, r2
 348:	685b      	ldr	r3, [r3, #4]
 34a:	681b      	ldr	r3, [r3, #0]
 34c:	f403 4300 	and.w	r3, r3, #32768	; 0x8000
 350:	2b00      	cmp	r3, #0
 352:	d008      	beq.n	366 <usbh_int_pipe+0x56>
 354:	68f9      	ldr	r1, [r7, #12]
 356:	6878      	ldr	r0, [r7, #4]
 358:	f000 f81b 	bl	392 <usbh_int_pipe_in>
 35c:	4602      	mov	r2, r0
 35e:	68bb      	ldr	r3, [r7, #8]
 360:	4313      	orrs	r3, r2
 362:	60bb      	str	r3, [r7, #8]
 364:	e007      	b.n	376 <usbh_int_pipe+0x66>
 366:	68f9      	ldr	r1, [r7, #12]
 368:	6878      	ldr	r0, [r7, #4]
 36a:	f000 f954 	bl	616 <usbh_int_pipe_out>
 36e:	4602      	mov	r2, r0
 370:	68bb      	ldr	r3, [r7, #8]
 372:	4313      	orrs	r3, r2
 374:	60bb      	str	r3, [r7, #8]
 376:	68fb      	ldr	r3, [r7, #12]
 378:	3301      	adds	r3, #1
 37a:	60fb      	str	r3, [r7, #12]
 37c:	687b      	ldr	r3, [r7, #4]
 37e:	789b      	ldrb	r3, [r3, #2]
 380:	461a      	mov	r2, r3
 382:	68fb      	ldr	r3, [r7, #12]
 384:	4293      	cmp	r3, r2
 386:	d3ce      	bcc.n	326 <usbh_int_pipe+0x16>
 388:	68bb      	ldr	r3, [r7, #8]
 38a:	4618      	mov	r0, r3
 38c:	3710      	adds	r7, #16
 38e:	46bd      	mov	sp, r7
 390:	bd80      	pop	{r7, pc}

00000392 <usbh_int_pipe_in>:
 392:	b580      	push	{r7, lr}
 394:	b086      	sub	sp, #24
 396:	af00      	add	r7, sp, #0
 398:	6078      	str	r0, [r7, #4]
 39a:	6039      	str	r1, [r7, #0]
 39c:	687a      	ldr	r2, [r7, #4]
 39e:	683b      	ldr	r3, [r7, #0]
 3a0:	3312      	adds	r3, #18
 3a2:	009b      	lsls	r3, r3, #2
 3a4:	4413      	add	r3, r2
 3a6:	685b      	ldr	r3, [r3, #4]
 3a8:	617b      	str	r3, [r7, #20]
 3aa:	683b      	ldr	r3, [r7, #0]
 3ac:	222c      	movs	r2, #44	; 0x2c
 3ae:	fb02 f303 	mul.w	r3, r2, r3
 3b2:	f503 7384 	add.w	r3, r3, #264	; 0x108
 3b6:	687a      	ldr	r2, [r7, #4]
 3b8:	4413      	add	r3, r2
 3ba:	3308      	adds	r3, #8
 3bc:	613b      	str	r3, [r7, #16]
 3be:	697b      	ldr	r3, [r7, #20]
 3c0:	689a      	ldr	r2, [r3, #8]
 3c2:	697b      	ldr	r3, [r7, #20]
 3c4:	68db      	ldr	r3, [r3, #12]
 3c6:	4013      	ands	r3, r2
 3c8:	60bb      	str	r3, [r7, #8]
 3ca:	697b      	ldr	r3, [r7, #20]
 3cc:	681b      	ldr	r3, [r3, #0]
 3ce:	0c9b      	lsrs	r3, r3, #18
 3d0:	b2db      	uxtb	r3, r3
 3d2:	f003 0303 	and.w	r3, r3, #3
 3d6:	73fb      	strb	r3, [r7, #15]
 3d8:	68bb      	ldr	r3, [r7, #8]
 3da:	f003 0320 	and.w	r3, r3, #32
 3de:	2b00      	cmp	r3, #0
 3e0:	d003      	beq.n	3ea <usbh_int_pipe_in+0x58>
 3e2:	697b      	ldr	r3, [r7, #20]
 3e4:	2220      	movs	r2, #32
 3e6:	609a      	str	r2, [r3, #8]
 3e8:	e023      	b.n	432 <usbh_int_pipe_in+0xa0>
 3ea:	68bb      	ldr	r3, [r7, #8]
 3ec:	f003 0308 	and.w	r3, r3, #8
 3f0:	2b00      	cmp	r3, #0
 3f2:	d00e      	beq.n	412 <usbh_int_pipe_in+0x80>
 3f4:	683b      	ldr	r3, [r7, #0]
 3f6:	b2d9      	uxtb	r1, r3
 3f8:	2305      	movs	r3, #5
 3fa:	2208      	movs	r2, #8
 3fc:	6878      	ldr	r0, [r7, #4]
 3fe:	f7ff fead 	bl	15c <usb_pp_halt>
 402:	697b      	ldr	r3, [r7, #20]
 404:	2210      	movs	r2, #16
 406:	609a      	str	r2, [r3, #8]
 408:	68bb      	ldr	r3, [r7, #8]
 40a:	f023 0310 	bic.w	r3, r3, #16
 40e:	60bb      	str	r3, [r7, #8]
 410:	e00f      	b.n	432 <usbh_int_pipe_in+0xa0>
 412:	68bb      	ldr	r3, [r7, #8]
 414:	f403 6380 	and.w	r3, r3, #1024	; 0x400
 418:	2b00      	cmp	r3, #0
 41a:	d00a      	beq.n	432 <usbh_int_pipe_in+0xa0>
 41c:	683b      	ldr	r3, [r7, #0]
 41e:	b2d9      	uxtb	r1, r3
 420:	2309      	movs	r3, #9
 422:	f44f 6280 	mov.w	r2, #1024	; 0x400
 426:	6878      	ldr	r0, [r7, #4]
 428:	f7ff fe98 	bl	15c <usb_pp_halt>
 42c:	697b      	ldr	r3, [r7, #20]
 42e:	2210      	movs	r2, #16
 430:	609a      	str	r2, [r3, #8]
 432:	68bb      	ldr	r3, [r7, #8]
 434:	f403 7300 	and.w	r3, r3, #512	; 0x200
 438:	2b00      	cmp	r3, #0
 43a:	d008      	beq.n	44e <usbh_int_pipe_in+0xbc>
 43c:	683b      	ldr	r3, [r7, #0]
 43e:	b2d9      	uxtb	r1, r3
 440:	2308      	movs	r3, #8
 442:	f44f 7200 	mov.w	r2, #512	; 0x200
 446:	6878      	ldr	r0, [r7, #4]
 448:	f7ff fe88 	bl	15c <usb_pp_halt>
 44c:	e0de      	b.n	60c <usbh_int_pipe_in+0x27a>
 44e:	68bb      	ldr	r3, [r7, #8]
 450:	f003 0301 	and.w	r3, r3, #1
 454:	2b00      	cmp	r3, #0
 456:	d045      	beq.n	4e4 <usbh_int_pipe_in+0x152>
 458:	687b      	ldr	r3, [r7, #4]
 45a:	791b      	ldrb	r3, [r3, #4]
 45c:	2b01      	cmp	r3, #1
 45e:	d10c      	bne.n	47a <usbh_int_pipe_in+0xe8>
 460:	693b      	ldr	r3, [r7, #16]
 462:	699a      	ldr	r2, [r3, #24]
 464:	697b      	ldr	r3, [r7, #20]
 466:	691b      	ldr	r3, [r3, #16]
 468:	f3c3 0312 	ubfx	r3, r3, #0, #19
 46c:	1ad2      	subs	r2, r2, r3
 46e:	6879      	ldr	r1, [r7, #4]
 470:	683b      	ldr	r3, [r7, #0]
 472:	3334      	adds	r3, #52	; 0x34
 474:	009b      	lsls	r3, r3, #2
 476:	440b      	add	r3, r1
 478:	605a      	str	r2, [r3, #4]
 47a:	693b      	ldr	r3, [r7, #16]
 47c:	2201      	movs	r2, #1
 47e:	f883 2028 	strb.w	r2, [r3, #40]	; 0x28
 482:	693b      	ldr	r3, [r7, #16]
 484:	2200      	movs	r2, #0
 486:	625a      	str	r2, [r3, #36]	; 0x24
 488:	697b      	ldr	r3, [r7, #20]
 48a:	2201      	movs	r2, #1
 48c:	609a      	str	r2, [r3, #8]
 48e:	7bfb      	ldrb	r3, [r7, #15]
 490:	2b03      	cmp	r3, #3
 492:	f200 80ba 	bhi.w	60a <usbh_int_pipe_in+0x278>
 496:	a201      	add	r2, pc, #4	; (adr r2, 49c <usbh_int_pipe_in+0x10a>)
 498:	f852 f023 	ldr.w	pc, [r2, r3, lsl #2]
 49c:	000004ad 	.word	0x000004ad
 4a0:	000004cf 	.word	0x000004cf
 4a4:	000004ad 	.word	0x000004ad
 4a8:	000004cf 	.word	0x000004cf
 4ac:	683b      	ldr	r3, [r7, #0]
 4ae:	b2d9      	uxtb	r1, r3
 4b0:	2301      	movs	r3, #1
 4b2:	2210      	movs	r2, #16
 4b4:	6878      	ldr	r0, [r7, #4]
 4b6:	f7ff fe51 	bl	15c <usb_pp_halt>
 4ba:	693b      	ldr	r3, [r7, #16]
 4bc:	f893 3020 	ldrb.w	r3, [r3, #32]
 4c0:	f083 0301 	eor.w	r3, r3, #1
 4c4:	b2da      	uxtb	r2, r3
 4c6:	693b      	ldr	r3, [r7, #16]
 4c8:	f883 2020 	strb.w	r2, [r3, #32]
 4cc:	e09e      	b.n	60c <usbh_int_pipe_in+0x27a>
 4ce:	697b      	ldr	r3, [r7, #20]
 4d0:	681b      	ldr	r3, [r3, #0]
 4d2:	f043 5200 	orr.w	r2, r3, #536870912	; 0x20000000
 4d6:	697b      	ldr	r3, [r7, #20]
 4d8:	601a      	str	r2, [r3, #0]
 4da:	693b      	ldr	r3, [r7, #16]
 4dc:	2201      	movs	r2, #1
 4de:	f883 2029 	strb.w	r2, [r3, #41]	; 0x29
 4e2:	e093      	b.n	60c <usbh_int_pipe_in+0x27a>
 4e4:	68bb      	ldr	r3, [r7, #8]
 4e6:	f003 0302 	and.w	r3, r3, #2
 4ea:	2b00      	cmp	r3, #0
 4ec:	d04e      	beq.n	58c <usbh_int_pipe_in+0x1fa>
 4ee:	697b      	ldr	r3, [r7, #20]
 4f0:	68db      	ldr	r3, [r3, #12]
 4f2:	f023 0202 	bic.w	r2, r3, #2
 4f6:	697b      	ldr	r3, [r7, #20]
 4f8:	60da      	str	r2, [r3, #12]
 4fa:	693b      	ldr	r3, [r7, #16]
 4fc:	f893 3028 	ldrb.w	r3, [r3, #40]	; 0x28
 500:	b2db      	uxtb	r3, r3
 502:	3b01      	subs	r3, #1
 504:	2b08      	cmp	r3, #8
 506:	d830      	bhi.n	56a <usbh_int_pipe_in+0x1d8>
 508:	a201      	add	r2, pc, #4	; (adr r2, 510 <usbh_int_pipe_in+0x17e>)
 50a:	f852 f023 	ldr.w	pc, [r2, r3, lsl #2]
 50e:	bf00      	nop
 510:	00000535 	.word	0x00000535
 514:	0000056b 	.word	0x0000056b
 518:	0000056b 	.word	0x0000056b
 51c:	0000056b 	.word	0x0000056b
 520:	0000053f 	.word	0x0000053f
 524:	00000549 	.word	0x00000549
 528:	0000056b 	.word	0x0000056b
 52c:	0000056b 	.word	0x0000056b
 530:	00000549 	.word	0x00000549
 534:	693b      	ldr	r3, [r7, #16]
 536:	2201      	movs	r2, #1
 538:	f883 2029 	strb.w	r2, [r3, #41]	; 0x29
 53c:	e022      	b.n	584 <usbh_int_pipe_in+0x1f2>
 53e:	693b      	ldr	r3, [r7, #16]
 540:	2204      	movs	r2, #4
 542:	f883 2029 	strb.w	r2, [r3, #41]	; 0x29
 546:	e01d      	b.n	584 <usbh_int_pipe_in+0x1f2>
 548:	693b      	ldr	r3, [r7, #16]
 54a:	2200      	movs	r2, #0
 54c:	625a      	str	r2, [r3, #36]	; 0x24
 54e:	693b      	ldr	r3, [r7, #16]
 550:	2203      	movs	r2, #3
 552:	f883 2029 	strb.w	r2, [r3, #41]	; 0x29
 556:	693b      	ldr	r3, [r7, #16]
 558:	f893 3020 	ldrb.w	r3, [r3, #32]
 55c:	f083 0301 	eor.w	r3, r3, #1
 560:	b2da      	uxtb	r2, r3
 562:	693b      	ldr	r3, [r7, #16]
 564:	f883 2020 	strb.w	r2, [r3, #32]
 568:	e00c      	b.n	584 <usbh_int_pipe_in+0x1f2>
 56a:	7bfb      	ldrb	r3, [r7, #15]
 56c:	2b03      	cmp	r3, #3
 56e:	d108      	bne.n	582 <usbh_int_pipe_in+0x1f0>
 570:	693b      	ldr	r3, [r7, #16]
 572:	f893 3020 	ldrb.w	r3, [r3, #32]
 576:	f083 0301 	eor.w	r3, r3, #1
 57a:	b2da      	uxtb	r2, r3
 57c:	693b      	ldr	r3, [r7, #16]
 57e:	f883 2020 	strb.w	r2, [r3, #32]
 582:	bf00      	nop
 584:	697b      	ldr	r3, [r7, #20]
 586:	2202      	movs	r2, #2
 588:	609a      	str	r2, [r3, #8]
 58a:	e03f      	b.n	60c <usbh_int_pipe_in+0x27a>
 58c:	68bb      	ldr	r3, [r7, #8]
 58e:	f003 0380 	and.w	r3, r3, #128	; 0x80
 592:	2b00      	cmp	r3, #0
 594:	d00c      	beq.n	5b0 <usbh_int_pipe_in+0x21e>
 596:	693b      	ldr	r3, [r7, #16]
 598:	6a5b      	ldr	r3, [r3, #36]	; 0x24
 59a:	1c5a      	adds	r2, r3, #1
 59c:	693b      	ldr	r3, [r7, #16]
 59e:	625a      	str	r2, [r3, #36]	; 0x24
 5a0:	683b      	ldr	r3, [r7, #0]
 5a2:	b2d9      	uxtb	r1, r3
 5a4:	2306      	movs	r3, #6
 5a6:	2280      	movs	r2, #128	; 0x80
 5a8:	6878      	ldr	r0, [r7, #4]
 5aa:	f7ff fdd7 	bl	15c <usb_pp_halt>
 5ae:	e02d      	b.n	60c <usbh_int_pipe_in+0x27a>
 5b0:	68bb      	ldr	r3, [r7, #8]
 5b2:	f003 0310 	and.w	r3, r3, #16
 5b6:	2b00      	cmp	r3, #0
 5b8:	d028      	beq.n	60c <usbh_int_pipe_in+0x27a>
 5ba:	7bfb      	ldrb	r3, [r7, #15]
 5bc:	2b03      	cmp	r3, #3
 5be:	d00e      	beq.n	5de <usbh_int_pipe_in+0x24c>
 5c0:	2b03      	cmp	r3, #3
 5c2:	dc19      	bgt.n	5f8 <usbh_int_pipe_in+0x266>
 5c4:	2b00      	cmp	r3, #0
 5c6:	d001      	beq.n	5cc <usbh_int_pipe_in+0x23a>
 5c8:	2b02      	cmp	r3, #2
 5ca:	d115      	bne.n	5f8 <usbh_int_pipe_in+0x266>
 5cc:	697b      	ldr	r3, [r7, #20]
 5ce:	681b      	ldr	r3, [r3, #0]
 5d0:	f023 4340 	bic.w	r3, r3, #3221225472	; 0xc0000000
 5d4:	f043 4200 	orr.w	r2, r3, #2147483648	; 0x80000000
 5d8:	697b      	ldr	r3, [r7, #20]
 5da:	601a      	str	r2, [r3, #0]
 5dc:	e00d      	b.n	5fa <usbh_int_pipe_in+0x268>
 5de:	697b      	ldr	r3, [r7, #20]
 5e0:	68db      	ldr	r3, [r3, #12]
 5e2:	f043 0202 	orr.w	r2, r3, #2
 5e6:	697b      	ldr	r3, [r7, #20]
 5e8:	60da      	str	r2, [r3, #12]
 5ea:	683b      	ldr	r3, [r7, #0]
 5ec:	b2db      	uxtb	r3, r3
 5ee:	4619      	mov	r1, r3
 5f0:	6878      	ldr	r0, [r7, #4]
 5f2:	f7ff fffe 	bl	0 <usb_pipe_halt>
 5f6:	e000      	b.n	5fa <usbh_int_pipe_in+0x268>
 5f8:	bf00      	nop
 5fa:	693b      	ldr	r3, [r7, #16]
 5fc:	2203      	movs	r2, #3
 5fe:	f883 2028 	strb.w	r2, [r3, #40]	; 0x28
 602:	697b      	ldr	r3, [r7, #20]
 604:	2210      	movs	r2, #16
 606:	609a      	str	r2, [r3, #8]
 608:	e000      	b.n	60c <usbh_int_pipe_in+0x27a>
 60a:	bf00      	nop
 60c:	2301      	movs	r3, #1
 60e:	4618      	mov	r0, r3
 610:	3718      	adds	r7, #24
 612:	46bd      	mov	sp, r7
 614:	bd80      	pop	{r7, pc}

00000616 <usbh_int_pipe_out>:
 616:	b580      	push	{r7, lr}
 618:	b086      	sub	sp, #24
 61a:	af00      	add	r7, sp, #0
 61c:	6078      	str	r0, [r7, #4]
 61e:	6039      	str	r1, [r7, #0]
 620:	687a      	ldr	r2, [r7, #4]
 622:	683b      	ldr	r3, [r7, #0]
 624:	3312      	adds	r3, #18
 626:	009b      	lsls	r3, r3, #2
 628:	4413      	add	r3, r2
 62a:	685b      	ldr	r3, [r3, #4]
 62c:	617b      	str	r3, [r7, #20]
 62e:	683b      	ldr	r3, [r7, #0]
 630:	222c      	movs	r2, #44	; 0x2c
 632:	fb02 f303 	mul.w	r3, r2, r3
 636:	f503 7384 	add.w	r3, r3, #264	; 0x108
 63a:	687a      	ldr	r2, [r7, #4]
 63c:	4413      	add	r3, r2
 63e:	3308      	adds	r3, #8
 640:	613b      	str	r3, [r7, #16]
 642:	697b      	ldr	r3, [r7, #20]
 644:	689a      	ldr	r2, [r3, #8]
 646:	697b      	ldr	r3, [r7, #20]
 648:	68db      	ldr	r3, [r3, #12]
 64a:	4013      	ands	r3, r2
 64c:	60fb      	str	r3, [r7, #12]
 64e:	68fb      	ldr	r3, [r7, #12]
 650:	f003 0320 	and.w	r3, r3, #32
 654:	2b00      	cmp	r3, #0
 656:	d013      	beq.n	680 <usbh_int_pipe_out+0x6a>
 658:	693b      	ldr	r3, [r7, #16]
 65a:	f893 3029 	ldrb.w	r3, [r3, #41]	; 0x29
 65e:	b2db      	uxtb	r3, r3
 660:	2b05      	cmp	r3, #5
 662:	d109      	bne.n	678 <usbh_int_pipe_out+0x62>
 664:	693b      	ldr	r3, [r7, #16]
 666:	2200      	movs	r2, #0
 668:	625a      	str	r2, [r3, #36]	; 0x24
 66a:	683b      	ldr	r3, [r7, #0]
 66c:	b2d9      	uxtb	r1, r3
 66e:	2301      	movs	r3, #1
 670:	2201      	movs	r2, #1
 672:	6878      	ldr	r0, [r7, #4]
 674:	f7ff fd72 	bl	15c <usb_pp_halt>
 678:	697b      	ldr	r3, [r7, #20]
 67a:	2220      	movs	r2, #32
 67c:	609a      	str	r2, [r3, #8]
 67e:	e0f4      	b.n	86a <usbh_int_pipe_out+0x254>
 680:	68fb      	ldr	r3, [r7, #12]
 682:	f003 0308 	and.w	r3, r3, #8
 686:	2b00      	cmp	r3, #0
 688:	d007      	beq.n	69a <usbh_int_pipe_out+0x84>
 68a:	683b      	ldr	r3, [r7, #0]
 68c:	b2d9      	uxtb	r1, r3
 68e:	2305      	movs	r3, #5
 690:	2208      	movs	r2, #8
 692:	6878      	ldr	r0, [r7, #4]
 694:	f7ff fd62 	bl	15c <usb_pp_halt>
 698:	e0e7      	b.n	86a <usbh_int_pipe_out+0x254>
 69a:	68fb      	ldr	r3, [r7, #12]
 69c:	f403 6380 	and.w	r3, r3, #1024	; 0x400
 6a0:	2b00      	cmp	r3, #0
 6a2:	d00b      	beq.n	6bc <usbh_int_pipe_out+0xa6>
 6a4:	683b      	ldr	r3, [r7, #0]
 6a6:	b2d9      	uxtb	r1, r3
 6a8:	2309      	movs	r3, #9
 6aa:	f44f 6280 	mov.w	r2, #1024	; 0x400
 6ae:	6878      	ldr	r0, [r7, #4]
 6b0:	f7ff fd54 	bl	15c <usb_pp_halt>
 6b4:	697b      	ldr	r3, [r7, #20]
 6b6:	2210      	movs	r2, #16
 6b8:	609a      	str	r2, [r3, #8]
 6ba:	e0d6      	b.n	86a <usbh_int_pipe_out+0x254>
 6bc:	68fb      	ldr	r3, [r7, #12]
 6be:	f403 7300 	and.w	r3, r3, #512	; 0x200
 6c2:	2b00      	cmp	r3, #0
 6c4:	d008      	beq.n	6d8 <usbh_int_pipe_out+0xc2>
 6c6:	683b      	ldr	r3, [r7, #0]
 6c8:	b2d9      	uxtb	r1, r3
 6ca:	2308      	movs	r3, #8
 6cc:	f44f 7200 	mov.w	r2, #512	; 0x200
 6d0:	6878      	ldr	r0, [r7, #4]
 6d2:	f7ff fd43 	bl	15c <usb_pp_halt>
 6d6:	e0c8      	b.n	86a <usbh_int_pipe_out+0x254>
 6d8:	68fb      	ldr	r3, [r7, #12]
 6da:	f003 0301 	and.w	r3, r3, #1
 6de:	2b00      	cmp	r3, #0
 6e0:	d00a      	beq.n	6f8 <usbh_int_pipe_out+0xe2>
 6e2:	693b      	ldr	r3, [r7, #16]
 6e4:	2200      	movs	r2, #0
 6e6:	625a      	str	r2, [r3, #36]	; 0x24
 6e8:	683b      	ldr	r3, [r7, #0]
 6ea:	b2d9      	uxtb	r1, r3
 6ec:	2301      	movs	r3, #1
 6ee:	2201      	movs	r2, #1
 6f0:	6878      	ldr	r0, [r7, #4]
 6f2:	f7ff fd33 	bl	15c <usb_pp_halt>
 6f6:	e0b8      	b.n	86a <usbh_int_pipe_out+0x254>
 6f8:	68fb      	ldr	r3, [r7, #12]
 6fa:	f003 0310 	and.w	r3, r3, #16
 6fe:	2b00      	cmp	r3, #0
 700:	d00a      	beq.n	718 <usbh_int_pipe_out+0x102>
 702:	693b      	ldr	r3, [r7, #16]
 704:	2200      	movs	r2, #0
 706:	625a      	str	r2, [r3, #36]	; 0x24
 708:	683b      	ldr	r3, [r7, #0]
 70a:	b2d9      	uxtb	r1, r3
 70c:	2303      	movs	r3, #3
 70e:	2210      	movs	r2, #16
 710:	6878      	ldr	r0, [r7, #4]
 712:	f7ff fd23 	bl	15c <usb_pp_halt>
 716:	e0a8      	b.n	86a <usbh_int_pipe_out+0x254>
 718:	68fb      	ldr	r3, [r7, #12]
 71a:	f003 0380 	and.w	r3, r3, #128	; 0x80
 71e:	2b00      	cmp	r3, #0
 720:	d00c      	beq.n	73c <usbh_int_pipe_out+0x126>
 722:	693b      	ldr	r3, [r7, #16]
 724:	6a5b      	ldr	r3, [r3, #36]	; 0x24
 726:	1c5a      	adds	r2, r3, #1
 728:	693b      	ldr	r3, [r7, #16]
 72a:	625a      	str	r2, [r3, #36]	; 0x24
 72c:	683b      	ldr	r3, [r7, #0]
 72e:	b2d9      	uxtb	r1, r3
 730:	2306      	movs	r3, #6
 732:	2280      	movs	r2, #128	; 0x80
 734:	6878      	ldr	r0, [r7, #4]
 736:	f7ff fd11 	bl	15c <usb_pp_halt>
 73a:	e096      	b.n	86a <usbh_int_pipe_out+0x254>
 73c:	68fb      	ldr	r3, [r7, #12]
 73e:	f003 0340 	and.w	r3, r3, #64	; 0x40
 742:	2b00      	cmp	r3, #0
 744:	d00a      	beq.n	75c <usbh_int_pipe_out+0x146>
 746:	693b      	ldr	r3, [r7, #16]
 748:	2200      	movs	r2, #0
 74a:	625a      	str	r2, [r3, #36]	; 0x24
 74c:	683b      	ldr	r3, [r7, #0]
 74e:	b2d9      	uxtb	r1, r3
 750:	2304      	movs	r3, #4
 752:	2240      	movs	r2, #64	; 0x40
 754:	6878      	ldr	r0, [r7, #4]
 756:	f7ff fd01 	bl	15c <usb_pp_halt>
 75a:	e086      	b.n	86a <usbh_int_pipe_out+0x254>
 75c:	68fb      	ldr	r3, [r7, #12]
 75e:	f003 0302 	and.w	r3, r3, #2
 762:	2b00      	cmp	r3, #0
 764:	f000 8081 	beq.w	86a <usbh_int_pipe_out+0x254>
 768:	687a      	ldr	r2, [r7, #4]
 76a:	683b      	ldr	r3, [r7, #0]
 76c:	3312      	adds	r3, #18
 76e:	009b      	lsls	r3, r3, #2
 770:	4413      	add	r3, r2
 772:	685b      	ldr	r3, [r3, #4]
 774:	68da      	ldr	r2, [r3, #12]
 776:	6879      	ldr	r1, [r7, #4]
 778:	683b      	ldr	r3, [r7, #0]
 77a:	3312      	adds	r3, #18
 77c:	009b      	lsls	r3, r3, #2
 77e:	440b      	add	r3, r1
 780:	685b      	ldr	r3, [r3, #4]
 782:	f022 0202 	bic.w	r2, r2, #2
 786:	60da      	str	r2, [r3, #12]
 788:	693b      	ldr	r3, [r7, #16]
 78a:	f893 3028 	ldrb.w	r3, [r3, #40]	; 0x28
 78e:	b2db      	uxtb	r3, r3
 790:	3b01      	subs	r3, #1
 792:	2b05      	cmp	r3, #5
 794:	d861      	bhi.n	85a <usbh_int_pipe_out+0x244>
 796:	a201      	add	r2, pc, #4	; (adr r2, 79c <usbh_int_pipe_out+0x186>)
 798:	f852 f023 	ldr.w	pc, [r2, r3, lsl #2]
 79c:	000007b5 	.word	0x000007b5
 7a0:	0000085b 	.word	0x0000085b
 7a4:	000007df 	.word	0x000007df
 7a8:	00000803 	.word	0x00000803
 7ac:	00000839 	.word	0x00000839
 7b0:	00000843 	.word	0x00000843
 7b4:	693b      	ldr	r3, [r7, #16]
 7b6:	2201      	movs	r2, #1
 7b8:	f883 2029 	strb.w	r2, [r3, #41]	; 0x29
 7bc:	697b      	ldr	r3, [r7, #20]
 7be:	681b      	ldr	r3, [r3, #0]
 7c0:	0c9b      	lsrs	r3, r3, #18
 7c2:	f003 0303 	and.w	r3, r3, #3
 7c6:	2b02      	cmp	r3, #2
 7c8:	d149      	bne.n	85e <usbh_int_pipe_out+0x248>
 7ca:	693b      	ldr	r3, [r7, #16]
 7cc:	f893 3021 	ldrb.w	r3, [r3, #33]	; 0x21
 7d0:	f083 0301 	eor.w	r3, r3, #1
 7d4:	b2da      	uxtb	r2, r3
 7d6:	693b      	ldr	r3, [r7, #16]
 7d8:	f883 2021 	strb.w	r2, [r3, #33]	; 0x21
 7dc:	e03f      	b.n	85e <usbh_int_pipe_out+0x248>
 7de:	693b      	ldr	r3, [r7, #16]
 7e0:	f893 3029 	ldrb.w	r3, [r3, #41]	; 0x29
 7e4:	b2db      	uxtb	r3, r3
 7e6:	2b05      	cmp	r3, #5
 7e8:	d106      	bne.n	7f8 <usbh_int_pipe_out+0x1e2>
 7ea:	683b      	ldr	r3, [r7, #0]
 7ec:	b2db      	uxtb	r3, r3
 7ee:	4619      	mov	r1, r3
 7f0:	6878      	ldr	r0, [r7, #4]
 7f2:	f7ff fffe 	bl	0 <usb_pipe_ping>
 7f6:	e035      	b.n	864 <usbh_int_pipe_out+0x24e>
 7f8:	693b      	ldr	r3, [r7, #16]
 7fa:	2202      	movs	r2, #2
 7fc:	f883 2029 	strb.w	r2, [r3, #41]	; 0x29
 800:	e030      	b.n	864 <usbh_int_pipe_out+0x24e>
 802:	687a      	ldr	r2, [r7, #4]
 804:	683b      	ldr	r3, [r7, #0]
 806:	212c      	movs	r1, #44	; 0x2c
 808:	fb01 f303 	mul.w	r3, r1, r3
 80c:	4413      	add	r3, r2
 80e:	f503 738f 	add.w	r3, r3, #286	; 0x11e
 812:	781b      	ldrb	r3, [r3, #0]
 814:	2b01      	cmp	r3, #1
 816:	d10a      	bne.n	82e <usbh_int_pipe_out+0x218>
 818:	683b      	ldr	r3, [r7, #0]
 81a:	b2db      	uxtb	r3, r3
 81c:	4619      	mov	r1, r3
 81e:	6878      	ldr	r0, [r7, #4]
 820:	f7ff fffe 	bl	0 <usb_pipe_ping>
 824:	693b      	ldr	r3, [r7, #16]
 826:	2205      	movs	r2, #5
 828:	f883 2029 	strb.w	r2, [r3, #41]	; 0x29
 82c:	e01a      	b.n	864 <usbh_int_pipe_out+0x24e>
 82e:	693b      	ldr	r3, [r7, #16]
 830:	2202      	movs	r2, #2
 832:	f883 2029 	strb.w	r2, [r3, #41]	; 0x29
 836:	e015      	b.n	864 <usbh_int_pipe_out+0x24e>
 838:	693b      	ldr	r3, [r7, #16]
 83a:	2204      	movs	r2, #4
 83c:	f883 2029 	strb.w	r2, [r3, #41]	; 0x29
 840:	e010      	b.n	864 <usbh_int_pipe_out+0x24e>
 842:	693b      	ldr	r3, [r7, #16]
 844:	6a5b      	ldr	r3, [r3, #36]	; 0x24
 846:	2b03      	cmp	r3, #3
 848:	d10b      	bne.n	862 <usbh_int_pipe_out+0x24c>
 84a:	693b      	ldr	r3, [r7, #16]
 84c:	2203      	movs	r2, #3
 84e:	f883 2029 	strb.w	r2, [r3, #41]	; 0x29
 852:	693b      	ldr	r3, [r7, #16]
 854:	2200      	movs	r2, #0
 856:	625a      	str	r2, [r3, #36]	; 0x24
 858:	e003      	b.n	862 <usbh_int_pipe_out+0x24c>
 85a:	bf00      	nop
 85c:	e002      	b.n	864 <usbh_int_pipe_out+0x24e>
 85e:	bf00      	nop
 860:	e000      	b.n	864 <usbh_int_pipe_out+0x24e>
 862:	bf00      	nop
 864:	697b      	ldr	r3, [r7, #20]
 866:	2202      	movs	r2, #2
 868:	609a      	str	r2, [r3, #8]
 86a:	2301      	movs	r3, #1
 86c:	4618      	mov	r0, r3
 86e:	3718      	adds	r7, #24
 870:	46bd      	mov	sp, r7
 872:	bd80      	pop	{r7, pc}

00000874 <usbh_int_rxfifonoempty>:
 874:	b580      	push	{r7, lr}
 876:	b086      	sub	sp, #24
 878:	af00      	add	r7, sp, #0
 87a:	6078      	str	r0, [r7, #4]
 87c:	2300      	movs	r3, #0
 87e:	617b      	str	r3, [r7, #20]
 880:	2300      	movs	r3, #0
 882:	74fb      	strb	r3, [r7, #19]
 884:	2300      	movs	r3, #0
 886:	60fb      	str	r3, [r7, #12]
 888:	687b      	ldr	r3, [r7, #4]
 88a:	691b      	ldr	r3, [r3, #16]
 88c:	699a      	ldr	r2, [r3, #24]
 88e:	687b      	ldr	r3, [r7, #4]
 890:	691b      	ldr	r3, [r3, #16]
 892:	f022 0210 	bic.w	r2, r2, #16
 896:	619a      	str	r2, [r3, #24]
 898:	687b      	ldr	r3, [r7, #4]
 89a:	691b      	ldr	r3, [r3, #16]
 89c:	6a1b      	ldr	r3, [r3, #32]
 89e:	60fb      	str	r3, [r7, #12]
 8a0:	68fb      	ldr	r3, [r7, #12]
 8a2:	b2db      	uxtb	r3, r3
 8a4:	f003 030f 	and.w	r3, r3, #15
 8a8:	b2db      	uxtb	r3, r3
 8aa:	74fb      	strb	r3, [r7, #19]
 8ac:	68fb      	ldr	r3, [r7, #12]
 8ae:	0c5b      	lsrs	r3, r3, #17
 8b0:	f003 030f 	and.w	r3, r3, #15
 8b4:	3b02      	subs	r3, #2
 8b6:	2b05      	cmp	r3, #5
 8b8:	f200 80b2 	bhi.w	a20 <usbh_int_rxfifonoempty+0x1ac>
 8bc:	a201      	add	r2, pc, #4	; (adr r2, 8c4 <usbh_int_rxfifonoempty+0x50>)
 8be:	f852 f023 	ldr.w	pc, [r2, r3, lsl #2]
 8c2:	bf00      	nop
 8c4:	000008dd 	.word	0x000008dd
 8c8:	00000a21 	.word	0x00000a21
 8cc:	00000a21 	.word	0x00000a21
 8d0:	000009ff 	.word	0x000009ff
 8d4:	00000a21 	.word	0x00000a21
 8d8:	00000a21 	.word	0x00000a21
 8dc:	68fb      	ldr	r3, [r7, #12]
 8de:	091b      	lsrs	r3, r3, #4
 8e0:	f3c3 030a 	ubfx	r3, r3, #0, #11
 8e4:	617b      	str	r3, [r7, #20]
 8e6:	697b      	ldr	r3, [r7, #20]
 8e8:	2b00      	cmp	r3, #0
 8ea:	f000 809b 	beq.w	a24 <usbh_int_rxfifonoempty+0x1b0>
 8ee:	7cfb      	ldrb	r3, [r7, #19]
 8f0:	b2db      	uxtb	r3, r3
 8f2:	4619      	mov	r1, r3
 8f4:	687a      	ldr	r2, [r7, #4]
 8f6:	232c      	movs	r3, #44	; 0x2c
 8f8:	fb01 f303 	mul.w	r3, r1, r3
 8fc:	4413      	add	r3, r2
 8fe:	f503 7392 	add.w	r3, r3, #292	; 0x124
 902:	681b      	ldr	r3, [r3, #0]
 904:	2b00      	cmp	r3, #0
 906:	f000 808d 	beq.w	a24 <usbh_int_rxfifonoempty+0x1b0>
 90a:	687b      	ldr	r3, [r7, #4]
 90c:	f103 0010 	add.w	r0, r3, #16
 910:	7cfb      	ldrb	r3, [r7, #19]
 912:	b2db      	uxtb	r3, r3
 914:	4619      	mov	r1, r3
 916:	687a      	ldr	r2, [r7, #4]
 918:	232c      	movs	r3, #44	; 0x2c
 91a:	fb01 f303 	mul.w	r3, r1, r3
 91e:	4413      	add	r3, r2
 920:	f503 7392 	add.w	r3, r3, #292	; 0x124
 924:	681b      	ldr	r3, [r3, #0]
 926:	697a      	ldr	r2, [r7, #20]
 928:	b292      	uxth	r2, r2
 92a:	4619      	mov	r1, r3
 92c:	f7ff fffe 	bl	0 <usb_rxfifo_read>
 930:	7cfb      	ldrb	r3, [r7, #19]
 932:	b2d9      	uxtb	r1, r3
 934:	4608      	mov	r0, r1
 936:	687a      	ldr	r2, [r7, #4]
 938:	232c      	movs	r3, #44	; 0x2c
 93a:	fb00 f303 	mul.w	r3, r0, r3
 93e:	4413      	add	r3, r2
 940:	f503 7392 	add.w	r3, r3, #292	; 0x124
 944:	681a      	ldr	r2, [r3, #0]
 946:	4608      	mov	r0, r1
 948:	697b      	ldr	r3, [r7, #20]
 94a:	441a      	add	r2, r3
 94c:	6879      	ldr	r1, [r7, #4]
 94e:	232c      	movs	r3, #44	; 0x2c
 950:	fb00 f303 	mul.w	r3, r0, r3
 954:	440b      	add	r3, r1
 956:	f503 7392 	add.w	r3, r3, #292	; 0x124
 95a:	601a      	str	r2, [r3, #0]
 95c:	7cfb      	ldrb	r3, [r7, #19]
 95e:	b2d9      	uxtb	r1, r3
 960:	4608      	mov	r0, r1
 962:	687a      	ldr	r2, [r7, #4]
 964:	232c      	movs	r3, #44	; 0x2c
 966:	fb00 f303 	mul.w	r3, r0, r3
 96a:	4413      	add	r3, r2
 96c:	f503 7396 	add.w	r3, r3, #300	; 0x12c
 970:	681a      	ldr	r2, [r3, #0]
 972:	4608      	mov	r0, r1
 974:	697b      	ldr	r3, [r7, #20]
 976:	441a      	add	r2, r3
 978:	6879      	ldr	r1, [r7, #4]
 97a:	232c      	movs	r3, #44	; 0x2c
 97c:	fb00 f303 	mul.w	r3, r0, r3
 980:	440b      	add	r3, r1
 982:	f503 7396 	add.w	r3, r3, #300	; 0x12c
 986:	601a      	str	r2, [r3, #0]
 988:	7cfb      	ldrb	r3, [r7, #19]
 98a:	b2db      	uxtb	r3, r3
 98c:	4619      	mov	r1, r3
 98e:	7cfb      	ldrb	r3, [r7, #19]
 990:	b2db      	uxtb	r3, r3
 992:	4618      	mov	r0, r3
 994:	687a      	ldr	r2, [r7, #4]
 996:	232c      	movs	r3, #44	; 0x2c
 998:	fb01 f303 	mul.w	r3, r1, r3
 99c:	4413      	add	r3, r2
 99e:	f503 7396 	add.w	r3, r3, #300	; 0x12c
 9a2:	681a      	ldr	r2, [r3, #0]
 9a4:	6879      	ldr	r1, [r7, #4]
 9a6:	f100 0334 	add.w	r3, r0, #52	; 0x34
 9aa:	009b      	lsls	r3, r3, #2
 9ac:	440b      	add	r3, r1
 9ae:	605a      	str	r2, [r3, #4]
 9b0:	7cfb      	ldrb	r3, [r7, #19]
 9b2:	b2db      	uxtb	r3, r3
 9b4:	687a      	ldr	r2, [r7, #4]
 9b6:	3312      	adds	r3, #18
 9b8:	009b      	lsls	r3, r3, #2
 9ba:	4413      	add	r3, r2
 9bc:	685b      	ldr	r3, [r3, #4]
 9be:	691a      	ldr	r2, [r3, #16]
 9c0:	4b1f      	ldr	r3, [pc, #124]	; (a40 <usbh_int_rxfifonoempty+0x1cc>)
 9c2:	4013      	ands	r3, r2
 9c4:	2b00      	cmp	r3, #0
 9c6:	d02d      	beq.n	a24 <usbh_int_rxfifonoempty+0x1b0>
 9c8:	7cfb      	ldrb	r3, [r7, #19]
 9ca:	b2db      	uxtb	r3, r3
 9cc:	687a      	ldr	r2, [r7, #4]
 9ce:	3312      	adds	r3, #18
 9d0:	009b      	lsls	r3, r3, #2
 9d2:	4413      	add	r3, r2
 9d4:	685b      	ldr	r3, [r3, #4]
 9d6:	681b      	ldr	r3, [r3, #0]
 9d8:	60bb      	str	r3, [r7, #8]
 9da:	68bb      	ldr	r3, [r7, #8]
 9dc:	f043 4300 	orr.w	r3, r3, #2147483648	; 0x80000000
 9e0:	60bb      	str	r3, [r7, #8]
 9e2:	68bb      	ldr	r3, [r7, #8]
 9e4:	f023 4380 	bic.w	r3, r3, #1073741824	; 0x40000000
 9e8:	60bb      	str	r3, [r7, #8]
 9ea:	7cfb      	ldrb	r3, [r7, #19]
 9ec:	b2db      	uxtb	r3, r3
 9ee:	687a      	ldr	r2, [r7, #4]
 9f0:	3312      	adds	r3, #18
 9f2:	009b      	lsls	r3, r3, #2
 9f4:	4413      	add	r3, r2
 9f6:	685b      	ldr	r3, [r3, #4]
 9f8:	68ba      	ldr	r2, [r7, #8]
 9fa:	601a      	str	r2, [r3, #0]
 9fc:	e012      	b.n	a24 <usbh_int_rxfifonoempty+0x1b0>
 9fe:	68fb      	ldr	r3, [r7, #12]
 a00:	091b      	lsrs	r3, r3, #4
 a02:	f3c3 030a 	ubfx	r3, r3, #0, #11
 a06:	617b      	str	r3, [r7, #20]
 a08:	e006      	b.n	a18 <usbh_int_rxfifonoempty+0x1a4>
 a0a:	687b      	ldr	r3, [r7, #4]
 a0c:	691b      	ldr	r3, [r3, #16]
 a0e:	6a1b      	ldr	r3, [r3, #32]
 a10:	60fb      	str	r3, [r7, #12]
 a12:	697b      	ldr	r3, [r7, #20]
 a14:	3b01      	subs	r3, #1
 a16:	617b      	str	r3, [r7, #20]
 a18:	697b      	ldr	r3, [r7, #20]
 a1a:	2b00      	cmp	r3, #0
 a1c:	d1f5      	bne.n	a0a <usbh_int_rxfifonoempty+0x196>
 a1e:	e002      	b.n	a26 <usbh_int_rxfifonoempty+0x1b2>
 a20:	bf00      	nop
 a22:	e000      	b.n	a26 <usbh_int_rxfifonoempty+0x1b2>
 a24:	bf00      	nop
 a26:	687b      	ldr	r3, [r7, #4]
 a28:	691b      	ldr	r3, [r3, #16]
 a2a:	699a      	ldr	r2, [r3, #24]
 a2c:	687b      	ldr	r3, [r7, #4]
 a2e:	691b      	ldr	r3, [r3, #16]
 a30:	f042 0210 	orr.w	r2, r2, #16
 a34:	619a      	str	r2, [r3, #24]
 a36:	2301      	movs	r3, #1
 a38:	4618      	mov	r0, r3
 a3a:	3718      	adds	r7, #24
 a3c:	46bd      	mov	sp, r7
 a3e:	bd80      	pop	{r7, pc}
 a40:	1ff80000 	.word	0x1ff80000

00000a44 <usbh_int_txfifoempty>:
 a44:	b580      	push	{r7, lr}
 a46:	b086      	sub	sp, #24
 a48:	af00      	add	r7, sp, #0
 a4a:	6078      	str	r0, [r7, #4]
 a4c:	460b      	mov	r3, r1
 a4e:	70fb      	strb	r3, [r7, #3]
 a50:	2300      	movs	r3, #0
 a52:	73fb      	strb	r3, [r7, #15]
 a54:	2300      	movs	r3, #0
 a56:	82fb      	strh	r3, [r7, #22]
 a58:	2300      	movs	r3, #0
 a5a:	82bb      	strh	r3, [r7, #20]
 a5c:	2300      	movs	r3, #0
 a5e:	613b      	str	r3, [r7, #16]
 a60:	2300      	movs	r3, #0
 a62:	60bb      	str	r3, [r7, #8]
 a64:	78fb      	ldrb	r3, [r7, #3]
 a66:	2b01      	cmp	r3, #1
 a68:	d104      	bne.n	a74 <usbh_int_txfifoempty+0x30>
 a6a:	687b      	ldr	r3, [r7, #4]
 a6c:	691b      	ldr	r3, [r3, #16]
 a6e:	332c      	adds	r3, #44	; 0x2c
 a70:	613b      	str	r3, [r7, #16]
 a72:	e009      	b.n	a88 <usbh_int_txfifoempty+0x44>
 a74:	78fb      	ldrb	r3, [r7, #3]
 a76:	2b00      	cmp	r3, #0
 a78:	d104      	bne.n	a84 <usbh_int_txfifoempty+0x40>
 a7a:	687b      	ldr	r3, [r7, #4]
 a7c:	699b      	ldr	r3, [r3, #24]
 a7e:	3310      	adds	r3, #16
 a80:	613b      	str	r3, [r7, #16]
 a82:	e001      	b.n	a88 <usbh_int_txfifoempty+0x44>
 a84:	2300      	movs	r3, #0
 a86:	e0b2      	b.n	bee <usbh_int_txfifoempty+0x1aa>
 a88:	693b      	ldr	r3, [r7, #16]
 a8a:	681b      	ldr	r3, [r3, #0]
 a8c:	60bb      	str	r3, [r7, #8]
 a8e:	68bb      	ldr	r3, [r7, #8]
 a90:	0edb      	lsrs	r3, r3, #27
 a92:	b2db      	uxtb	r3, r3
 a94:	f003 030f 	and.w	r3, r3, #15
 a98:	73fb      	strb	r3, [r7, #15]
 a9a:	7bfb      	ldrb	r3, [r7, #15]
 a9c:	687a      	ldr	r2, [r7, #4]
 a9e:	212c      	movs	r1, #44	; 0x2c
 aa0:	fb01 f303 	mul.w	r3, r1, r3
 aa4:	4413      	add	r3, r2
 aa6:	f503 7394 	add.w	r3, r3, #296	; 0x128
 aaa:	681b      	ldr	r3, [r3, #0]
 aac:	b29b      	uxth	r3, r3
 aae:	3303      	adds	r3, #3
 ab0:	b29b      	uxth	r3, r3
 ab2:	089b      	lsrs	r3, r3, #2
 ab4:	82fb      	strh	r3, [r7, #22]
 ab6:	e088      	b.n	bca <usbh_int_txfifoempty+0x186>
 ab8:	68bb      	ldr	r3, [r7, #8]
 aba:	b29b      	uxth	r3, r3
 abc:	009b      	lsls	r3, r3, #2
 abe:	82bb      	strh	r3, [r7, #20]
 ac0:	8aba      	ldrh	r2, [r7, #20]
 ac2:	7bfb      	ldrb	r3, [r7, #15]
 ac4:	6879      	ldr	r1, [r7, #4]
 ac6:	202c      	movs	r0, #44	; 0x2c
 ac8:	fb00 f303 	mul.w	r3, r0, r3
 acc:	440b      	add	r3, r1
 ace:	f503 7394 	add.w	r3, r3, #296	; 0x128
 ad2:	681b      	ldr	r3, [r3, #0]
 ad4:	429a      	cmp	r2, r3
 ad6:	d91d      	bls.n	b14 <usbh_int_txfifoempty+0xd0>
 ad8:	7bfb      	ldrb	r3, [r7, #15]
 ada:	687a      	ldr	r2, [r7, #4]
 adc:	212c      	movs	r1, #44	; 0x2c
 ade:	fb01 f303 	mul.w	r3, r1, r3
 ae2:	4413      	add	r3, r2
 ae4:	f503 7394 	add.w	r3, r3, #296	; 0x128
 ae8:	681b      	ldr	r3, [r3, #0]
 aea:	82bb      	strh	r3, [r7, #20]
 aec:	78fb      	ldrb	r3, [r7, #3]
 aee:	2b01      	cmp	r3, #1
 af0:	d108      	bne.n	b04 <usbh_int_txfifoempty+0xc0>
 af2:	687b      	ldr	r3, [r7, #4]
 af4:	691b      	ldr	r3, [r3, #16]
 af6:	699a      	ldr	r2, [r3, #24]
 af8:	687b      	ldr	r3, [r7, #4]
 afa:	691b      	ldr	r3, [r3, #16]
 afc:	f022 0220 	bic.w	r2, r2, #32
 b00:	619a      	str	r2, [r3, #24]
 b02:	e007      	b.n	b14 <usbh_int_txfifoempty+0xd0>
 b04:	687b      	ldr	r3, [r7, #4]
 b06:	691b      	ldr	r3, [r3, #16]
 b08:	699a      	ldr	r2, [r3, #24]
 b0a:	687b      	ldr	r3, [r7, #4]
 b0c:	691b      	ldr	r3, [r3, #16]
 b0e:	f022 6280 	bic.w	r2, r2, #67108864	; 0x4000000
 b12:	619a      	str	r2, [r3, #24]
 b14:	7bfb      	ldrb	r3, [r7, #15]
 b16:	687a      	ldr	r2, [r7, #4]
 b18:	212c      	movs	r1, #44	; 0x2c
 b1a:	fb01 f303 	mul.w	r3, r1, r3
 b1e:	4413      	add	r3, r2
 b20:	f503 7394 	add.w	r3, r3, #296	; 0x128
 b24:	681b      	ldr	r3, [r3, #0]
 b26:	3303      	adds	r3, #3
 b28:	089b      	lsrs	r3, r3, #2
 b2a:	82fb      	strh	r3, [r7, #22]
 b2c:	687b      	ldr	r3, [r7, #4]
 b2e:	f103 0010 	add.w	r0, r3, #16
 b32:	7bfb      	ldrb	r3, [r7, #15]
 b34:	687a      	ldr	r2, [r7, #4]
 b36:	212c      	movs	r1, #44	; 0x2c
 b38:	fb01 f303 	mul.w	r3, r1, r3
 b3c:	4413      	add	r3, r2
 b3e:	f503 7392 	add.w	r3, r3, #292	; 0x124
 b42:	6819      	ldr	r1, [r3, #0]
 b44:	8abb      	ldrh	r3, [r7, #20]
 b46:	7bfa      	ldrb	r2, [r7, #15]
 b48:	f7ff fffe 	bl	0 <usb_txfifo_write>
 b4c:	7bfb      	ldrb	r3, [r7, #15]
 b4e:	687a      	ldr	r2, [r7, #4]
 b50:	212c      	movs	r1, #44	; 0x2c
 b52:	fb01 f303 	mul.w	r3, r1, r3
 b56:	4413      	add	r3, r2
 b58:	f503 7392 	add.w	r3, r3, #292	; 0x124
 b5c:	6819      	ldr	r1, [r3, #0]
 b5e:	8aba      	ldrh	r2, [r7, #20]
 b60:	7bfb      	ldrb	r3, [r7, #15]
 b62:	440a      	add	r2, r1
 b64:	6879      	ldr	r1, [r7, #4]
 b66:	202c      	movs	r0, #44	; 0x2c
 b68:	fb00 f303 	mul.w	r3, r0, r3
 b6c:	440b      	add	r3, r1
 b6e:	f503 7392 	add.w	r3, r3, #292	; 0x124
 b72:	601a      	str	r2, [r3, #0]
 b74:	7bfb      	ldrb	r3, [r7, #15]
 b76:	687a      	ldr	r2, [r7, #4]
 b78:	212c      	movs	r1, #44	; 0x2c
 b7a:	fb01 f303 	mul.w	r3, r1, r3
 b7e:	4413      	add	r3, r2
 b80:	f503 7394 	add.w	r3, r3, #296	; 0x128
 b84:	6819      	ldr	r1, [r3, #0]
 b86:	8aba      	ldrh	r2, [r7, #20]
 b88:	7bfb      	ldrb	r3, [r7, #15]
 b8a:	1a8a      	subs	r2, r1, r2
 b8c:	6879      	ldr	r1, [r7, #4]
 b8e:	202c      	movs	r0, #44	; 0x2c
 b90:	fb00 f303 	mul.w	r3, r0, r3
 b94:	440b      	add	r3, r1
 b96:	f503 7394 	add.w	r3, r3, #296	; 0x128
 b9a:	601a      	str	r2, [r3, #0]
 b9c:	7bfb      	ldrb	r3, [r7, #15]
 b9e:	687a      	ldr	r2, [r7, #4]
 ba0:	212c      	movs	r1, #44	; 0x2c
 ba2:	fb01 f303 	mul.w	r3, r1, r3
 ba6:	4413      	add	r3, r2
 ba8:	f503 7396 	add.w	r3, r3, #300	; 0x12c
 bac:	6819      	ldr	r1, [r3, #0]
 bae:	8aba      	ldrh	r2, [r7, #20]
 bb0:	7bfb      	ldrb	r3, [r7, #15]
 bb2:	440a      	add	r2, r1
 bb4:	6879      	ldr	r1, [r7, #4]
 bb6:	202c      	movs	r0, #44	; 0x2c
 bb8:	fb00 f303 	mul.w	r3, r0, r3
 bbc:	440b      	add	r3, r1
 bbe:	f503 7396 	add.w	r3, r3, #300	; 0x12c
 bc2:	601a      	str	r2, [r3, #0]
 bc4:	693b      	ldr	r3, [r7, #16]
 bc6:	681b      	ldr	r3, [r3, #0]
 bc8:	60bb      	str	r3, [r7, #8]
 bca:	68bb      	ldr	r3, [r7, #8]
 bcc:	b29a      	uxth	r2, r3
 bce:	8afb      	ldrh	r3, [r7, #22]
 bd0:	429a      	cmp	r2, r3
 bd2:	d30b      	bcc.n	bec <usbh_int_txfifoempty+0x1a8>
 bd4:	7bfb      	ldrb	r3, [r7, #15]
 bd6:	687a      	ldr	r2, [r7, #4]
 bd8:	212c      	movs	r1, #44	; 0x2c
 bda:	fb01 f303 	mul.w	r3, r1, r3
 bde:	4413      	add	r3, r2
 be0:	f503 7394 	add.w	r3, r3, #296	; 0x128
 be4:	681b      	ldr	r3, [r3, #0]
 be6:	2b00      	cmp	r3, #0
 be8:	f47f af66 	bne.w	ab8 <usbh_int_txfifoempty+0x74>
 bec:	2301      	movs	r3, #1
 bee:	4618      	mov	r0, r3
 bf0:	3718      	adds	r7, #24
 bf2:	46bd      	mov	sp, r7
 bf4:	bd80      	pop	{r7, pc}

00000bf6 <usb_phyclock_config>:
 bf6:	6983      	ldr	r3, [r0, #24]
 bf8:	681a      	ldr	r2, [r3, #0]
 bfa:	f022 0203 	bic.w	r2, r2, #3
 bfe:	601a      	str	r2, [r3, #0]
 c00:	681a      	ldr	r2, [r3, #0]
 c02:	4311      	orrs	r1, r2
 c04:	6019      	str	r1, [r3, #0]
 c06:	4770      	bx	lr

00000c08 <usb_curspeed_get>:
 c08:	f8d0 3088 	ldr.w	r3, [r0, #136]	; 0x88
 c0c:	6818      	ldr	r0, [r3, #0]
 c0e:	f400 20c0 	and.w	r0, r0, #393216	; 0x60000
 c12:	4770      	bx	lr

00000c14 <usb_coreintr_get.isra.0>:
 c14:	6982      	ldr	r2, [r0, #24]
 c16:	6940      	ldr	r0, [r0, #20]
 c18:	4010      	ands	r0, r2
 c1a:	4770      	bx	lr
