In archive lib_gd32/libc.a:

memset.o:     file format elf32-littlearm


Disassembly of section .text:

00000000 <memset>:
   0:	b570      	push	{r4, r5, r6, lr}
   2:	b1ca      	cbz	r2, 38 <memset+0x38>
   4:	4603      	mov	r3, r0
   6:	b2c9      	uxtb	r1, r1
   8:	075c      	lsls	r4, r3, #29
   a:	d111      	bne.n	30 <memset+0x30>
   c:	f04f 3501 	mov.w	r5, #16843009	; 0x1010101
  10:	fba1 5605 	umull	r5, r6, r1, r5
  14:	f022 0407 	bic.w	r4, r2, #7
  18:	442e      	add	r6, r5
  1a:	441c      	add	r4, r3
  1c:	42a3      	cmp	r3, r4
  1e:	d10c      	bne.n	3a <memset+0x3a>
  20:	f002 0207 	and.w	r2, r2, #7
  24:	4422      	add	r2, r4
  26:	4294      	cmp	r4, r2
  28:	d006      	beq.n	38 <memset+0x38>
  2a:	f804 1b01 	strb.w	r1, [r4], #1
  2e:	e7fa      	b.n	26 <memset+0x26>
  30:	3a01      	subs	r2, #1
  32:	f803 1b01 	strb.w	r1, [r3], #1
  36:	d1e7      	bne.n	8 <memset+0x8>
  38:	bd70      	pop	{r4, r5, r6, pc}
  3a:	f843 5b08 	str.w	r5, [r3], #8
  3e:	f843 6c04 	str.w	r6, [r3, #-4]
  42:	e7eb      	b.n	1c <memset+0x1c>

printf.o:     file format elf32-littlearm


Disassembly of section .text:

00000000 <_itostr>:
   0:	b5f0      	push	{r4, r5, r6, r7, lr}
   2:	0fc7      	lsrs	r7, r0, #31
   4:	b091      	sub	sp, #68	; 0x44
   6:	f10d 043f 	add.w	r4, sp, #63	; 0x3f
   a:	d01b      	beq.n	44 <_itostr+0x44>
   c:	4240      	negs	r0, r0
   e:	4623      	mov	r3, r4
  10:	250a      	movs	r5, #10
  12:	46ec      	mov	ip, sp
  14:	fbb0 f6f5 	udiv	r6, r0, r5
  18:	fb05 0016 	mls	r0, r5, r6, r0
  1c:	3030      	adds	r0, #48	; 0x30
  1e:	f803 0901 	strb.w	r0, [r3], #-1
  22:	4630      	mov	r0, r6
  24:	b10e      	cbz	r6, 2a <_itostr+0x2a>
  26:	4563      	cmp	r3, ip
  28:	d1f4      	bne.n	14 <_itostr+0x14>
  2a:	b132      	cbz	r2, 3a <_itostr+0x3a>
  2c:	4668      	mov	r0, sp
  2e:	2530      	movs	r5, #48	; 0x30
  30:	1ae6      	subs	r6, r4, r3
  32:	4296      	cmp	r6, r2
  34:	da01      	bge.n	3a <_itostr+0x3a>
  36:	4283      	cmp	r3, r0
  38:	d816      	bhi.n	68 <_itostr+0x68>
  3a:	b167      	cbz	r7, 56 <_itostr+0x56>
  3c:	222d      	movs	r2, #45	; 0x2d
  3e:	f803 2901 	strb.w	r2, [r3], #-1
  42:	e008      	b.n	56 <_itostr+0x56>
  44:	2800      	cmp	r0, #0
  46:	d1e2      	bne.n	e <_itostr+0xe>
  48:	2330      	movs	r3, #48	; 0x30
  4a:	f88d 303f 	strb.w	r3, [sp, #63]	; 0x3f
  4e:	f10d 033e 	add.w	r3, sp, #62	; 0x3e
  52:	2a00      	cmp	r2, #0
  54:	d1ea      	bne.n	2c <_itostr+0x2c>
  56:	3301      	adds	r3, #1
  58:	1ae0      	subs	r0, r4, r3
  5a:	3901      	subs	r1, #1
  5c:	aa10      	add	r2, sp, #64	; 0x40
  5e:	4293      	cmp	r3, r2
  60:	d305      	bcc.n	6e <_itostr+0x6e>
  62:	3001      	adds	r0, #1
  64:	b011      	add	sp, #68	; 0x44
  66:	bdf0      	pop	{r4, r5, r6, r7, pc}
  68:	f803 5901 	strb.w	r5, [r3], #-1
  6c:	e7e0      	b.n	30 <_itostr+0x30>
  6e:	f813 2b01 	ldrb.w	r2, [r3], #1
  72:	f801 2f01 	strb.w	r2, [r1, #1]!
  76:	e7f1      	b.n	5c <_itostr+0x5c>

00000078 <_xputch>:
  78:	4603      	mov	r3, r0
  7a:	b410      	push	{r4}
  7c:	4c08      	ldr	r4, [pc, #32]	; (a0 <_xputch+0x28>)
  7e:	68da      	ldr	r2, [r3, #12]
  80:	4608      	mov	r0, r1
  82:	6821      	ldr	r1, [r4, #0]
  84:	3201      	adds	r2, #1
  86:	60da      	str	r2, [r3, #12]
  88:	b139      	cbz	r1, 9a <_xputch+0x22>
  8a:	691b      	ldr	r3, [r3, #16]
  8c:	429a      	cmp	r2, r3
  8e:	da02      	bge.n	96 <_xputch+0x1e>
  90:	1c4b      	adds	r3, r1, #1
  92:	6023      	str	r3, [r4, #0]
  94:	7008      	strb	r0, [r1, #0]
  96:	bc10      	pop	{r4}
  98:	4770      	bx	lr
  9a:	bc10      	pop	{r4}
  9c:	f7ff bffe 	b.w	0 <fputc>
  a0:	00000000 	.word	0x00000000

000000a4 <_format_int>:
  a4:	e92d 43f0 	stmdb	sp!, {r4, r5, r6, r7, r8, r9, lr}
  a8:	4698      	mov	r8, r3
  aa:	b091      	sub	sp, #68	; 0x44
  ac:	ea52 0308 	orrs.w	r3, r2, r8
  b0:	4606      	mov	r6, r0
  b2:	4617      	mov	r7, r2
  b4:	f10d 053f 	add.w	r5, sp, #63	; 0x3f
  b8:	d133      	bne.n	122 <_format_int+0x7e>
  ba:	2330      	movs	r3, #48	; 0x30
  bc:	f10d 043e 	add.w	r4, sp, #62	; 0x3e
  c0:	f88d 303f 	strb.w	r3, [sp, #63]	; 0x3f
  c4:	6833      	ldr	r3, [r6, #0]
  c6:	07d8      	lsls	r0, r3, #31
  c8:	d507      	bpl.n	da <_format_int+0x36>
  ca:	466a      	mov	r2, sp
  cc:	2030      	movs	r0, #48	; 0x30
  ce:	6871      	ldr	r1, [r6, #4]
  d0:	1b2f      	subs	r7, r5, r4
  d2:	428f      	cmp	r7, r1
  d4:	da01      	bge.n	da <_format_int+0x36>
  d6:	4294      	cmp	r4, r2
  d8:	d839      	bhi.n	14e <_format_int+0xaa>
  da:	0699      	lsls	r1, r3, #26
  dc:	d507      	bpl.n	ee <_format_int+0x4a>
  de:	466a      	mov	r2, sp
  e0:	2030      	movs	r0, #48	; 0x30
  e2:	68b1      	ldr	r1, [r6, #8]
  e4:	1b2f      	subs	r7, r5, r4
  e6:	428f      	cmp	r7, r1
  e8:	da01      	bge.n	ee <_format_int+0x4a>
  ea:	4294      	cmp	r4, r2
  ec:	d832      	bhi.n	154 <_format_int+0xb0>
  ee:	071a      	lsls	r2, r3, #28
  f0:	bf44      	itt	mi
  f2:	222d      	movmi	r2, #45	; 0x2d
  f4:	f804 2901 	strbmi.w	r2, [r4], #-1
  f8:	065b      	lsls	r3, r3, #25
  fa:	d407      	bmi.n	10c <_format_int+0x68>
  fc:	466b      	mov	r3, sp
  fe:	2120      	movs	r1, #32
 100:	68b2      	ldr	r2, [r6, #8]
 102:	1b28      	subs	r0, r5, r4
 104:	4290      	cmp	r0, r2
 106:	da01      	bge.n	10c <_format_int+0x68>
 108:	429c      	cmp	r4, r3
 10a:	d826      	bhi.n	15a <_format_int+0xb6>
 10c:	1b2d      	subs	r5, r5, r4
 10e:	3401      	adds	r4, #1
 110:	ab10      	add	r3, sp, #64	; 0x40
 112:	429c      	cmp	r4, r3
 114:	d324      	bcc.n	160 <_format_int+0xbc>
 116:	68b3      	ldr	r3, [r6, #8]
 118:	42ab      	cmp	r3, r5
 11a:	dc27      	bgt.n	16c <_format_int+0xc8>
 11c:	b011      	add	sp, #68	; 0x44
 11e:	e8bd 83f0 	ldmia.w	sp!, {r4, r5, r6, r7, r8, r9, pc}
 122:	462c      	mov	r4, r5
 124:	46e9      	mov	r9, sp
 126:	4638      	mov	r0, r7
 128:	4641      	mov	r1, r8
 12a:	220a      	movs	r2, #10
 12c:	2300      	movs	r3, #0
 12e:	f7ff fffe 	bl	0 <__aeabi_uldivmod>
 132:	3230      	adds	r2, #48	; 0x30
 134:	f804 2901 	strb.w	r2, [r4], #-1
 138:	463a      	mov	r2, r7
 13a:	4643      	mov	r3, r8
 13c:	2a0a      	cmp	r2, #10
 13e:	f173 0300 	sbcs.w	r3, r3, #0
 142:	4607      	mov	r7, r0
 144:	4688      	mov	r8, r1
 146:	d3bd      	bcc.n	c4 <_format_int+0x20>
 148:	454c      	cmp	r4, r9
 14a:	d1ec      	bne.n	126 <_format_int+0x82>
 14c:	e7ba      	b.n	c4 <_format_int+0x20>
 14e:	f804 0901 	strb.w	r0, [r4], #-1
 152:	e7bd      	b.n	d0 <_format_int+0x2c>
 154:	f804 0901 	strb.w	r0, [r4], #-1
 158:	e7c4      	b.n	e4 <_format_int+0x40>
 15a:	f804 1901 	strb.w	r1, [r4], #-1
 15e:	e7d0      	b.n	102 <_format_int+0x5e>
 160:	4630      	mov	r0, r6
 162:	f814 1b01 	ldrb.w	r1, [r4], #1
 166:	f7ff ff87 	bl	78 <_xputch>
 16a:	e7d1      	b.n	110 <_format_int+0x6c>
 16c:	2120      	movs	r1, #32
 16e:	4630      	mov	r0, r6
 170:	f7ff ff82 	bl	78 <_xputch>
 174:	3501      	adds	r5, #1
 176:	e7ce      	b.n	116 <_format_int+0x72>

00000178 <_format_hex>:
 178:	b5f0      	push	{r4, r5, r6, r7, lr}
 17a:	b091      	sub	sp, #68	; 0x44
 17c:	4606      	mov	r6, r0
 17e:	6804      	ldr	r4, [r0, #0]
 180:	f10d 023f 	add.w	r2, sp, #63	; 0x3f
 184:	bb61      	cbnz	r1, 1e0 <_format_hex+0x68>
 186:	2330      	movs	r3, #48	; 0x30
 188:	f88d 303f 	strb.w	r3, [sp, #63]	; 0x3f
 18c:	f10d 033e 	add.w	r3, sp, #62	; 0x3e
 190:	07e5      	lsls	r5, r4, #31
 192:	d507      	bpl.n	1a4 <_format_hex+0x2c>
 194:	4669      	mov	r1, sp
 196:	2530      	movs	r5, #48	; 0x30
 198:	6870      	ldr	r0, [r6, #4]
 19a:	1ad7      	subs	r7, r2, r3
 19c:	4287      	cmp	r7, r0
 19e:	da01      	bge.n	1a4 <_format_hex+0x2c>
 1a0:	428b      	cmp	r3, r1
 1a2:	d831      	bhi.n	208 <_format_hex+0x90>
 1a4:	06a0      	lsls	r0, r4, #26
 1a6:	d507      	bpl.n	1b8 <_format_hex+0x40>
 1a8:	4669      	mov	r1, sp
 1aa:	2530      	movs	r5, #48	; 0x30
 1ac:	68b0      	ldr	r0, [r6, #8]
 1ae:	1ad7      	subs	r7, r2, r3
 1b0:	4287      	cmp	r7, r0
 1b2:	da01      	bge.n	1b8 <_format_hex+0x40>
 1b4:	428b      	cmp	r3, r1
 1b6:	d82a      	bhi.n	20e <_format_hex+0x96>
 1b8:	0661      	lsls	r1, r4, #25
 1ba:	d407      	bmi.n	1cc <_format_hex+0x54>
 1bc:	4669      	mov	r1, sp
 1be:	2420      	movs	r4, #32
 1c0:	68b0      	ldr	r0, [r6, #8]
 1c2:	1ad5      	subs	r5, r2, r3
 1c4:	4285      	cmp	r5, r0
 1c6:	da01      	bge.n	1cc <_format_hex+0x54>
 1c8:	428b      	cmp	r3, r1
 1ca:	d823      	bhi.n	214 <_format_hex+0x9c>
 1cc:	1ad5      	subs	r5, r2, r3
 1ce:	1c5c      	adds	r4, r3, #1
 1d0:	ab10      	add	r3, sp, #64	; 0x40
 1d2:	429c      	cmp	r4, r3
 1d4:	d321      	bcc.n	21a <_format_hex+0xa2>
 1d6:	68b3      	ldr	r3, [r6, #8]
 1d8:	429d      	cmp	r5, r3
 1da:	db24      	blt.n	226 <_format_hex+0xae>
 1dc:	b011      	add	sp, #68	; 0x44
 1de:	bdf0      	pop	{r4, r5, r6, r7, pc}
 1e0:	f014 0f02 	tst.w	r4, #2
 1e4:	bf0c      	ite	eq
 1e6:	2757      	moveq	r7, #87	; 0x57
 1e8:	2737      	movne	r7, #55	; 0x37
 1ea:	4613      	mov	r3, r2
 1ec:	466d      	mov	r5, sp
 1ee:	f001 000f 	and.w	r0, r1, #15
 1f2:	2809      	cmp	r0, #9
 1f4:	bf94      	ite	ls
 1f6:	3030      	addls	r0, #48	; 0x30
 1f8:	19c0      	addhi	r0, r0, r7
 1fa:	0909      	lsrs	r1, r1, #4
 1fc:	f803 0901 	strb.w	r0, [r3], #-1
 200:	d0c6      	beq.n	190 <_format_hex+0x18>
 202:	42ab      	cmp	r3, r5
 204:	d1f3      	bne.n	1ee <_format_hex+0x76>
 206:	e7c3      	b.n	190 <_format_hex+0x18>
 208:	f803 5901 	strb.w	r5, [r3], #-1
 20c:	e7c5      	b.n	19a <_format_hex+0x22>
 20e:	f803 5901 	strb.w	r5, [r3], #-1
 212:	e7cc      	b.n	1ae <_format_hex+0x36>
 214:	f803 4901 	strb.w	r4, [r3], #-1
 218:	e7d3      	b.n	1c2 <_format_hex+0x4a>
 21a:	4630      	mov	r0, r6
 21c:	f814 1b01 	ldrb.w	r1, [r4], #1
 220:	f7ff ff2a 	bl	78 <_xputch>
 224:	e7d4      	b.n	1d0 <_format_hex+0x58>
 226:	2120      	movs	r1, #32
 228:	4630      	mov	r0, r6
 22a:	f7ff ff25 	bl	78 <_xputch>
 22e:	3501      	adds	r5, #1
 230:	e7d1      	b.n	1d6 <_format_hex+0x5e>

00000232 <_vprintf>:
 232:	e92d 4ff0 	stmdb	sp!, {r4, r5, r6, r7, r8, r9, sl, fp, lr}
 236:	f04f 0900 	mov.w	r9, #0
 23a:	460b      	mov	r3, r1
 23c:	4614      	mov	r4, r2
 23e:	f04f 0b0a 	mov.w	fp, #10
 242:	b099      	sub	sp, #100	; 0x64
 244:	e9cd 9006 	strd	r9, r0, [sp, #24]
 248:	7819      	ldrb	r1, [r3, #0]
 24a:	b919      	cbnz	r1, 254 <_vprintf+0x22>
 24c:	9806      	ldr	r0, [sp, #24]
 24e:	b019      	add	sp, #100	; 0x64
 250:	e8bd 8ff0 	ldmia.w	sp!, {r4, r5, r6, r7, r8, r9, sl, fp, pc}
 254:	2925      	cmp	r1, #37	; 0x25
 256:	f103 0501 	add.w	r5, r3, #1
 25a:	d004      	beq.n	266 <_vprintf+0x34>
 25c:	a803      	add	r0, sp, #12
 25e:	f7ff ff0b 	bl	78 <_xputch>
 262:	462b      	mov	r3, r5
 264:	e7f0      	b.n	248 <_vprintf+0x16>
 266:	785a      	ldrb	r2, [r3, #1]
 268:	e9cd 9903 	strd	r9, r9, [sp, #12]
 26c:	2a30      	cmp	r2, #48	; 0x30
 26e:	f8cd 9014 	str.w	r9, [sp, #20]
 272:	d127      	bne.n	2c4 <_vprintf+0x92>
 274:	2220      	movs	r2, #32
 276:	9203      	str	r2, [sp, #12]
 278:	1c9d      	adds	r5, r3, #2
 27a:	2200      	movs	r2, #0
 27c:	462e      	mov	r6, r5
 27e:	4613      	mov	r3, r2
 280:	7831      	ldrb	r1, [r6, #0]
 282:	4635      	mov	r5, r6
 284:	f1a1 0030 	sub.w	r0, r1, #48	; 0x30
 288:	2809      	cmp	r0, #9
 28a:	f106 0601 	add.w	r6, r6, #1
 28e:	d91d      	bls.n	2cc <_vprintf+0x9a>
 290:	b12a      	cbz	r2, 29e <_vprintf+0x6c>
 292:	9305      	str	r3, [sp, #20]
 294:	b11b      	cbz	r3, 29e <_vprintf+0x6c>
 296:	9b03      	ldr	r3, [sp, #12]
 298:	f043 0310 	orr.w	r3, r3, #16
 29c:	9303      	str	r3, [sp, #12]
 29e:	292e      	cmp	r1, #46	; 0x2e
 2a0:	d123      	bne.n	2ea <_vprintf+0xb8>
 2a2:	786b      	ldrb	r3, [r5, #1]
 2a4:	2b2a      	cmp	r3, #42	; 0x2a
 2a6:	d015      	beq.n	2d4 <_vprintf+0xa2>
 2a8:	2100      	movs	r1, #0
 2aa:	260a      	movs	r6, #10
 2ac:	460a      	mov	r2, r1
 2ae:	1c68      	adds	r0, r5, #1
 2b0:	7803      	ldrb	r3, [r0, #0]
 2b2:	4605      	mov	r5, r0
 2b4:	3b30      	subs	r3, #48	; 0x30
 2b6:	2b09      	cmp	r3, #9
 2b8:	f100 0001 	add.w	r0, r0, #1
 2bc:	d958      	bls.n	370 <_vprintf+0x13e>
 2be:	b181      	cbz	r1, 2e2 <_vprintf+0xb0>
 2c0:	9204      	str	r2, [sp, #16]
 2c2:	e00e      	b.n	2e2 <_vprintf+0xb0>
 2c4:	2a2d      	cmp	r2, #45	; 0x2d
 2c6:	d1d8      	bne.n	27a <_vprintf+0x48>
 2c8:	2240      	movs	r2, #64	; 0x40
 2ca:	e7d4      	b.n	276 <_vprintf+0x44>
 2cc:	2201      	movs	r2, #1
 2ce:	fb0b 0303 	mla	r3, fp, r3, r0
 2d2:	e7d5      	b.n	280 <_vprintf+0x4e>
 2d4:	f854 3b04 	ldr.w	r3, [r4], #4
 2d8:	3502      	adds	r5, #2
 2da:	2b00      	cmp	r3, #0
 2dc:	bfb8      	it	lt
 2de:	425b      	neglt	r3, r3
 2e0:	9304      	str	r3, [sp, #16]
 2e2:	9b03      	ldr	r3, [sp, #12]
 2e4:	f043 0301 	orr.w	r3, r3, #1
 2e8:	9303      	str	r3, [sp, #12]
 2ea:	782b      	ldrb	r3, [r5, #0]
 2ec:	2b6c      	cmp	r3, #108	; 0x6c
 2ee:	bf04      	itt	eq
 2f0:	9b03      	ldreq	r3, [sp, #12]
 2f2:	3501      	addeq	r5, #1
 2f4:	7829      	ldrb	r1, [r5, #0]
 2f6:	bf04      	itt	eq
 2f8:	f043 0304 	orreq.w	r3, r3, #4
 2fc:	9303      	streq	r3, [sp, #12]
 2fe:	2958      	cmp	r1, #88	; 0x58
 300:	f000 815a 	beq.w	5b8 <_vprintf+0x386>
 304:	f1a1 0363 	sub.w	r3, r1, #99	; 0x63
 308:	b2da      	uxtb	r2, r3
 30a:	2a15      	cmp	r2, #21
 30c:	d8a6      	bhi.n	25c <_vprintf+0x2a>
 30e:	2b15      	cmp	r3, #21
 310:	d8a4      	bhi.n	25c <_vprintf+0x2a>
 312:	a201      	add	r2, pc, #4	; (adr r2, 318 <_vprintf+0xe6>)
 314:	f852 f023 	ldr.w	pc, [r2, r3, lsl #2]
 318:	00000379 	.word	0x00000379
 31c:	00000387 	.word	0x00000387
 320:	0000025d 	.word	0x0000025d
 324:	000003bb 	.word	0x000003bb
 328:	0000025d 	.word	0x0000025d
 32c:	0000025d 	.word	0x0000025d
 330:	00000387 	.word	0x00000387
 334:	0000025d 	.word	0x0000025d
 338:	0000025d 	.word	0x0000025d
 33c:	0000025d 	.word	0x0000025d
 340:	0000025d 	.word	0x0000025d
 344:	0000025d 	.word	0x0000025d
 348:	0000025d 	.word	0x0000025d
 34c:	00000505 	.word	0x00000505
 350:	0000025d 	.word	0x0000025d
 354:	0000025d 	.word	0x0000025d
 358:	0000052b 	.word	0x0000052b
 35c:	0000025d 	.word	0x0000025d
 360:	0000059b 	.word	0x0000059b
 364:	0000025d 	.word	0x0000025d
 368:	0000025d 	.word	0x0000025d
 36c:	000005c1 	.word	0x000005c1
 370:	2101      	movs	r1, #1
 372:	fb06 3202 	mla	r2, r6, r2, r3
 376:	e79b      	b.n	2b0 <_vprintf+0x7e>
 378:	f854 1b04 	ldr.w	r1, [r4], #4
 37c:	a803      	add	r0, sp, #12
 37e:	f7ff fe7b 	bl	78 <_xputch>
 382:	3501      	adds	r5, #1
 384:	e76d      	b.n	262 <_vprintf+0x30>
 386:	9903      	ldr	r1, [sp, #12]
 388:	074f      	lsls	r7, r1, #29
 38a:	bf43      	ittte	mi
 38c:	3407      	addmi	r4, #7
 38e:	f024 0307 	bicmi.w	r3, r4, #7
 392:	461c      	movmi	r4, r3
 394:	f854 2b04 	ldrpl.w	r2, [r4], #4
 398:	bf4a      	itet	mi
 39a:	685b      	ldrmi	r3, [r3, #4]
 39c:	17d3      	asrpl	r3, r2, #31
 39e:	f854 2b08 	ldrmi.w	r2, [r4], #8
 3a2:	2b00      	cmp	r3, #0
 3a4:	da05      	bge.n	3b2 <_vprintf+0x180>
 3a6:	f041 0108 	orr.w	r1, r1, #8
 3aa:	4252      	negs	r2, r2
 3ac:	9103      	str	r1, [sp, #12]
 3ae:	eb63 0343 	sbc.w	r3, r3, r3, lsl #1
 3b2:	a803      	add	r0, sp, #12
 3b4:	f7ff fe76 	bl	a4 <_format_int>
 3b8:	e7e3      	b.n	382 <_vprintf+0x150>
 3ba:	3407      	adds	r4, #7
 3bc:	f024 0407 	bic.w	r4, r4, #7
 3c0:	e8f4 0102 	ldrd	r0, r1, [r4], #8
 3c4:	f7ff fffe 	bl	0 <__aeabi_d2f>
 3c8:	9b03      	ldr	r3, [sp, #12]
 3ca:	2100      	movs	r1, #0
 3cc:	07de      	lsls	r6, r3, #31
 3ce:	bf54      	ite	pl
 3d0:	f04f 0806 	movpl.w	r8, #6
 3d4:	f8dd 8010 	ldrmi.w	r8, [sp, #16]
 3d8:	4607      	mov	r7, r0
 3da:	f7ff fffe 	bl	0 <__aeabi_fcmplt>
 3de:	2800      	cmp	r0, #0
 3e0:	d061      	beq.n	4a6 <_vprintf+0x274>
 3e2:	232d      	movs	r3, #45	; 0x2d
 3e4:	f107 4700 	add.w	r7, r7, #2147483648	; 0x80000000
 3e8:	f88d 3020 	strb.w	r3, [sp, #32]
 3ec:	f10d 0a21 	add.w	sl, sp, #33	; 0x21
 3f0:	4638      	mov	r0, r7
 3f2:	f7ff fffe 	bl	0 <__aeabi_f2iz>
 3f6:	2200      	movs	r2, #0
 3f8:	4651      	mov	r1, sl
 3fa:	9000      	str	r0, [sp, #0]
 3fc:	f7ff fe00 	bl	0 <_itostr>
 400:	eb0a 0600 	add.w	r6, sl, r0
 404:	9001      	str	r0, [sp, #4]
 406:	9800      	ldr	r0, [sp, #0]
 408:	f7ff fffe 	bl	0 <__aeabi_i2f>
 40c:	4601      	mov	r1, r0
 40e:	4638      	mov	r0, r7
 410:	f7ff fffe 	bl	0 <__aeabi_fsub>
 414:	222e      	movs	r2, #46	; 0x2e
 416:	4601      	mov	r1, r0
 418:	200a      	movs	r0, #10
 41a:	9b01      	ldr	r3, [sp, #4]
 41c:	f108 0701 	add.w	r7, r8, #1
 420:	f80a 2003 	strb.w	r2, [sl, r3]
 424:	4603      	mov	r3, r0
 426:	3601      	adds	r6, #1
 428:	f1b8 0f00 	cmp.w	r8, #0
 42c:	dc3e      	bgt.n	4ac <_vprintf+0x27a>
 42e:	9100      	str	r1, [sp, #0]
 430:	f7ff fffe 	bl	0 <__aeabi_i2f>
 434:	9900      	ldr	r1, [sp, #0]
 436:	f7ff fffe 	bl	0 <__aeabi_fmul>
 43a:	f7ff fffe 	bl	0 <__aeabi_f2iz>
 43e:	463a      	mov	r2, r7
 440:	4631      	mov	r1, r6
 442:	f7ff fddd 	bl	0 <_itostr>
 446:	af08      	add	r7, sp, #32
 448:	4406      	add	r6, r0
 44a:	1bf0      	subs	r0, r6, r7
 44c:	1e46      	subs	r6, r0, #1
 44e:	5dbb      	ldrb	r3, [r7, r6]
 450:	19ba      	adds	r2, r7, r6
 452:	2b34      	cmp	r3, #52	; 0x34
 454:	d910      	bls.n	478 <_vprintf+0x246>
 456:	f812 1c01 	ldrb.w	r1, [r2, #-1]
 45a:	1e53      	subs	r3, r2, #1
 45c:	292e      	cmp	r1, #46	; 0x2e
 45e:	d02c      	beq.n	4ba <_vprintf+0x288>
 460:	469c      	mov	ip, r3
 462:	f04f 0e30 	mov.w	lr, #48	; 0x30
 466:	4663      	mov	r3, ip
 468:	f81c 1901 	ldrb.w	r1, [ip], #-1
 46c:	2939      	cmp	r1, #57	; 0x39
 46e:	d021      	beq.n	4b4 <_vprintf+0x282>
 470:	292e      	cmp	r1, #46	; 0x2e
 472:	d022      	beq.n	4ba <_vprintf+0x288>
 474:	3101      	adds	r1, #1
 476:	7019      	strb	r1, [r3, #0]
 478:	f106 0360 	add.w	r3, r6, #96	; 0x60
 47c:	446b      	add	r3, sp
 47e:	f813 3c41 	ldrb.w	r3, [r3, #-65]
 482:	2b2e      	cmp	r3, #46	; 0x2e
 484:	bf08      	it	eq
 486:	f106 36ff 	addeq.w	r6, r6, #4294967295	; 0xffffffff
 48a:	46b0      	mov	r8, r6
 48c:	9b05      	ldr	r3, [sp, #20]
 48e:	4543      	cmp	r3, r8
 490:	dc31      	bgt.n	4f6 <_vprintf+0x2c4>
 492:	2e00      	cmp	r6, #0
 494:	f77f af75 	ble.w	382 <_vprintf+0x150>
 498:	f817 1b01 	ldrb.w	r1, [r7], #1
 49c:	a803      	add	r0, sp, #12
 49e:	f7ff fdeb 	bl	78 <_xputch>
 4a2:	3e01      	subs	r6, #1
 4a4:	e7f5      	b.n	492 <_vprintf+0x260>
 4a6:	f10d 0a20 	add.w	sl, sp, #32
 4aa:	e7a1      	b.n	3f0 <_vprintf+0x1be>
 4ac:	4358      	muls	r0, r3
 4ae:	f108 38ff 	add.w	r8, r8, #4294967295	; 0xffffffff
 4b2:	e7b9      	b.n	428 <_vprintf+0x1f6>
 4b4:	f88c e001 	strb.w	lr, [ip, #1]
 4b8:	e7d5      	b.n	466 <_vprintf+0x234>
 4ba:	f04f 0c30 	mov.w	ip, #48	; 0x30
 4be:	3b01      	subs	r3, #1
 4c0:	7819      	ldrb	r1, [r3, #0]
 4c2:	2939      	cmp	r1, #57	; 0x39
 4c4:	d10d      	bne.n	4e2 <_vprintf+0x2b0>
 4c6:	42bb      	cmp	r3, r7
 4c8:	d208      	bcs.n	4dc <_vprintf+0x2aa>
 4ca:	1c51      	adds	r1, r2, #1
 4cc:	1c9e      	adds	r6, r3, #2
 4ce:	3202      	adds	r2, #2
 4d0:	4296      	cmp	r6, r2
 4d2:	d10b      	bne.n	4ec <_vprintf+0x2ba>
 4d4:	2231      	movs	r2, #49	; 0x31
 4d6:	4606      	mov	r6, r0
 4d8:	705a      	strb	r2, [r3, #1]
 4da:	e7cd      	b.n	478 <_vprintf+0x246>
 4dc:	f803 c901 	strb.w	ip, [r3], #-1
 4e0:	e7ee      	b.n	4c0 <_vprintf+0x28e>
 4e2:	42bb      	cmp	r3, r7
 4e4:	d3f1      	bcc.n	4ca <_vprintf+0x298>
 4e6:	292d      	cmp	r1, #45	; 0x2d
 4e8:	d1c4      	bne.n	474 <_vprintf+0x242>
 4ea:	e7ee      	b.n	4ca <_vprintf+0x298>
 4ec:	f811 cd01 	ldrb.w	ip, [r1, #-1]!
 4f0:	f802 cd01 	strb.w	ip, [r2, #-1]!
 4f4:	e7ec      	b.n	4d0 <_vprintf+0x29e>
 4f6:	2120      	movs	r1, #32
 4f8:	a803      	add	r0, sp, #12
 4fa:	f7ff fdbd 	bl	78 <_xputch>
 4fe:	f108 0801 	add.w	r8, r8, #1
 502:	e7c3      	b.n	48c <_vprintf+0x25a>
 504:	2308      	movs	r3, #8
 506:	9305      	str	r3, [sp, #20]
 508:	2320      	movs	r3, #32
 50a:	2130      	movs	r1, #48	; 0x30
 50c:	f854 6b04 	ldr.w	r6, [r4], #4
 510:	a803      	add	r0, sp, #12
 512:	9303      	str	r3, [sp, #12]
 514:	f7ff fdb0 	bl	78 <_xputch>
 518:	2178      	movs	r1, #120	; 0x78
 51a:	a803      	add	r0, sp, #12
 51c:	f7ff fdac 	bl	78 <_xputch>
 520:	4631      	mov	r1, r6
 522:	a803      	add	r0, sp, #12
 524:	f7ff fe28 	bl	178 <_format_hex>
 528:	e72b      	b.n	382 <_vprintf+0x150>
 52a:	2600      	movs	r6, #0
 52c:	f854 7b04 	ldr.w	r7, [r4], #4
 530:	5dbb      	ldrb	r3, [r7, r6]
 532:	b98b      	cbnz	r3, 558 <_vprintf+0x326>
 534:	9b03      	ldr	r3, [sp, #12]
 536:	07d9      	lsls	r1, r3, #31
 538:	d503      	bpl.n	542 <_vprintf+0x310>
 53a:	9b04      	ldr	r3, [sp, #16]
 53c:	429e      	cmp	r6, r3
 53e:	bfa8      	it	ge
 540:	461e      	movge	r6, r3
 542:	9b03      	ldr	r3, [sp, #12]
 544:	f106 0801 	add.w	r8, r6, #1
 548:	065a      	lsls	r2, r3, #25
 54a:	d403      	bmi.n	554 <_vprintf+0x322>
 54c:	9b05      	ldr	r3, [sp, #20]
 54e:	429e      	cmp	r6, r3
 550:	db04      	blt.n	55c <_vprintf+0x32a>
 552:	4646      	mov	r6, r8
 554:	3f01      	subs	r7, #1
 556:	e00d      	b.n	574 <_vprintf+0x342>
 558:	3601      	adds	r6, #1
 55a:	e7e9      	b.n	530 <_vprintf+0x2fe>
 55c:	2120      	movs	r1, #32
 55e:	a803      	add	r0, sp, #12
 560:	f7ff fd8a 	bl	78 <_xputch>
 564:	4646      	mov	r6, r8
 566:	e7ec      	b.n	542 <_vprintf+0x310>
 568:	a803      	add	r0, sp, #12
 56a:	f7ff fd85 	bl	78 <_xputch>
 56e:	9b04      	ldr	r3, [sp, #16]
 570:	3b01      	subs	r3, #1
 572:	9304      	str	r3, [sp, #16]
 574:	9b03      	ldr	r3, [sp, #12]
 576:	07db      	lsls	r3, r3, #31
 578:	d501      	bpl.n	57e <_vprintf+0x34c>
 57a:	9b04      	ldr	r3, [sp, #16]
 57c:	b11b      	cbz	r3, 586 <_vprintf+0x354>
 57e:	f817 1f01 	ldrb.w	r1, [r7, #1]!
 582:	2900      	cmp	r1, #0
 584:	d1f0      	bne.n	568 <_vprintf+0x336>
 586:	9b05      	ldr	r3, [sp, #20]
 588:	429e      	cmp	r6, r3
 58a:	f6bf aefa 	bge.w	382 <_vprintf+0x150>
 58e:	2120      	movs	r1, #32
 590:	a803      	add	r0, sp, #12
 592:	f7ff fd71 	bl	78 <_xputch>
 596:	3601      	adds	r6, #1
 598:	e7f5      	b.n	586 <_vprintf+0x354>
 59a:	9b03      	ldr	r3, [sp, #12]
 59c:	f013 0304 	ands.w	r3, r3, #4
 5a0:	bf1d      	ittte	ne
 5a2:	3407      	addne	r4, #7
 5a4:	f024 0307 	bicne.w	r3, r4, #7
 5a8:	461c      	movne	r4, r3
 5aa:	f854 2b04 	ldreq.w	r2, [r4], #4
 5ae:	bf1c      	itt	ne
 5b0:	f854 2b08 	ldrne.w	r2, [r4], #8
 5b4:	685b      	ldrne	r3, [r3, #4]
 5b6:	e6fc      	b.n	3b2 <_vprintf+0x180>
 5b8:	9b03      	ldr	r3, [sp, #12]
 5ba:	f043 0302 	orr.w	r3, r3, #2
 5be:	9303      	str	r3, [sp, #12]
 5c0:	f854 1b04 	ldr.w	r1, [r4], #4
 5c4:	e7ad      	b.n	522 <_vprintf+0x2f0>

000005c6 <printf>:
 5c6:	b40f      	push	{r0, r1, r2, r3}
 5c8:	b507      	push	{r0, r1, r2, lr}
 5ca:	aa04      	add	r2, sp, #16
 5cc:	f852 1b04 	ldr.w	r1, [r2], #4
 5d0:	f06f 4000 	mvn.w	r0, #2147483648	; 0x80000000
 5d4:	9201      	str	r2, [sp, #4]
 5d6:	f7ff fe2c 	bl	232 <_vprintf>
 5da:	b003      	add	sp, #12
 5dc:	f85d eb04 	ldr.w	lr, [sp], #4
 5e0:	b004      	add	sp, #16
 5e2:	4770      	bx	lr

000005e4 <vprintf>:
 5e4:	460a      	mov	r2, r1
 5e6:	4601      	mov	r1, r0
 5e8:	f06f 4000 	mvn.w	r0, #2147483648	; 0x80000000
 5ec:	e621      	b.n	232 <_vprintf>

000005ee <sprintf>:
 5ee:	b40e      	push	{r1, r2, r3}
 5f0:	b517      	push	{r0, r1, r2, r4, lr}
 5f2:	4c09      	ldr	r4, [pc, #36]	; (618 <sprintf+0x2a>)
 5f4:	aa05      	add	r2, sp, #20
 5f6:	f852 1b04 	ldr.w	r1, [r2], #4
 5fa:	6020      	str	r0, [r4, #0]
 5fc:	f06f 4000 	mvn.w	r0, #2147483648	; 0x80000000
 600:	9201      	str	r2, [sp, #4]
 602:	f7ff fe16 	bl	232 <_vprintf>
 606:	2300      	movs	r3, #0
 608:	6822      	ldr	r2, [r4, #0]
 60a:	6023      	str	r3, [r4, #0]
 60c:	7013      	strb	r3, [r2, #0]
 60e:	b003      	add	sp, #12
 610:	e8bd 4010 	ldmia.w	sp!, {r4, lr}
 614:	b003      	add	sp, #12
 616:	4770      	bx	lr
 618:	00000000 	.word	0x00000000

0000061c <vsprintf>:
 61c:	b510      	push	{r4, lr}
 61e:	4c05      	ldr	r4, [pc, #20]	; (634 <vsprintf+0x18>)
 620:	6020      	str	r0, [r4, #0]
 622:	f06f 4000 	mvn.w	r0, #2147483648	; 0x80000000
 626:	f7ff fe04 	bl	232 <_vprintf>
 62a:	2300      	movs	r3, #0
 62c:	6822      	ldr	r2, [r4, #0]
 62e:	6023      	str	r3, [r4, #0]
 630:	7013      	strb	r3, [r2, #0]
 632:	bd10      	pop	{r4, pc}
 634:	00000000 	.word	0x00000000

00000638 <snprintf>:
 638:	b40c      	push	{r2, r3}
 63a:	460b      	mov	r3, r1
 63c:	b513      	push	{r0, r1, r4, lr}
 63e:	4c09      	ldr	r4, [pc, #36]	; (664 <snprintf+0x2c>)
 640:	aa04      	add	r2, sp, #16
 642:	f852 1b04 	ldr.w	r1, [r2], #4
 646:	6020      	str	r0, [r4, #0]
 648:	4618      	mov	r0, r3
 64a:	9201      	str	r2, [sp, #4]
 64c:	f7ff fdf1 	bl	232 <_vprintf>
 650:	2300      	movs	r3, #0
 652:	6822      	ldr	r2, [r4, #0]
 654:	6023      	str	r3, [r4, #0]
 656:	7013      	strb	r3, [r2, #0]
 658:	b002      	add	sp, #8
 65a:	e8bd 4010 	ldmia.w	sp!, {r4, lr}
 65e:	b002      	add	sp, #8
 660:	4770      	bx	lr
 662:	bf00      	nop
 664:	00000000 	.word	0x00000000

00000668 <vsnprintf>:
 668:	b538      	push	{r3, r4, r5, lr}
 66a:	4605      	mov	r5, r0
 66c:	4c05      	ldr	r4, [pc, #20]	; (684 <vsnprintf+0x1c>)
 66e:	4608      	mov	r0, r1
 670:	4611      	mov	r1, r2
 672:	461a      	mov	r2, r3
 674:	6025      	str	r5, [r4, #0]
 676:	f7ff fddc 	bl	232 <_vprintf>
 67a:	2300      	movs	r3, #0
 67c:	6822      	ldr	r2, [r4, #0]
 67e:	6023      	str	r3, [r4, #0]
 680:	7013      	strb	r3, [r2, #0]
 682:	bd38      	pop	{r3, r4, r5, pc}
 684:	00000000 	.word	0x00000000
